
Chain_Tof.elf:     file format elf32-littlearm

Sections:
Idx Name          Size      VMA       LMA       File off  Algn
  0 .isr_vector   000000bc  08000000  08000000  00001000  2**0
                  CONTENTS, ALLOC, LOAD, READONLY, DATA
  1 .text         00003bc0  080000c0  080000c0  000010c0  2**3
                  CONTENTS, ALLOC, LOAD, READONLY, CODE
  2 .rodata       0000010c  08003c80  08003c80  00004c80  2**2
                  CONTENTS, ALLOC, LOAD, READONLY, DATA
  3 .ARM.extab    00000000  08003d8c  08003d8c  000050b0  2**0
                  CONTENTS
  4 .ARM          00000000  08003d8c  08003d8c  000050b0  2**0
                  CONTENTS
  5 .preinit_array 00000000  08003d8c  08003d8c  000050b0  2**0
                  CONTENTS, ALLOC, LOAD, DATA
  6 .init_array   00000004  08003d8c  08003d8c  00004d8c  2**2
                  CONTENTS, ALLOC, LOAD, READONLY, DATA
  7 .fini_array   00000004  08003d90  08003d90  00004d90  2**2
                  CONTENTS, ALLOC, LOAD, READONLY, DATA
  8 .data         000000b0  20000000  08003d94  00005000  2**2
                  CONTENTS, ALLOC, LOAD, CODE
  9 .bss          00000c30  200000b0  08003e44  000050b0  2**2
                  ALLOC
 10 ._user_heap_stack 00000600  20000ce0  08003e44  00005ce0  2**0
                  ALLOC
 11 .ARM.attributes 00000028  00000000  00000000  000050b0  2**0
                  CONTENTS, READONLY
 12 .comment      00000043  00000000  00000000  000050d8  2**0
                  CONTENTS, READONLY
 13 .debug_frame  000005d0  00000000  00000000  0000511c  2**2
                  CONTENTS, READONLY, DEBUGGING, OCTETS

Disassembly of section .text:

080000c0 <__do_global_dtors_aux>:
 80000c0:	b510      	push	{r4, lr}
 80000c2:	4c06      	ldr	r4, [pc, #24]	@ (80000dc <__do_global_dtors_aux+0x1c>)
 80000c4:	7823      	ldrb	r3, [r4, #0]
 80000c6:	2b00      	cmp	r3, #0
 80000c8:	d107      	bne.n	80000da <__do_global_dtors_aux+0x1a>
 80000ca:	4b05      	ldr	r3, [pc, #20]	@ (80000e0 <__do_global_dtors_aux+0x20>)
 80000cc:	2b00      	cmp	r3, #0
 80000ce:	d002      	beq.n	80000d6 <__do_global_dtors_aux+0x16>
 80000d0:	4804      	ldr	r0, [pc, #16]	@ (80000e4 <__do_global_dtors_aux+0x24>)
 80000d2:	e000      	b.n	80000d6 <__do_global_dtors_aux+0x16>
 80000d4:	bf00      	nop
 80000d6:	2301      	movs	r3, #1
 80000d8:	7023      	strb	r3, [r4, #0]
 80000da:	bd10      	pop	{r4, pc}
 80000dc:	200000b0 	.word	0x200000b0
 80000e0:	00000000 	.word	0x00000000
 80000e4:	08003c58 	.word	0x08003c58

080000e8 <frame_dummy>:
 80000e8:	4b04      	ldr	r3, [pc, #16]	@ (80000fc <frame_dummy+0x14>)
 80000ea:	b510      	push	{r4, lr}
 80000ec:	2b00      	cmp	r3, #0
 80000ee:	d003      	beq.n	80000f8 <frame_dummy+0x10>
 80000f0:	4903      	ldr	r1, [pc, #12]	@ (8000100 <frame_dummy+0x18>)
 80000f2:	4804      	ldr	r0, [pc, #16]	@ (8000104 <frame_dummy+0x1c>)
 80000f4:	e000      	b.n	80000f8 <frame_dummy+0x10>
 80000f6:	bf00      	nop
 80000f8:	bd10      	pop	{r4, pc}
 80000fa:	46c0      	nop			@ (mov r8, r8)
 80000fc:	00000000 	.word	0x00000000
 8000100:	200000b4 	.word	0x200000b4
 8000104:	08003c58 	.word	0x08003c58

08000108 <strlen>:
 8000108:	2300      	movs	r3, #0
 800010a:	5cc2      	ldrb	r2, [r0, r3]
 800010c:	3301      	adds	r3, #1
 800010e:	2a00      	cmp	r2, #0
 8000110:	d1fb      	bne.n	800010a <strlen+0x2>
 8000112:	1e58      	subs	r0, r3, #1
 8000114:	4770      	bx	lr
	...

08000118 <__gnu_thumb1_case_shi>:
 8000118:	b403      	push	{r0, r1}
 800011a:	4671      	mov	r1, lr
 800011c:	0849      	lsrs	r1, r1, #1
 800011e:	0040      	lsls	r0, r0, #1
 8000120:	0049      	lsls	r1, r1, #1
 8000122:	5e09      	ldrsh	r1, [r1, r0]
 8000124:	0049      	lsls	r1, r1, #1
 8000126:	448e      	add	lr, r1
 8000128:	bc03      	pop	{r0, r1}
 800012a:	4770      	bx	lr

0800012c <__udivsi3>:
 800012c:	2200      	movs	r2, #0
 800012e:	0843      	lsrs	r3, r0, #1
 8000130:	428b      	cmp	r3, r1
 8000132:	d374      	bcc.n	800021e <__udivsi3+0xf2>
 8000134:	0903      	lsrs	r3, r0, #4
 8000136:	428b      	cmp	r3, r1
 8000138:	d35f      	bcc.n	80001fa <__udivsi3+0xce>
 800013a:	0a03      	lsrs	r3, r0, #8
 800013c:	428b      	cmp	r3, r1
 800013e:	d344      	bcc.n	80001ca <__udivsi3+0x9e>
 8000140:	0b03      	lsrs	r3, r0, #12
 8000142:	428b      	cmp	r3, r1
 8000144:	d328      	bcc.n	8000198 <__udivsi3+0x6c>
 8000146:	0c03      	lsrs	r3, r0, #16
 8000148:	428b      	cmp	r3, r1
 800014a:	d30d      	bcc.n	8000168 <__udivsi3+0x3c>
 800014c:	22ff      	movs	r2, #255	@ 0xff
 800014e:	0209      	lsls	r1, r1, #8
 8000150:	ba12      	rev	r2, r2
 8000152:	0c03      	lsrs	r3, r0, #16
 8000154:	428b      	cmp	r3, r1
 8000156:	d302      	bcc.n	800015e <__udivsi3+0x32>
 8000158:	1212      	asrs	r2, r2, #8
 800015a:	0209      	lsls	r1, r1, #8
 800015c:	d065      	beq.n	800022a <__udivsi3+0xfe>
 800015e:	0b03      	lsrs	r3, r0, #12
 8000160:	428b      	cmp	r3, r1
 8000162:	d319      	bcc.n	8000198 <__udivsi3+0x6c>
 8000164:	e000      	b.n	8000168 <__udivsi3+0x3c>
 8000166:	0a09      	lsrs	r1, r1, #8
 8000168:	0bc3      	lsrs	r3, r0, #15
 800016a:	428b      	cmp	r3, r1
 800016c:	d301      	bcc.n	8000172 <__udivsi3+0x46>
 800016e:	03cb      	lsls	r3, r1, #15
 8000170:	1ac0      	subs	r0, r0, r3
 8000172:	4152      	adcs	r2, r2
 8000174:	0b83      	lsrs	r3, r0, #14
 8000176:	428b      	cmp	r3, r1
 8000178:	d301      	bcc.n	800017e <__udivsi3+0x52>
 800017a:	038b      	lsls	r3, r1, #14
 800017c:	1ac0      	subs	r0, r0, r3
 800017e:	4152      	adcs	r2, r2
 8000180:	0b43      	lsrs	r3, r0, #13
 8000182:	428b      	cmp	r3, r1
 8000184:	d301      	bcc.n	800018a <__udivsi3+0x5e>
 8000186:	034b      	lsls	r3, r1, #13
 8000188:	1ac0      	subs	r0, r0, r3
 800018a:	4152      	adcs	r2, r2
 800018c:	0b03      	lsrs	r3, r0, #12
 800018e:	428b      	cmp	r3, r1
 8000190:	d301      	bcc.n	8000196 <__udivsi3+0x6a>
 8000192:	030b      	lsls	r3, r1, #12
 8000194:	1ac0      	subs	r0, r0, r3
 8000196:	4152      	adcs	r2, r2
 8000198:	0ac3      	lsrs	r3, r0, #11
 800019a:	428b      	cmp	r3, r1
 800019c:	d301      	bcc.n	80001a2 <__udivsi3+0x76>
 800019e:	02cb      	lsls	r3, r1, #11
 80001a0:	1ac0      	subs	r0, r0, r3
 80001a2:	4152      	adcs	r2, r2
 80001a4:	0a83      	lsrs	r3, r0, #10
 80001a6:	428b      	cmp	r3, r1
 80001a8:	d301      	bcc.n	80001ae <__udivsi3+0x82>
 80001aa:	028b      	lsls	r3, r1, #10
 80001ac:	1ac0      	subs	r0, r0, r3
 80001ae:	4152      	adcs	r2, r2
 80001b0:	0a43      	lsrs	r3, r0, #9
 80001b2:	428b      	cmp	r3, r1
 80001b4:	d301      	bcc.n	80001ba <__udivsi3+0x8e>
 80001b6:	024b      	lsls	r3, r1, #9
 80001b8:	1ac0      	subs	r0, r0, r3
 80001ba:	4152      	adcs	r2, r2
 80001bc:	0a03      	lsrs	r3, r0, #8
 80001be:	428b      	cmp	r3, r1
 80001c0:	d301      	bcc.n	80001c6 <__udivsi3+0x9a>
 80001c2:	020b      	lsls	r3, r1, #8
 80001c4:	1ac0      	subs	r0, r0, r3
 80001c6:	4152      	adcs	r2, r2
 80001c8:	d2cd      	bcs.n	8000166 <__udivsi3+0x3a>
 80001ca:	09c3      	lsrs	r3, r0, #7
 80001cc:	428b      	cmp	r3, r1
 80001ce:	d301      	bcc.n	80001d4 <__udivsi3+0xa8>
 80001d0:	01cb      	lsls	r3, r1, #7
 80001d2:	1ac0      	subs	r0, r0, r3
 80001d4:	4152      	adcs	r2, r2
 80001d6:	0983      	lsrs	r3, r0, #6
 80001d8:	428b      	cmp	r3, r1
 80001da:	d301      	bcc.n	80001e0 <__udivsi3+0xb4>
 80001dc:	018b      	lsls	r3, r1, #6
 80001de:	1ac0      	subs	r0, r0, r3
 80001e0:	4152      	adcs	r2, r2
 80001e2:	0943      	lsrs	r3, r0, #5
 80001e4:	428b      	cmp	r3, r1
 80001e6:	d301      	bcc.n	80001ec <__udivsi3+0xc0>
 80001e8:	014b      	lsls	r3, r1, #5
 80001ea:	1ac0      	subs	r0, r0, r3
 80001ec:	4152      	adcs	r2, r2
 80001ee:	0903      	lsrs	r3, r0, #4
 80001f0:	428b      	cmp	r3, r1
 80001f2:	d301      	bcc.n	80001f8 <__udivsi3+0xcc>
 80001f4:	010b      	lsls	r3, r1, #4
 80001f6:	1ac0      	subs	r0, r0, r3
 80001f8:	4152      	adcs	r2, r2
 80001fa:	08c3      	lsrs	r3, r0, #3
 80001fc:	428b      	cmp	r3, r1
 80001fe:	d301      	bcc.n	8000204 <__udivsi3+0xd8>
 8000200:	00cb      	lsls	r3, r1, #3
 8000202:	1ac0      	subs	r0, r0, r3
 8000204:	4152      	adcs	r2, r2
 8000206:	0883      	lsrs	r3, r0, #2
 8000208:	428b      	cmp	r3, r1
 800020a:	d301      	bcc.n	8000210 <__udivsi3+0xe4>
 800020c:	008b      	lsls	r3, r1, #2
 800020e:	1ac0      	subs	r0, r0, r3
 8000210:	4152      	adcs	r2, r2
 8000212:	0843      	lsrs	r3, r0, #1
 8000214:	428b      	cmp	r3, r1
 8000216:	d301      	bcc.n	800021c <__udivsi3+0xf0>
 8000218:	004b      	lsls	r3, r1, #1
 800021a:	1ac0      	subs	r0, r0, r3
 800021c:	4152      	adcs	r2, r2
 800021e:	1a41      	subs	r1, r0, r1
 8000220:	d200      	bcs.n	8000224 <__udivsi3+0xf8>
 8000222:	4601      	mov	r1, r0
 8000224:	4152      	adcs	r2, r2
 8000226:	4610      	mov	r0, r2
 8000228:	4770      	bx	lr
 800022a:	e7ff      	b.n	800022c <__udivsi3+0x100>
 800022c:	b501      	push	{r0, lr}
 800022e:	2000      	movs	r0, #0
 8000230:	f000 f8f0 	bl	8000414 <__aeabi_idiv0>
 8000234:	bd02      	pop	{r1, pc}
 8000236:	46c0      	nop			@ (mov r8, r8)

08000238 <__aeabi_uidivmod>:
 8000238:	2900      	cmp	r1, #0
 800023a:	d0f7      	beq.n	800022c <__udivsi3+0x100>
 800023c:	e776      	b.n	800012c <__udivsi3>
 800023e:	4770      	bx	lr

08000240 <__divsi3>:
 8000240:	4603      	mov	r3, r0
 8000242:	430b      	orrs	r3, r1
 8000244:	d47f      	bmi.n	8000346 <__divsi3+0x106>
 8000246:	2200      	movs	r2, #0
 8000248:	0843      	lsrs	r3, r0, #1
 800024a:	428b      	cmp	r3, r1
 800024c:	d374      	bcc.n	8000338 <__divsi3+0xf8>
 800024e:	0903      	lsrs	r3, r0, #4
 8000250:	428b      	cmp	r3, r1
 8000252:	d35f      	bcc.n	8000314 <__divsi3+0xd4>
 8000254:	0a03      	lsrs	r3, r0, #8
 8000256:	428b      	cmp	r3, r1
 8000258:	d344      	bcc.n	80002e4 <__divsi3+0xa4>
 800025a:	0b03      	lsrs	r3, r0, #12
 800025c:	428b      	cmp	r3, r1
 800025e:	d328      	bcc.n	80002b2 <__divsi3+0x72>
 8000260:	0c03      	lsrs	r3, r0, #16
 8000262:	428b      	cmp	r3, r1
 8000264:	d30d      	bcc.n	8000282 <__divsi3+0x42>
 8000266:	22ff      	movs	r2, #255	@ 0xff
 8000268:	0209      	lsls	r1, r1, #8
 800026a:	ba12      	rev	r2, r2
 800026c:	0c03      	lsrs	r3, r0, #16
 800026e:	428b      	cmp	r3, r1
 8000270:	d302      	bcc.n	8000278 <__divsi3+0x38>
 8000272:	1212      	asrs	r2, r2, #8
 8000274:	0209      	lsls	r1, r1, #8
 8000276:	d065      	beq.n	8000344 <__divsi3+0x104>
 8000278:	0b03      	lsrs	r3, r0, #12
 800027a:	428b      	cmp	r3, r1
 800027c:	d319      	bcc.n	80002b2 <__divsi3+0x72>
 800027e:	e000      	b.n	8000282 <__divsi3+0x42>
 8000280:	0a09      	lsrs	r1, r1, #8
 8000282:	0bc3      	lsrs	r3, r0, #15
 8000284:	428b      	cmp	r3, r1
 8000286:	d301      	bcc.n	800028c <__divsi3+0x4c>
 8000288:	03cb      	lsls	r3, r1, #15
 800028a:	1ac0      	subs	r0, r0, r3
 800028c:	4152      	adcs	r2, r2
 800028e:	0b83      	lsrs	r3, r0, #14
 8000290:	428b      	cmp	r3, r1
 8000292:	d301      	bcc.n	8000298 <__divsi3+0x58>
 8000294:	038b      	lsls	r3, r1, #14
 8000296:	1ac0      	subs	r0, r0, r3
 8000298:	4152      	adcs	r2, r2
 800029a:	0b43      	lsrs	r3, r0, #13
 800029c:	428b      	cmp	r3, r1
 800029e:	d301      	bcc.n	80002a4 <__divsi3+0x64>
 80002a0:	034b      	lsls	r3, r1, #13
 80002a2:	1ac0      	subs	r0, r0, r3
 80002a4:	4152      	adcs	r2, r2
 80002a6:	0b03      	lsrs	r3, r0, #12
 80002a8:	428b      	cmp	r3, r1
 80002aa:	d301      	bcc.n	80002b0 <__divsi3+0x70>
 80002ac:	030b      	lsls	r3, r1, #12
 80002ae:	1ac0      	subs	r0, r0, r3
 80002b0:	4152      	adcs	r2, r2
 80002b2:	0ac3      	lsrs	r3, r0, #11
 80002b4:	428b      	cmp	r3, r1
 80002b6:	d301      	bcc.n	80002bc <__divsi3+0x7c>
 80002b8:	02cb      	lsls	r3, r1, #11
 80002ba:	1ac0      	subs	r0, r0, r3
 80002bc:	4152      	adcs	r2, r2
 80002be:	0a83      	lsrs	r3, r0, #10
 80002c0:	428b      	cmp	r3, r1
 80002c2:	d301      	bcc.n	80002c8 <__divsi3+0x88>
 80002c4:	028b      	lsls	r3, r1, #10
 80002c6:	1ac0      	subs	r0, r0, r3
 80002c8:	4152      	adcs	r2, r2
 80002ca:	0a43      	lsrs	r3, r0, #9
 80002cc:	428b      	cmp	r3, r1
 80002ce:	d301      	bcc.n	80002d4 <__divsi3+0x94>
 80002d0:	024b      	lsls	r3, r1, #9
 80002d2:	1ac0      	subs	r0, r0, r3
 80002d4:	4152      	adcs	r2, r2
 80002d6:	0a03      	lsrs	r3, r0, #8
 80002d8:	428b      	cmp	r3, r1
 80002da:	d301      	bcc.n	80002e0 <__divsi3+0xa0>
 80002dc:	020b      	lsls	r3, r1, #8
 80002de:	1ac0      	subs	r0, r0, r3
 80002e0:	4152      	adcs	r2, r2
 80002e2:	d2cd      	bcs.n	8000280 <__divsi3+0x40>
 80002e4:	09c3      	lsrs	r3, r0, #7
 80002e6:	428b      	cmp	r3, r1
 80002e8:	d301      	bcc.n	80002ee <__divsi3+0xae>
 80002ea:	01cb      	lsls	r3, r1, #7
 80002ec:	1ac0      	subs	r0, r0, r3
 80002ee:	4152      	adcs	r2, r2
 80002f0:	0983      	lsrs	r3, r0, #6
 80002f2:	428b      	cmp	r3, r1
 80002f4:	d301      	bcc.n	80002fa <__divsi3+0xba>
 80002f6:	018b      	lsls	r3, r1, #6
 80002f8:	1ac0      	subs	r0, r0, r3
 80002fa:	4152      	adcs	r2, r2
 80002fc:	0943      	lsrs	r3, r0, #5
 80002fe:	428b      	cmp	r3, r1
 8000300:	d301      	bcc.n	8000306 <__divsi3+0xc6>
 8000302:	014b      	lsls	r3, r1, #5
 8000304:	1ac0      	subs	r0, r0, r3
 8000306:	4152      	adcs	r2, r2
 8000308:	0903      	lsrs	r3, r0, #4
 800030a:	428b      	cmp	r3, r1
 800030c:	d301      	bcc.n	8000312 <__divsi3+0xd2>
 800030e:	010b      	lsls	r3, r1, #4
 8000310:	1ac0      	subs	r0, r0, r3
 8000312:	4152      	adcs	r2, r2
 8000314:	08c3      	lsrs	r3, r0, #3
 8000316:	428b      	cmp	r3, r1
 8000318:	d301      	bcc.n	800031e <__divsi3+0xde>
 800031a:	00cb      	lsls	r3, r1, #3
 800031c:	1ac0      	subs	r0, r0, r3
 800031e:	4152      	adcs	r2, r2
 8000320:	0883      	lsrs	r3, r0, #2
 8000322:	428b      	cmp	r3, r1
 8000324:	d301      	bcc.n	800032a <__divsi3+0xea>
 8000326:	008b      	lsls	r3, r1, #2
 8000328:	1ac0      	subs	r0, r0, r3
 800032a:	4152      	adcs	r2, r2
 800032c:	0843      	lsrs	r3, r0, #1
 800032e:	428b      	cmp	r3, r1
 8000330:	d301      	bcc.n	8000336 <__divsi3+0xf6>
 8000332:	004b      	lsls	r3, r1, #1
 8000334:	1ac0      	subs	r0, r0, r3
 8000336:	4152      	adcs	r2, r2
 8000338:	1a41      	subs	r1, r0, r1
 800033a:	d200      	bcs.n	800033e <__divsi3+0xfe>
 800033c:	4601      	mov	r1, r0
 800033e:	4152      	adcs	r2, r2
 8000340:	4610      	mov	r0, r2
 8000342:	4770      	bx	lr
 8000344:	e05d      	b.n	8000402 <__divsi3+0x1c2>
 8000346:	0fca      	lsrs	r2, r1, #31
 8000348:	d000      	beq.n	800034c <__divsi3+0x10c>
 800034a:	4249      	negs	r1, r1
 800034c:	1003      	asrs	r3, r0, #32
 800034e:	d300      	bcc.n	8000352 <__divsi3+0x112>
 8000350:	4240      	negs	r0, r0
 8000352:	4053      	eors	r3, r2
 8000354:	2200      	movs	r2, #0
 8000356:	469c      	mov	ip, r3
 8000358:	0903      	lsrs	r3, r0, #4
 800035a:	428b      	cmp	r3, r1
 800035c:	d32d      	bcc.n	80003ba <__divsi3+0x17a>
 800035e:	0a03      	lsrs	r3, r0, #8
 8000360:	428b      	cmp	r3, r1
 8000362:	d312      	bcc.n	800038a <__divsi3+0x14a>
 8000364:	22fc      	movs	r2, #252	@ 0xfc
 8000366:	0189      	lsls	r1, r1, #6
 8000368:	ba12      	rev	r2, r2
 800036a:	0a03      	lsrs	r3, r0, #8
 800036c:	428b      	cmp	r3, r1
 800036e:	d30c      	bcc.n	800038a <__divsi3+0x14a>
 8000370:	0189      	lsls	r1, r1, #6
 8000372:	1192      	asrs	r2, r2, #6
 8000374:	428b      	cmp	r3, r1
 8000376:	d308      	bcc.n	800038a <__divsi3+0x14a>
 8000378:	0189      	lsls	r1, r1, #6
 800037a:	1192      	asrs	r2, r2, #6
 800037c:	428b      	cmp	r3, r1
 800037e:	d304      	bcc.n	800038a <__divsi3+0x14a>
 8000380:	0189      	lsls	r1, r1, #6
 8000382:	d03a      	beq.n	80003fa <__divsi3+0x1ba>
 8000384:	1192      	asrs	r2, r2, #6
 8000386:	e000      	b.n	800038a <__divsi3+0x14a>
 8000388:	0989      	lsrs	r1, r1, #6
 800038a:	09c3      	lsrs	r3, r0, #7
 800038c:	428b      	cmp	r3, r1
 800038e:	d301      	bcc.n	8000394 <__divsi3+0x154>
 8000390:	01cb      	lsls	r3, r1, #7
 8000392:	1ac0      	subs	r0, r0, r3
 8000394:	4152      	adcs	r2, r2
 8000396:	0983      	lsrs	r3, r0, #6
 8000398:	428b      	cmp	r3, r1
 800039a:	d301      	bcc.n	80003a0 <__divsi3+0x160>
 800039c:	018b      	lsls	r3, r1, #6
 800039e:	1ac0      	subs	r0, r0, r3
 80003a0:	4152      	adcs	r2, r2
 80003a2:	0943      	lsrs	r3, r0, #5
 80003a4:	428b      	cmp	r3, r1
 80003a6:	d301      	bcc.n	80003ac <__divsi3+0x16c>
 80003a8:	014b      	lsls	r3, r1, #5
 80003aa:	1ac0      	subs	r0, r0, r3
 80003ac:	4152      	adcs	r2, r2
 80003ae:	0903      	lsrs	r3, r0, #4
 80003b0:	428b      	cmp	r3, r1
 80003b2:	d301      	bcc.n	80003b8 <__divsi3+0x178>
 80003b4:	010b      	lsls	r3, r1, #4
 80003b6:	1ac0      	subs	r0, r0, r3
 80003b8:	4152      	adcs	r2, r2
 80003ba:	08c3      	lsrs	r3, r0, #3
 80003bc:	428b      	cmp	r3, r1
 80003be:	d301      	bcc.n	80003c4 <__divsi3+0x184>
 80003c0:	00cb      	lsls	r3, r1, #3
 80003c2:	1ac0      	subs	r0, r0, r3
 80003c4:	4152      	adcs	r2, r2
 80003c6:	0883      	lsrs	r3, r0, #2
 80003c8:	428b      	cmp	r3, r1
 80003ca:	d301      	bcc.n	80003d0 <__divsi3+0x190>
 80003cc:	008b      	lsls	r3, r1, #2
 80003ce:	1ac0      	subs	r0, r0, r3
 80003d0:	4152      	adcs	r2, r2
 80003d2:	d2d9      	bcs.n	8000388 <__divsi3+0x148>
 80003d4:	0843      	lsrs	r3, r0, #1
 80003d6:	428b      	cmp	r3, r1
 80003d8:	d301      	bcc.n	80003de <__divsi3+0x19e>
 80003da:	004b      	lsls	r3, r1, #1
 80003dc:	1ac0      	subs	r0, r0, r3
 80003de:	4152      	adcs	r2, r2
 80003e0:	1a41      	subs	r1, r0, r1
 80003e2:	d200      	bcs.n	80003e6 <__divsi3+0x1a6>
 80003e4:	4601      	mov	r1, r0
 80003e6:	4663      	mov	r3, ip
 80003e8:	4152      	adcs	r2, r2
 80003ea:	105b      	asrs	r3, r3, #1
 80003ec:	4610      	mov	r0, r2
 80003ee:	d301      	bcc.n	80003f4 <__divsi3+0x1b4>
 80003f0:	4240      	negs	r0, r0
 80003f2:	2b00      	cmp	r3, #0
 80003f4:	d500      	bpl.n	80003f8 <__divsi3+0x1b8>
 80003f6:	4249      	negs	r1, r1
 80003f8:	4770      	bx	lr
 80003fa:	4663      	mov	r3, ip
 80003fc:	105b      	asrs	r3, r3, #1
 80003fe:	d300      	bcc.n	8000402 <__divsi3+0x1c2>
 8000400:	4240      	negs	r0, r0
 8000402:	b501      	push	{r0, lr}
 8000404:	2000      	movs	r0, #0
 8000406:	f000 f805 	bl	8000414 <__aeabi_idiv0>
 800040a:	bd02      	pop	{r1, pc}

0800040c <__aeabi_idivmod>:
 800040c:	2900      	cmp	r1, #0
 800040e:	d0f8      	beq.n	8000402 <__divsi3+0x1c2>
 8000410:	e716      	b.n	8000240 <__divsi3>
 8000412:	4770      	bx	lr

08000414 <__aeabi_idiv0>:
 8000414:	4770      	bx	lr
 8000416:	46c0      	nop			@ (mov r8, r8)

08000418 <head_end_check>:
 8000418:	7803      	ldrb	r3, [r0, #0]
 800041a:	2baa      	cmp	r3, #170	@ 0xaa
 800041c:	d001      	beq.n	8000422 <head_end_check+0xa>
 800041e:	2000      	movs	r0, #0
 8000420:	4770      	bx	lr
 8000422:	7843      	ldrb	r3, [r0, #1]
 8000424:	2b55      	cmp	r3, #85	@ 0x55
 8000426:	d001      	beq.n	800042c <head_end_check+0x14>
 8000428:	2000      	movs	r0, #0
 800042a:	e7f9      	b.n	8000420 <head_end_check+0x8>
 800042c:	1843      	adds	r3, r0, r1
 800042e:	3b01      	subs	r3, #1
 8000430:	781b      	ldrb	r3, [r3, #0]
 8000432:	2baa      	cmp	r3, #170	@ 0xaa
 8000434:	d001      	beq.n	800043a <head_end_check+0x22>
 8000436:	2000      	movs	r0, #0
 8000438:	e7f2      	b.n	8000420 <head_end_check+0x8>
 800043a:	1840      	adds	r0, r0, r1
 800043c:	3802      	subs	r0, #2
 800043e:	7803      	ldrb	r3, [r0, #0]
 8000440:	2b55      	cmp	r3, #85	@ 0x55
 8000442:	d001      	beq.n	8000448 <head_end_check+0x30>
 8000444:	2000      	movs	r0, #0
 8000446:	e7eb      	b.n	8000420 <head_end_check+0x8>
 8000448:	2001      	movs	r0, #1
 800044a:	e7e9      	b.n	8000420 <head_end_check+0x8>

0800044c <crc_check>:
 800044c:	b530      	push	{r4, r5, lr}
 800044e:	3903      	subs	r1, #3
 8000450:	5c45      	ldrb	r5, [r0, r1]
 8000452:	2200      	movs	r2, #0
 8000454:	2100      	movs	r1, #0
 8000456:	e005      	b.n	8000464 <crc_check+0x18>
 8000458:	1883      	adds	r3, r0, r2
 800045a:	791b      	ldrb	r3, [r3, #4]
 800045c:	1859      	adds	r1, r3, r1
 800045e:	b2c9      	uxtb	r1, r1
 8000460:	3201      	adds	r2, #1
 8000462:	b292      	uxth	r2, r2
 8000464:	78c3      	ldrb	r3, [r0, #3]
 8000466:	021b      	lsls	r3, r3, #8
 8000468:	7884      	ldrb	r4, [r0, #2]
 800046a:	4323      	orrs	r3, r4
 800046c:	3b01      	subs	r3, #1
 800046e:	429a      	cmp	r2, r3
 8000470:	dbf2      	blt.n	8000458 <crc_check+0xc>
 8000472:	42a9      	cmp	r1, r5
 8000474:	d001      	beq.n	800047a <crc_check+0x2e>
 8000476:	2000      	movs	r0, #0
 8000478:	bd30      	pop	{r4, r5, pc}
 800047a:	2001      	movs	r0, #1
 800047c:	e7fc      	b.n	8000478 <crc_check+0x2c>

0800047e <pack_check>:
 800047e:	b570      	push	{r4, r5, r6, lr}
 8000480:	0005      	movs	r5, r0
 8000482:	000c      	movs	r4, r1
 8000484:	2904      	cmp	r1, #4
 8000486:	d90d      	bls.n	80004a4 <pack_check+0x26>
 8000488:	f7ff ffc6 	bl	8000418 <head_end_check>
 800048c:	2801      	cmp	r0, #1
 800048e:	d001      	beq.n	8000494 <pack_check+0x16>
 8000490:	2000      	movs	r0, #0
 8000492:	bd70      	pop	{r4, r5, r6, pc}
 8000494:	0021      	movs	r1, r4
 8000496:	0028      	movs	r0, r5
 8000498:	f7ff ffd8 	bl	800044c <crc_check>
 800049c:	2801      	cmp	r0, #1
 800049e:	d0f8      	beq.n	8000492 <pack_check+0x14>
 80004a0:	2000      	movs	r0, #0
 80004a2:	e7f6      	b.n	8000492 <pack_check+0x14>
 80004a4:	2000      	movs	r0, #0
 80004a6:	e7f4      	b.n	8000492 <pack_check+0x14>

080004a8 <uart_in_send>:
 80004a8:	b510      	push	{r4, lr}
 80004aa:	f000 ffe1 	bl	8001470 <usart1_transmit_dma>
 80004ae:	bd10      	pop	{r4, pc}

080004b0 <uart_out_send>:
 80004b0:	b510      	push	{r4, lr}
 80004b2:	f000 fff5 	bl	80014a0 <usart2_transmit_dma>
 80004b6:	bd10      	pop	{r4, pc}

080004b8 <chain_enum_handle>:
 80004b8:	b510      	push	{r4, lr}
 80004ba:	7983      	ldrb	r3, [r0, #6]
 80004bc:	3301      	adds	r3, #1
 80004be:	7183      	strb	r3, [r0, #6]
 80004c0:	79c3      	ldrb	r3, [r0, #7]
 80004c2:	3301      	adds	r3, #1
 80004c4:	71c3      	strb	r3, [r0, #7]
 80004c6:	4b05      	ldr	r3, [pc, #20]	@ (80004dc <chain_enum_handle+0x24>)
 80004c8:	781b      	ldrb	r3, [r3, #0]
 80004ca:	2b01      	cmp	r3, #1
 80004cc:	d002      	beq.n	80004d4 <chain_enum_handle+0x1c>
 80004ce:	f7ff ffef 	bl	80004b0 <uart_out_send>
 80004d2:	bd10      	pop	{r4, pc}
 80004d4:	f7ff ffe8 	bl	80004a8 <uart_in_send>
 80004d8:	e7fb      	b.n	80004d2 <chain_enum_handle+0x1a>
 80004da:	46c0      	nop			@ (mov r8, r8)
 80004dc:	20000000 	.word	0x20000000

080004e0 <chain_enum_return_handle>:
 80004e0:	b510      	push	{r4, lr}
 80004e2:	f7ff ffe1 	bl	80004a8 <uart_in_send>
 80004e6:	bd10      	pop	{r4, pc}

080004e8 <chain_enum_please_handle>:
 80004e8:	b510      	push	{r4, lr}
 80004ea:	f7ff ffdd 	bl	80004a8 <uart_in_send>
 80004ee:	bd10      	pop	{r4, pc}

080004f0 <chain_heartbeat_in_receive_handle>:
 80004f0:	b510      	push	{r4, lr}
 80004f2:	4802      	ldr	r0, [pc, #8]	@ (80004fc <chain_heartbeat_in_receive_handle+0xc>)
 80004f4:	2109      	movs	r1, #9
 80004f6:	f7ff ffd7 	bl	80004a8 <uart_in_send>
 80004fa:	bd10      	pop	{r4, pc}
 80004fc:	20000004 	.word	0x20000004

08000500 <chain_heartbeat_out_receive_handle>:
 8000500:	b510      	push	{r4, lr}
 8000502:	4b05      	ldr	r3, [pc, #20]	@ (8000518 <chain_heartbeat_out_receive_handle+0x18>)
 8000504:	7818      	ldrb	r0, [r3, #0]
 8000506:	3002      	adds	r0, #2
 8000508:	2103      	movs	r1, #3
 800050a:	f7ff ff7f 	bl	800040c <__aeabi_idivmod>
 800050e:	4b03      	ldr	r3, [pc, #12]	@ (800051c <chain_heartbeat_out_receive_handle+0x1c>)
 8000510:	2201      	movs	r2, #1
 8000512:	545a      	strb	r2, [r3, r1]
 8000514:	bd10      	pop	{r4, pc}
 8000516:	46c0      	nop			@ (mov r8, r8)
 8000518:	20000b68 	.word	0x20000b68
 800051c:	20000b6c 	.word	0x20000b6c

08000520 <chain_deal_data_packet_handle>:
 8000520:	b510      	push	{r4, lr}
 8000522:	4b10      	ldr	r3, [pc, #64]	@ (8000564 <chain_deal_data_packet_handle+0x44>)
 8000524:	781b      	ldrb	r3, [r3, #0]
 8000526:	b2da      	uxtb	r2, r3
 8000528:	2b00      	cmp	r3, #0
 800052a:	d119      	bne.n	8000560 <chain_deal_data_packet_handle+0x40>
 800052c:	4b0e      	ldr	r3, [pc, #56]	@ (8000568 <chain_deal_data_packet_handle+0x48>)
 800052e:	2100      	movs	r1, #0
 8000530:	7019      	strb	r1, [r3, #0]
 8000532:	4b0c      	ldr	r3, [pc, #48]	@ (8000564 <chain_deal_data_packet_handle+0x44>)
 8000534:	3101      	adds	r1, #1
 8000536:	7019      	strb	r1, [r3, #0]
 8000538:	e00b      	b.n	8000552 <chain_deal_data_packet_handle+0x32>
 800053a:	490b      	ldr	r1, [pc, #44]	@ (8000568 <chain_deal_data_packet_handle+0x48>)
 800053c:	780b      	ldrb	r3, [r1, #0]
 800053e:	b2dc      	uxtb	r4, r3
 8000540:	3301      	adds	r3, #1
 8000542:	b2db      	uxtb	r3, r3
 8000544:	700b      	strb	r3, [r1, #0]
 8000546:	1883      	adds	r3, r0, r2
 8000548:	7959      	ldrb	r1, [r3, #5]
 800054a:	4b08      	ldr	r3, [pc, #32]	@ (800056c <chain_deal_data_packet_handle+0x4c>)
 800054c:	5519      	strb	r1, [r3, r4]
 800054e:	3201      	adds	r2, #1
 8000550:	b2d2      	uxtb	r2, r2
 8000552:	78c3      	ldrb	r3, [r0, #3]
 8000554:	021b      	lsls	r3, r3, #8
 8000556:	7881      	ldrb	r1, [r0, #2]
 8000558:	430b      	orrs	r3, r1
 800055a:	3b02      	subs	r3, #2
 800055c:	429a      	cmp	r2, r3
 800055e:	dbec      	blt.n	800053a <chain_deal_data_packet_handle+0x1a>
 8000560:	bd10      	pop	{r4, pc}
 8000562:	46c0      	nop			@ (mov r8, r8)
 8000564:	20000161 	.word	0x20000161
 8000568:	20000162 	.word	0x20000162
 800056c:	20000164 	.word	0x20000164

08000570 <chain_out_relay_handle>:
 8000570:	b510      	push	{r4, lr}
 8000572:	7903      	ldrb	r3, [r0, #4]
 8000574:	3b01      	subs	r3, #1
 8000576:	7103      	strb	r3, [r0, #4]
 8000578:	1eca      	subs	r2, r1, #3
 800057a:	5c83      	ldrb	r3, [r0, r2]
 800057c:	3b01      	subs	r3, #1
 800057e:	5483      	strb	r3, [r0, r2]
 8000580:	f7ff ff96 	bl	80004b0 <uart_out_send>
 8000584:	bd10      	pop	{r4, pc}

08000586 <chain_in_relay_handle>:
 8000586:	b510      	push	{r4, lr}
 8000588:	7903      	ldrb	r3, [r0, #4]
 800058a:	3301      	adds	r3, #1
 800058c:	7103      	strb	r3, [r0, #4]
 800058e:	1eca      	subs	r2, r1, #3
 8000590:	5c83      	ldrb	r3, [r0, r2]
 8000592:	3301      	adds	r3, #1
 8000594:	5483      	strb	r3, [r0, r2]
 8000596:	f7ff ff87 	bl	80004a8 <uart_in_send>
 800059a:	bd10      	pop	{r4, pc}

0800059c <GPIO_init>:
 800059c:	b500      	push	{lr}
 800059e:	b087      	sub	sp, #28
 80005a0:	2214      	movs	r2, #20
 80005a2:	2100      	movs	r1, #0
 80005a4:	a801      	add	r0, sp, #4
 80005a6:	f002 ff8d 	bl	80034c4 <memset>
 80005aa:	2380      	movs	r3, #128	@ 0x80
 80005ac:	005b      	lsls	r3, r3, #1
 80005ae:	9301      	str	r3, [sp, #4]
 80005b0:	3bff      	subs	r3, #255	@ 0xff
 80005b2:	9302      	str	r3, [sp, #8]
 80005b4:	9304      	str	r3, [sp, #16]
 80005b6:	20a0      	movs	r0, #160	@ 0xa0
 80005b8:	a901      	add	r1, sp, #4
 80005ba:	05c0      	lsls	r0, r0, #23
 80005bc:	f001 fa60 	bl	8001a80 <HAL_GPIO_Init>
 80005c0:	b007      	add	sp, #28
 80005c2:	bd00      	pop	{pc}

080005c4 <rgb_init>:
 80005c4:	b510      	push	{r4, lr}
 80005c6:	f7ff ffe9 	bl	800059c <GPIO_init>
 80005ca:	2300      	movs	r3, #0
 80005cc:	e025      	b.n	800061a <rgb_init+0x56>
 80005ce:	46c0      	nop			@ (mov r8, r8)
 80005d0:	46c0      	nop			@ (mov r8, r8)
 80005d2:	46c0      	nop			@ (mov r8, r8)
 80005d4:	46c0      	nop			@ (mov r8, r8)
 80005d6:	46c0      	nop			@ (mov r8, r8)
 80005d8:	46c0      	nop			@ (mov r8, r8)
 80005da:	46c0      	nop			@ (mov r8, r8)
 80005dc:	46c0      	nop			@ (mov r8, r8)
 80005de:	46c0      	nop			@ (mov r8, r8)
 80005e0:	46c0      	nop			@ (mov r8, r8)
 80005e2:	46c0      	nop			@ (mov r8, r8)
 80005e4:	46c0      	nop			@ (mov r8, r8)
 80005e6:	46c0      	nop			@ (mov r8, r8)
 80005e8:	46c0      	nop			@ (mov r8, r8)
 80005ea:	46c0      	nop			@ (mov r8, r8)
 80005ec:	46c0      	nop			@ (mov r8, r8)
 80005ee:	46c0      	nop			@ (mov r8, r8)
 80005f0:	46c0      	nop			@ (mov r8, r8)
 80005f2:	46c0      	nop			@ (mov r8, r8)
 80005f4:	46c0      	nop			@ (mov r8, r8)
 80005f6:	46c0      	nop			@ (mov r8, r8)
 80005f8:	46c0      	nop			@ (mov r8, r8)
 80005fa:	46c0      	nop			@ (mov r8, r8)
 80005fc:	46c0      	nop			@ (mov r8, r8)
 80005fe:	46c0      	nop			@ (mov r8, r8)
 8000600:	46c0      	nop			@ (mov r8, r8)
 8000602:	46c0      	nop			@ (mov r8, r8)
 8000604:	46c0      	nop			@ (mov r8, r8)
 8000606:	46c0      	nop			@ (mov r8, r8)
 8000608:	46c0      	nop			@ (mov r8, r8)
 800060a:	46c0      	nop			@ (mov r8, r8)
 800060c:	46c0      	nop			@ (mov r8, r8)
 800060e:	46c0      	nop			@ (mov r8, r8)
 8000610:	46c0      	nop			@ (mov r8, r8)
 8000612:	46c0      	nop			@ (mov r8, r8)
 8000614:	46c0      	nop			@ (mov r8, r8)
 8000616:	3301      	adds	r3, #1
 8000618:	b2db      	uxtb	r3, r3
 800061a:	2b84      	cmp	r3, #132	@ 0x84
 800061c:	d9d7      	bls.n	80005ce <rgb_init+0xa>
 800061e:	2104      	movs	r1, #4
 8000620:	2001      	movs	r0, #1
 8000622:	f002 fe45 	bl	80032b0 <calloc>
 8000626:	4b03      	ldr	r3, [pc, #12]	@ (8000634 <rgb_init+0x70>)
 8000628:	6018      	str	r0, [r3, #0]
 800062a:	4b03      	ldr	r3, [pc, #12]	@ (8000638 <rgb_init+0x74>)
 800062c:	2201      	movs	r2, #1
 800062e:	701a      	strb	r2, [r3, #0]
 8000630:	bd10      	pop	{r4, pc}
 8000632:	46c0      	nop			@ (mov r8, r8)
 8000634:	200000cc 	.word	0x200000cc
 8000638:	200000d0 	.word	0x200000d0

0800063c <MX_DMA_Init>:
 800063c:	b500      	push	{lr}
 800063e:	b083      	sub	sp, #12
 8000640:	4a14      	ldr	r2, [pc, #80]	@ (8000694 <MX_DMA_Init+0x58>)
 8000642:	6b91      	ldr	r1, [r2, #56]	@ 0x38
 8000644:	2301      	movs	r3, #1
 8000646:	4319      	orrs	r1, r3
 8000648:	6391      	str	r1, [r2, #56]	@ 0x38
 800064a:	6b92      	ldr	r2, [r2, #56]	@ 0x38
 800064c:	4013      	ands	r3, r2
 800064e:	9301      	str	r3, [sp, #4]
 8000650:	9b01      	ldr	r3, [sp, #4]
 8000652:	4b11      	ldr	r3, [pc, #68]	@ (8000698 <MX_DMA_Init+0x5c>)
 8000654:	22c2      	movs	r2, #194	@ 0xc2
 8000656:	0092      	lsls	r2, r2, #2
 8000658:	5898      	ldr	r0, [r3, r2]
 800065a:	4910      	ldr	r1, [pc, #64]	@ (800069c <MX_DMA_Init+0x60>)
 800065c:	4008      	ands	r0, r1
 800065e:	2180      	movs	r1, #128	@ 0x80
 8000660:	01c9      	lsls	r1, r1, #7
 8000662:	4301      	orrs	r1, r0
 8000664:	5099      	str	r1, [r3, r2]
 8000666:	2180      	movs	r1, #128	@ 0x80
 8000668:	0089      	lsls	r1, r1, #2
 800066a:	6019      	str	r1, [r3, #0]
 800066c:	5898      	ldr	r0, [r3, r2]
 800066e:	490c      	ldr	r1, [pc, #48]	@ (80006a0 <MX_DMA_Init+0x64>)
 8000670:	4008      	ands	r0, r1
 8000672:	2180      	movs	r1, #128	@ 0x80
 8000674:	03c9      	lsls	r1, r1, #15
 8000676:	4301      	orrs	r1, r0
 8000678:	5099      	str	r1, [r3, r2]
 800067a:	32f8      	adds	r2, #248	@ 0xf8
 800067c:	601a      	str	r2, [r3, #0]
 800067e:	2200      	movs	r2, #0
 8000680:	2101      	movs	r1, #1
 8000682:	200b      	movs	r0, #11
 8000684:	f001 f886 	bl	8001794 <HAL_NVIC_SetPriority>
 8000688:	200b      	movs	r0, #11
 800068a:	f001 f887 	bl	800179c <HAL_NVIC_EnableIRQ>
 800068e:	b003      	add	sp, #12
 8000690:	bd00      	pop	{pc}
 8000692:	46c0      	nop			@ (mov r8, r8)
 8000694:	40021000 	.word	0x40021000
 8000698:	e000e100 	.word	0xe000e100
 800069c:	ffff00ff 	.word	0xffff00ff
 80006a0:	ff00ffff 	.word	0xff00ffff

080006a4 <MX_GPIO_Init>:
 80006a4:	b082      	sub	sp, #8
 80006a6:	4b09      	ldr	r3, [pc, #36]	@ (80006cc <MX_GPIO_Init+0x28>)
 80006a8:	6b59      	ldr	r1, [r3, #52]	@ 0x34
 80006aa:	2201      	movs	r2, #1
 80006ac:	4311      	orrs	r1, r2
 80006ae:	6359      	str	r1, [r3, #52]	@ 0x34
 80006b0:	6b59      	ldr	r1, [r3, #52]	@ 0x34
 80006b2:	400a      	ands	r2, r1
 80006b4:	9200      	str	r2, [sp, #0]
 80006b6:	9a00      	ldr	r2, [sp, #0]
 80006b8:	6b59      	ldr	r1, [r3, #52]	@ 0x34
 80006ba:	2202      	movs	r2, #2
 80006bc:	4311      	orrs	r1, r2
 80006be:	6359      	str	r1, [r3, #52]	@ 0x34
 80006c0:	6b5b      	ldr	r3, [r3, #52]	@ 0x34
 80006c2:	401a      	ands	r2, r3
 80006c4:	9201      	str	r2, [sp, #4]
 80006c6:	9b01      	ldr	r3, [sp, #4]
 80006c8:	b002      	add	sp, #8
 80006ca:	4770      	bx	lr
 80006cc:	40021000 	.word	0x40021000

080006d0 <MX_I2C2_Init>:
 80006d0:	b510      	push	{r4, lr}
 80006d2:	4814      	ldr	r0, [pc, #80]	@ (8000724 <MX_I2C2_Init+0x54>)
 80006d4:	4b14      	ldr	r3, [pc, #80]	@ (8000728 <MX_I2C2_Init+0x58>)
 80006d6:	6003      	str	r3, [r0, #0]
 80006d8:	4b14      	ldr	r3, [pc, #80]	@ (800072c <MX_I2C2_Init+0x5c>)
 80006da:	6043      	str	r3, [r0, #4]
 80006dc:	2300      	movs	r3, #0
 80006de:	6083      	str	r3, [r0, #8]
 80006e0:	2201      	movs	r2, #1
 80006e2:	60c2      	str	r2, [r0, #12]
 80006e4:	6103      	str	r3, [r0, #16]
 80006e6:	6143      	str	r3, [r0, #20]
 80006e8:	6183      	str	r3, [r0, #24]
 80006ea:	61c3      	str	r3, [r0, #28]
 80006ec:	6203      	str	r3, [r0, #32]
 80006ee:	f001 fc4d 	bl	8001f8c <HAL_I2C_Init>
 80006f2:	2800      	cmp	r0, #0
 80006f4:	d10c      	bne.n	8000710 <MX_I2C2_Init+0x40>
 80006f6:	480b      	ldr	r0, [pc, #44]	@ (8000724 <MX_I2C2_Init+0x54>)
 80006f8:	2100      	movs	r1, #0
 80006fa:	f001 ff07 	bl	800250c <HAL_I2CEx_ConfigAnalogFilter>
 80006fe:	2800      	cmp	r0, #0
 8000700:	d109      	bne.n	8000716 <MX_I2C2_Init+0x46>
 8000702:	4808      	ldr	r0, [pc, #32]	@ (8000724 <MX_I2C2_Init+0x54>)
 8000704:	2100      	movs	r1, #0
 8000706:	f001 ff2d 	bl	8002564 <HAL_I2CEx_ConfigDigitalFilter>
 800070a:	2800      	cmp	r0, #0
 800070c:	d106      	bne.n	800071c <MX_I2C2_Init+0x4c>
 800070e:	bd10      	pop	{r4, pc}
 8000710:	f000 f862 	bl	80007d8 <Error_Handler>
 8000714:	e7ef      	b.n	80006f6 <MX_I2C2_Init+0x26>
 8000716:	f000 f85f 	bl	80007d8 <Error_Handler>
 800071a:	e7f2      	b.n	8000702 <MX_I2C2_Init+0x32>
 800071c:	f000 f85c 	bl	80007d8 <Error_Handler>
 8000720:	e7f5      	b.n	800070e <MX_I2C2_Init+0x3e>
 8000722:	46c0      	nop			@ (mov r8, r8)
 8000724:	200000d4 	.word	0x200000d4
 8000728:	40005800 	.word	0x40005800
 800072c:	10707dbc 	.word	0x10707dbc

08000730 <HAL_I2C_MspInit>:
 8000730:	b510      	push	{r4, lr}
 8000732:	b088      	sub	sp, #32
 8000734:	0004      	movs	r4, r0
 8000736:	2214      	movs	r2, #20
 8000738:	2100      	movs	r1, #0
 800073a:	a803      	add	r0, sp, #12
 800073c:	f002 fec2 	bl	80034c4 <memset>
 8000740:	6822      	ldr	r2, [r4, #0]
 8000742:	4b13      	ldr	r3, [pc, #76]	@ (8000790 <HAL_I2C_MspInit+0x60>)
 8000744:	429a      	cmp	r2, r3
 8000746:	d001      	beq.n	800074c <HAL_I2C_MspInit+0x1c>
 8000748:	b008      	add	sp, #32
 800074a:	bd10      	pop	{r4, pc}
 800074c:	4c11      	ldr	r4, [pc, #68]	@ (8000794 <HAL_I2C_MspInit+0x64>)
 800074e:	6b62      	ldr	r2, [r4, #52]	@ 0x34
 8000750:	2301      	movs	r3, #1
 8000752:	431a      	orrs	r2, r3
 8000754:	6362      	str	r2, [r4, #52]	@ 0x34
 8000756:	6b62      	ldr	r2, [r4, #52]	@ 0x34
 8000758:	401a      	ands	r2, r3
 800075a:	9201      	str	r2, [sp, #4]
 800075c:	9a01      	ldr	r2, [sp, #4]
 800075e:	22c0      	movs	r2, #192	@ 0xc0
 8000760:	0152      	lsls	r2, r2, #5
 8000762:	9203      	str	r2, [sp, #12]
 8000764:	2212      	movs	r2, #18
 8000766:	9204      	str	r2, [sp, #16]
 8000768:	9305      	str	r3, [sp, #20]
 800076a:	9306      	str	r3, [sp, #24]
 800076c:	3305      	adds	r3, #5
 800076e:	9307      	str	r3, [sp, #28]
 8000770:	20a0      	movs	r0, #160	@ 0xa0
 8000772:	a903      	add	r1, sp, #12
 8000774:	05c0      	lsls	r0, r0, #23
 8000776:	f001 f983 	bl	8001a80 <HAL_GPIO_Init>
 800077a:	6be3      	ldr	r3, [r4, #60]	@ 0x3c
 800077c:	2280      	movs	r2, #128	@ 0x80
 800077e:	03d2      	lsls	r2, r2, #15
 8000780:	4313      	orrs	r3, r2
 8000782:	63e3      	str	r3, [r4, #60]	@ 0x3c
 8000784:	6be3      	ldr	r3, [r4, #60]	@ 0x3c
 8000786:	4013      	ands	r3, r2
 8000788:	9302      	str	r3, [sp, #8]
 800078a:	9b02      	ldr	r3, [sp, #8]
 800078c:	e7dc      	b.n	8000748 <HAL_I2C_MspInit+0x18>
 800078e:	46c0      	nop			@ (mov r8, r8)
 8000790:	40005800 	.word	0x40005800
 8000794:	40021000 	.word	0x40021000

08000798 <chain_init>:
 8000798:	b510      	push	{r4, lr}
 800079a:	f000 ff45 	bl	8001628 <get_bootloader_version>
 800079e:	4b09      	ldr	r3, [pc, #36]	@ (80007c4 <chain_init+0x2c>)
 80007a0:	7018      	strb	r0, [r3, #0]
 80007a2:	f000 ff19 	bl	80015d8 <get_rgb_light>
 80007a6:	28ff      	cmp	r0, #255	@ 0xff
 80007a8:	d004      	beq.n	80007b4 <chain_init+0x1c>
 80007aa:	f000 ff15 	bl	80015d8 <get_rgb_light>
 80007ae:	4b06      	ldr	r3, [pc, #24]	@ (80007c8 <chain_init+0x30>)
 80007b0:	7018      	strb	r0, [r3, #0]
 80007b2:	bd10      	pop	{r4, pc}
 80007b4:	4b04      	ldr	r3, [pc, #16]	@ (80007c8 <chain_init+0x30>)
 80007b6:	220a      	movs	r2, #10
 80007b8:	701a      	strb	r2, [r3, #0]
 80007ba:	7818      	ldrb	r0, [r3, #0]
 80007bc:	b2c0      	uxtb	r0, r0
 80007be:	f000 ff11 	bl	80015e4 <set_rgb_light>
 80007c2:	e7f6      	b.n	80007b2 <chain_init+0x1a>
 80007c4:	20000160 	.word	0x20000160
 80007c8:	2000015f 	.word	0x2000015f

080007cc <makeuint16>:
 80007cc:	0209      	lsls	r1, r1, #8
 80007ce:	23ff      	movs	r3, #255	@ 0xff
 80007d0:	4003      	ands	r3, r0
 80007d2:	430b      	orrs	r3, r1
 80007d4:	b298      	uxth	r0, r3
 80007d6:	4770      	bx	lr

080007d8 <Error_Handler>:
 80007d8:	b672      	cpsid	i
 80007da:	e7fe      	b.n	80007da <Error_Handler+0x2>

080007dc <SystemClock_Config>:
 80007dc:	b500      	push	{lr}
 80007de:	b093      	sub	sp, #76	@ 0x4c
 80007e0:	2238      	movs	r2, #56	@ 0x38
 80007e2:	2100      	movs	r1, #0
 80007e4:	a804      	add	r0, sp, #16
 80007e6:	f002 fe6d 	bl	80034c4 <memset>
 80007ea:	2210      	movs	r2, #16
 80007ec:	2100      	movs	r1, #0
 80007ee:	4668      	mov	r0, sp
 80007f0:	f002 fe68 	bl	80034c4 <memset>
 80007f4:	2080      	movs	r0, #128	@ 0x80
 80007f6:	0080      	lsls	r0, r0, #2
 80007f8:	f001 fede 	bl	80025b8 <HAL_PWREx_ControlVoltageScaling>
 80007fc:	230a      	movs	r3, #10
 80007fe:	9304      	str	r3, [sp, #16]
 8000800:	33f6      	adds	r3, #246	@ 0xf6
 8000802:	9307      	str	r3, [sp, #28]
 8000804:	2300      	movs	r3, #0
 8000806:	9308      	str	r3, [sp, #32]
 8000808:	2240      	movs	r2, #64	@ 0x40
 800080a:	9209      	str	r2, [sp, #36]	@ 0x24
 800080c:	3a3f      	subs	r2, #63	@ 0x3f
 800080e:	920a      	str	r2, [sp, #40]	@ 0x28
 8000810:	3201      	adds	r2, #1
 8000812:	920b      	str	r2, [sp, #44]	@ 0x2c
 8000814:	920c      	str	r2, [sp, #48]	@ 0x30
 8000816:	930d      	str	r3, [sp, #52]	@ 0x34
 8000818:	3308      	adds	r3, #8
 800081a:	930e      	str	r3, [sp, #56]	@ 0x38
 800081c:	2380      	movs	r3, #128	@ 0x80
 800081e:	029b      	lsls	r3, r3, #10
 8000820:	930f      	str	r3, [sp, #60]	@ 0x3c
 8000822:	23c0      	movs	r3, #192	@ 0xc0
 8000824:	04db      	lsls	r3, r3, #19
 8000826:	9310      	str	r3, [sp, #64]	@ 0x40
 8000828:	2380      	movs	r3, #128	@ 0x80
 800082a:	059b      	lsls	r3, r3, #22
 800082c:	9311      	str	r3, [sp, #68]	@ 0x44
 800082e:	a804      	add	r0, sp, #16
 8000830:	f001 feec 	bl	800260c <HAL_RCC_OscConfig>
 8000834:	2800      	cmp	r0, #0
 8000836:	d10e      	bne.n	8000856 <SystemClock_Config+0x7a>
 8000838:	2307      	movs	r3, #7
 800083a:	9300      	str	r3, [sp, #0]
 800083c:	3b05      	subs	r3, #5
 800083e:	9301      	str	r3, [sp, #4]
 8000840:	2300      	movs	r3, #0
 8000842:	9302      	str	r3, [sp, #8]
 8000844:	9303      	str	r3, [sp, #12]
 8000846:	2102      	movs	r1, #2
 8000848:	4668      	mov	r0, sp
 800084a:	f002 f997 	bl	8002b7c <HAL_RCC_ClockConfig>
 800084e:	2800      	cmp	r0, #0
 8000850:	d103      	bne.n	800085a <SystemClock_Config+0x7e>
 8000852:	b013      	add	sp, #76	@ 0x4c
 8000854:	bd00      	pop	{pc}
 8000856:	f7ff ffbf 	bl	80007d8 <Error_Handler>
 800085a:	f7ff ffbd 	bl	80007d8 <Error_Handler>
	...

08000860 <main>:
 8000860:	b530      	push	{r4, r5, lr}
 8000862:	b089      	sub	sp, #36	@ 0x24
 8000864:	f7ff ff98 	bl	8000798 <chain_init>
 8000868:	f000 ff10 	bl	800168c <HAL_Init>
 800086c:	f7ff ffb6 	bl	80007dc <SystemClock_Config>
 8000870:	f7ff ff18 	bl	80006a4 <MX_GPIO_Init>
 8000874:	f7ff fee2 	bl	800063c <MX_DMA_Init>
 8000878:	f000 fbbe 	bl	8000ff8 <MX_USART1_UART_Init>
 800087c:	f000 fd20 	bl	80012c0 <MX_USART2_UART_Init>
 8000880:	f000 fae2 	bl	8000e48 <MX_TIM14_Init>
 8000884:	f000 fb1c 	bl	8000ec0 <MX_TIM16_Init>
 8000888:	f7ff ff22 	bl	80006d0 <MX_I2C2_Init>
 800088c:	f7ff fe9a 	bl	80005c4 <rgb_init>
 8000890:	4b52      	ldr	r3, [pc, #328]	@ (80009dc <main+0x17c>)
 8000892:	68d9      	ldr	r1, [r3, #12]
 8000894:	2201      	movs	r2, #1
 8000896:	4311      	orrs	r1, r2
 8000898:	60d9      	str	r1, [r3, #12]
 800089a:	6819      	ldr	r1, [r3, #0]
 800089c:	4311      	orrs	r1, r2
 800089e:	6019      	str	r1, [r3, #0]
 80008a0:	231f      	movs	r3, #31
 80008a2:	446b      	add	r3, sp
 80008a4:	701a      	strb	r2, [r3, #0]
 80008a6:	e004      	b.n	80008b2 <main+0x52>
 80008a8:	221f      	movs	r2, #31
 80008aa:	446a      	add	r2, sp
 80008ac:	7813      	ldrb	r3, [r2, #0]
 80008ae:	3301      	adds	r3, #1
 80008b0:	7013      	strb	r3, [r2, #0]
 80008b2:	231f      	movs	r3, #31
 80008b4:	446b      	add	r3, sp
 80008b6:	7819      	ldrb	r1, [r3, #0]
 80008b8:	781b      	ldrb	r3, [r3, #0]
 80008ba:	b25b      	sxtb	r3, r3
 80008bc:	2b00      	cmp	r3, #0
 80008be:	db0d      	blt.n	80008dc <main+0x7c>
 80008c0:	0049      	lsls	r1, r1, #1
 80008c2:	4847      	ldr	r0, [pc, #284]	@ (80009e0 <main+0x180>)
 80008c4:	2302      	movs	r3, #2
 80008c6:	2202      	movs	r2, #2
 80008c8:	f001 fd72 	bl	80023b0 <HAL_I2C_IsDeviceReady>
 80008cc:	2800      	cmp	r0, #0
 80008ce:	d1eb      	bne.n	80008a8 <main+0x48>
 80008d0:	2101      	movs	r1, #1
 80008d2:	301f      	adds	r0, #31
 80008d4:	4468      	add	r0, sp
 80008d6:	f000 fdcb 	bl	8001470 <usart1_transmit_dma>
 80008da:	e7e5      	b.n	80008a8 <main+0x48>
 80008dc:	231e      	movs	r3, #30
 80008de:	446b      	add	r3, sp
 80008e0:	2202      	movs	r2, #2
 80008e2:	701a      	strb	r2, [r3, #0]
 80008e4:	483e      	ldr	r0, [pc, #248]	@ (80009e0 <main+0x180>)
 80008e6:	22fa      	movs	r2, #250	@ 0xfa
 80008e8:	0092      	lsls	r2, r2, #2
 80008ea:	9202      	str	r2, [sp, #8]
 80008ec:	2201      	movs	r2, #1
 80008ee:	9201      	str	r2, [sp, #4]
 80008f0:	9300      	str	r3, [sp, #0]
 80008f2:	2301      	movs	r3, #1
 80008f4:	2200      	movs	r2, #0
 80008f6:	2152      	movs	r1, #82	@ 0x52
 80008f8:	f001 fbb6 	bl	8002068 <HAL_I2C_Mem_Write>
 80008fc:	2800      	cmp	r0, #0
 80008fe:	d117      	bne.n	8000930 <main+0xd0>
 8000900:	4c38      	ldr	r4, [pc, #224]	@ (80009e4 <main+0x184>)
 8000902:	4b39      	ldr	r3, [pc, #228]	@ (80009e8 <main+0x188>)
 8000904:	0022      	movs	r2, r4
 8000906:	cb23      	ldmia	r3!, {r0, r1, r5}
 8000908:	c223      	stmia	r2!, {r0, r1, r5}
 800090a:	6819      	ldr	r1, [r3, #0]
 800090c:	6011      	str	r1, [r2, #0]
 800090e:	889b      	ldrh	r3, [r3, #4]
 8000910:	8093      	strh	r3, [r2, #4]
 8000912:	0020      	movs	r0, r4
 8000914:	f7ff fbf8 	bl	8000108 <strlen>
 8000918:	b281      	uxth	r1, r0
 800091a:	0020      	movs	r0, r4
 800091c:	f000 fda8 	bl	8001470 <usart1_transmit_dma>
 8000920:	2300      	movs	r3, #0
 8000922:	9304      	str	r3, [sp, #16]
 8000924:	2208      	movs	r2, #8
 8000926:	2100      	movs	r1, #0
 8000928:	a805      	add	r0, sp, #20
 800092a:	f002 fdcb 	bl	80034c4 <memset>
 800092e:	e035      	b.n	800099c <main+0x13c>
 8000930:	4c2c      	ldr	r4, [pc, #176]	@ (80009e4 <main+0x184>)
 8000932:	4b2e      	ldr	r3, [pc, #184]	@ (80009ec <main+0x18c>)
 8000934:	0022      	movs	r2, r4
 8000936:	cb23      	ldmia	r3!, {r0, r1, r5}
 8000938:	c223      	stmia	r2!, {r0, r1, r5}
 800093a:	0020      	movs	r0, r4
 800093c:	f7ff fbe4 	bl	8000108 <strlen>
 8000940:	b281      	uxth	r1, r0
 8000942:	0020      	movs	r0, r4
 8000944:	f000 fd94 	bl	8001470 <usart1_transmit_dma>
 8000948:	e7ea      	b.n	8000920 <main+0xc0>
 800094a:	4c26      	ldr	r4, [pc, #152]	@ (80009e4 <main+0x184>)
 800094c:	4b28      	ldr	r3, [pc, #160]	@ (80009f0 <main+0x190>)
 800094e:	0022      	movs	r2, r4
 8000950:	cb23      	ldmia	r3!, {r0, r1, r5}
 8000952:	c223      	stmia	r2!, {r0, r1, r5}
 8000954:	6819      	ldr	r1, [r3, #0]
 8000956:	6011      	str	r1, [r2, #0]
 8000958:	791b      	ldrb	r3, [r3, #4]
 800095a:	7113      	strb	r3, [r2, #4]
 800095c:	0020      	movs	r0, r4
 800095e:	f7ff fbd3 	bl	8000108 <strlen>
 8000962:	b281      	uxth	r1, r0
 8000964:	0020      	movs	r0, r4
 8000966:	f000 fd83 	bl	8001470 <usart1_transmit_dma>
 800096a:	2028      	movs	r0, #40	@ 0x28
 800096c:	f000 feb4 	bl	80016d8 <HAL_Delay>
 8000970:	ab04      	add	r3, sp, #16
 8000972:	7ad8      	ldrb	r0, [r3, #11]
 8000974:	7a99      	ldrb	r1, [r3, #10]
 8000976:	f7ff ff29 	bl	80007cc <makeuint16>
 800097a:	0002      	movs	r2, r0
 800097c:	491d      	ldr	r1, [pc, #116]	@ (80009f4 <main+0x194>)
 800097e:	4c19      	ldr	r4, [pc, #100]	@ (80009e4 <main+0x184>)
 8000980:	0020      	movs	r0, r4
 8000982:	f002 fd7f 	bl	8003484 <siprintf>
 8000986:	0020      	movs	r0, r4
 8000988:	f7ff fbbe 	bl	8000108 <strlen>
 800098c:	b281      	uxth	r1, r0
 800098e:	0020      	movs	r0, r4
 8000990:	f000 fd6e 	bl	8001470 <usart1_transmit_dma>
 8000994:	20fa      	movs	r0, #250	@ 0xfa
 8000996:	0080      	lsls	r0, r0, #2
 8000998:	f000 fe9e 	bl	80016d8 <HAL_Delay>
 800099c:	4810      	ldr	r0, [pc, #64]	@ (80009e0 <main+0x180>)
 800099e:	23fa      	movs	r3, #250	@ 0xfa
 80009a0:	009b      	lsls	r3, r3, #2
 80009a2:	9302      	str	r3, [sp, #8]
 80009a4:	230c      	movs	r3, #12
 80009a6:	9301      	str	r3, [sp, #4]
 80009a8:	ab04      	add	r3, sp, #16
 80009aa:	9300      	str	r3, [sp, #0]
 80009ac:	2301      	movs	r3, #1
 80009ae:	2214      	movs	r2, #20
 80009b0:	2152      	movs	r1, #82	@ 0x52
 80009b2:	f001 fc29 	bl	8002208 <HAL_I2C_Mem_Read>
 80009b6:	2800      	cmp	r0, #0
 80009b8:	d0c7      	beq.n	800094a <main+0xea>
 80009ba:	4c0a      	ldr	r4, [pc, #40]	@ (80009e4 <main+0x184>)
 80009bc:	4b0e      	ldr	r3, [pc, #56]	@ (80009f8 <main+0x198>)
 80009be:	0022      	movs	r2, r4
 80009c0:	cb03      	ldmia	r3!, {r0, r1}
 80009c2:	c203      	stmia	r2!, {r0, r1}
 80009c4:	8819      	ldrh	r1, [r3, #0]
 80009c6:	8011      	strh	r1, [r2, #0]
 80009c8:	789b      	ldrb	r3, [r3, #2]
 80009ca:	7093      	strb	r3, [r2, #2]
 80009cc:	0020      	movs	r0, r4
 80009ce:	f7ff fb9b 	bl	8000108 <strlen>
 80009d2:	b281      	uxth	r1, r0
 80009d4:	0020      	movs	r0, r4
 80009d6:	f000 fd4b 	bl	8001470 <usart1_transmit_dma>
 80009da:	e7c6      	b.n	800096a <main+0x10a>
 80009dc:	40002000 	.word	0x40002000
 80009e0:	200000d4 	.word	0x200000d4
 80009e4:	20000128 	.word	0x20000128
 80009e8:	08003c80 	.word	0x08003c80
 80009ec:	08003c94 	.word	0x08003c94
 80009f0:	08003ca0 	.word	0x08003ca0
 80009f4:	08003cc0 	.word	0x08003cc0
 80009f8:	08003cb4 	.word	0x08003cb4

080009fc <HAL_MspInit>:
 80009fc:	b500      	push	{lr}
 80009fe:	b083      	sub	sp, #12
 8000a00:	4b0d      	ldr	r3, [pc, #52]	@ (8000a38 <HAL_MspInit+0x3c>)
 8000a02:	6c19      	ldr	r1, [r3, #64]	@ 0x40
 8000a04:	2201      	movs	r2, #1
 8000a06:	4311      	orrs	r1, r2
 8000a08:	6419      	str	r1, [r3, #64]	@ 0x40
 8000a0a:	6c19      	ldr	r1, [r3, #64]	@ 0x40
 8000a0c:	400a      	ands	r2, r1
 8000a0e:	9200      	str	r2, [sp, #0]
 8000a10:	9a00      	ldr	r2, [sp, #0]
 8000a12:	6bda      	ldr	r2, [r3, #60]	@ 0x3c
 8000a14:	2180      	movs	r1, #128	@ 0x80
 8000a16:	0549      	lsls	r1, r1, #21
 8000a18:	430a      	orrs	r2, r1
 8000a1a:	63da      	str	r2, [r3, #60]	@ 0x3c
 8000a1c:	6bdb      	ldr	r3, [r3, #60]	@ 0x3c
 8000a1e:	400b      	ands	r3, r1
 8000a20:	9301      	str	r3, [sp, #4]
 8000a22:	9b01      	ldr	r3, [sp, #4]
 8000a24:	2200      	movs	r2, #0
 8000a26:	2101      	movs	r1, #1
 8000a28:	2003      	movs	r0, #3
 8000a2a:	f000 feb3 	bl	8001794 <HAL_NVIC_SetPriority>
 8000a2e:	2003      	movs	r0, #3
 8000a30:	f000 feb4 	bl	800179c <HAL_NVIC_EnableIRQ>
 8000a34:	b003      	add	sp, #12
 8000a36:	bd00      	pop	{pc}
 8000a38:	40021000 	.word	0x40021000

08000a3c <uart_in_data_pack_type>:
 8000a3c:	b510      	push	{r4, lr}
 8000a3e:	0004      	movs	r4, r0
 8000a40:	f7ff fd1d 	bl	800047e <pack_check>
 8000a44:	2801      	cmp	r0, #1
 8000a46:	d001      	beq.n	8000a4c <uart_in_data_pack_type+0x10>
 8000a48:	2000      	movs	r0, #0
 8000a4a:	bd10      	pop	{r4, pc}
 8000a4c:	7963      	ldrb	r3, [r4, #5]
 8000a4e:	2bfe      	cmp	r3, #254	@ 0xfe
 8000a50:	d006      	beq.n	8000a60 <uart_in_data_pack_type+0x24>
 8000a52:	2bfd      	cmp	r3, #253	@ 0xfd
 8000a54:	d0f9      	beq.n	8000a4a <uart_in_data_pack_type+0xe>
 8000a56:	7923      	ldrb	r3, [r4, #4]
 8000a58:	2b01      	cmp	r3, #1
 8000a5a:	d003      	beq.n	8000a64 <uart_in_data_pack_type+0x28>
 8000a5c:	3003      	adds	r0, #3
 8000a5e:	e7f4      	b.n	8000a4a <uart_in_data_pack_type+0xe>
 8000a60:	2002      	movs	r0, #2
 8000a62:	e7f2      	b.n	8000a4a <uart_in_data_pack_type+0xe>
 8000a64:	2005      	movs	r0, #5
 8000a66:	e7f0      	b.n	8000a4a <uart_in_data_pack_type+0xe>

08000a68 <uart_out_data_pack_type>:
 8000a68:	b510      	push	{r4, lr}
 8000a6a:	0004      	movs	r4, r0
 8000a6c:	f7ff fd07 	bl	800047e <pack_check>
 8000a70:	2801      	cmp	r0, #1
 8000a72:	d001      	beq.n	8000a78 <uart_out_data_pack_type+0x10>
 8000a74:	2000      	movs	r0, #0
 8000a76:	bd10      	pop	{r4, pc}
 8000a78:	7963      	ldrb	r3, [r4, #5]
 8000a7a:	2bfd      	cmp	r3, #253	@ 0xfd
 8000a7c:	d0fb      	beq.n	8000a76 <uart_out_data_pack_type+0xe>
 8000a7e:	2bfe      	cmp	r3, #254	@ 0xfe
 8000a80:	d005      	beq.n	8000a8e <uart_out_data_pack_type+0x26>
 8000a82:	2bfc      	cmp	r3, #252	@ 0xfc
 8000a84:	d001      	beq.n	8000a8a <uart_out_data_pack_type+0x22>
 8000a86:	2004      	movs	r0, #4
 8000a88:	e7f5      	b.n	8000a76 <uart_out_data_pack_type+0xe>
 8000a8a:	3005      	adds	r0, #5
 8000a8c:	e7f3      	b.n	8000a76 <uart_out_data_pack_type+0xe>
 8000a8e:	2003      	movs	r0, #3
 8000a90:	e7f1      	b.n	8000a76 <uart_out_data_pack_type+0xe>

08000a92 <NMI_Handler>:
 8000a92:	e7fe      	b.n	8000a92 <NMI_Handler>

08000a94 <HardFault_Handler>:
 8000a94:	e7fe      	b.n	8000a94 <HardFault_Handler>

08000a96 <SVC_Handler>:
 8000a96:	4770      	bx	lr

08000a98 <PendSV_Handler>:
 8000a98:	4770      	bx	lr

08000a9a <SysTick_Handler>:
 8000a9a:	b510      	push	{r4, lr}
 8000a9c:	f000 fe0a 	bl	80016b4 <HAL_IncTick>
 8000aa0:	bd10      	pop	{r4, pc}

08000aa2 <FLASH_IRQHandler>:
 8000aa2:	b510      	push	{r4, lr}
 8000aa4:	f000 fe9a 	bl	80017dc <HAL_FLASH_IRQHandler>
 8000aa8:	bd10      	pop	{r4, pc}

08000aaa <DMA1_Channel1_IRQHandler>:
 8000aaa:	4770      	bx	lr

08000aac <DMA1_Channel2_3_IRQHandler>:
 8000aac:	4b07      	ldr	r3, [pc, #28]	@ (8000acc <DMA1_Channel2_3_IRQHandler+0x20>)
 8000aae:	681b      	ldr	r3, [r3, #0]
 8000ab0:	069b      	lsls	r3, r3, #26
 8000ab2:	d509      	bpl.n	8000ac8 <DMA1_Channel2_3_IRQHandler+0x1c>
 8000ab4:	4b05      	ldr	r3, [pc, #20]	@ (8000acc <DMA1_Channel2_3_IRQHandler+0x20>)
 8000ab6:	2220      	movs	r2, #32
 8000ab8:	605a      	str	r2, [r3, #4]
 8000aba:	4905      	ldr	r1, [pc, #20]	@ (8000ad0 <DMA1_Channel2_3_IRQHandler+0x24>)
 8000abc:	680b      	ldr	r3, [r1, #0]
 8000abe:	3a1f      	subs	r2, #31
 8000ac0:	4393      	bics	r3, r2
 8000ac2:	600b      	str	r3, [r1, #0]
 8000ac4:	4b03      	ldr	r3, [pc, #12]	@ (8000ad4 <DMA1_Channel2_3_IRQHandler+0x28>)
 8000ac6:	701a      	strb	r2, [r3, #0]
 8000ac8:	4770      	bx	lr
 8000aca:	46c0      	nop			@ (mov r8, r8)
 8000acc:	40020000 	.word	0x40020000
 8000ad0:	4002001c 	.word	0x4002001c
 8000ad4:	20000002 	.word	0x20000002

08000ad8 <DMA1_Ch4_5_DMAMUX1_OVR_IRQHandler>:
 8000ad8:	4b07      	ldr	r3, [pc, #28]	@ (8000af8 <DMA1_Ch4_5_DMAMUX1_OVR_IRQHandler+0x20>)
 8000ada:	681b      	ldr	r3, [r3, #0]
 8000adc:	049b      	lsls	r3, r3, #18
 8000ade:	d50a      	bpl.n	8000af6 <DMA1_Ch4_5_DMAMUX1_OVR_IRQHandler+0x1e>
 8000ae0:	4b05      	ldr	r3, [pc, #20]	@ (8000af8 <DMA1_Ch4_5_DMAMUX1_OVR_IRQHandler+0x20>)
 8000ae2:	2280      	movs	r2, #128	@ 0x80
 8000ae4:	0192      	lsls	r2, r2, #6
 8000ae6:	605a      	str	r2, [r3, #4]
 8000ae8:	4904      	ldr	r1, [pc, #16]	@ (8000afc <DMA1_Ch4_5_DMAMUX1_OVR_IRQHandler+0x24>)
 8000aea:	680b      	ldr	r3, [r1, #0]
 8000aec:	2201      	movs	r2, #1
 8000aee:	4393      	bics	r3, r2
 8000af0:	600b      	str	r3, [r1, #0]
 8000af2:	4b03      	ldr	r3, [pc, #12]	@ (8000b00 <DMA1_Ch4_5_DMAMUX1_OVR_IRQHandler+0x28>)
 8000af4:	701a      	strb	r2, [r3, #0]
 8000af6:	4770      	bx	lr
 8000af8:	40020000 	.word	0x40020000
 8000afc:	40020044 	.word	0x40020044
 8000b00:	20000001 	.word	0x20000001

08000b04 <TIM14_IRQHandler>:
 8000b04:	b510      	push	{r4, lr}
 8000b06:	4b13      	ldr	r3, [pc, #76]	@ (8000b54 <TIM14_IRQHandler+0x50>)
 8000b08:	691b      	ldr	r3, [r3, #16]
 8000b0a:	07db      	lsls	r3, r3, #31
 8000b0c:	d520      	bpl.n	8000b50 <TIM14_IRQHandler+0x4c>
 8000b0e:	4c12      	ldr	r4, [pc, #72]	@ (8000b58 <TIM14_IRQHandler+0x54>)
 8000b10:	7823      	ldrb	r3, [r4, #0]
 8000b12:	3b01      	subs	r3, #1
 8000b14:	7023      	strb	r3, [r4, #0]
 8000b16:	4b0f      	ldr	r3, [pc, #60]	@ (8000b54 <TIM14_IRQHandler+0x50>)
 8000b18:	2202      	movs	r2, #2
 8000b1a:	4252      	negs	r2, r2
 8000b1c:	611a      	str	r2, [r3, #16]
 8000b1e:	480f      	ldr	r0, [pc, #60]	@ (8000b5c <TIM14_IRQHandler+0x58>)
 8000b20:	2109      	movs	r1, #9
 8000b22:	f000 fca5 	bl	8001470 <usart1_transmit_dma>
 8000b26:	7823      	ldrb	r3, [r4, #0]
 8000b28:	2b00      	cmp	r3, #0
 8000b2a:	d111      	bne.n	8000b50 <TIM14_IRQHandler+0x4c>
 8000b2c:	4b09      	ldr	r3, [pc, #36]	@ (8000b54 <TIM14_IRQHandler+0x50>)
 8000b2e:	68d9      	ldr	r1, [r3, #12]
 8000b30:	2201      	movs	r2, #1
 8000b32:	4391      	bics	r1, r2
 8000b34:	60d9      	str	r1, [r3, #12]
 8000b36:	6819      	ldr	r1, [r3, #0]
 8000b38:	4391      	bics	r1, r2
 8000b3a:	6019      	str	r1, [r3, #0]
 8000b3c:	4b08      	ldr	r3, [pc, #32]	@ (8000b60 <TIM14_IRQHandler+0x5c>)
 8000b3e:	2102      	movs	r1, #2
 8000b40:	4249      	negs	r1, r1
 8000b42:	6119      	str	r1, [r3, #16]
 8000b44:	68d9      	ldr	r1, [r3, #12]
 8000b46:	4311      	orrs	r1, r2
 8000b48:	60d9      	str	r1, [r3, #12]
 8000b4a:	6819      	ldr	r1, [r3, #0]
 8000b4c:	430a      	orrs	r2, r1
 8000b4e:	601a      	str	r2, [r3, #0]
 8000b50:	bd10      	pop	{r4, pc}
 8000b52:	46c0      	nop			@ (mov r8, r8)
 8000b54:	40002000 	.word	0x40002000
 8000b58:	20000019 	.word	0x20000019
 8000b5c:	20000010 	.word	0x20000010
 8000b60:	40014400 	.word	0x40014400

08000b64 <TIM16_IRQHandler>:
 8000b64:	b570      	push	{r4, r5, r6, lr}
 8000b66:	4b1c      	ldr	r3, [pc, #112]	@ (8000bd8 <TIM16_IRQHandler+0x74>)
 8000b68:	691b      	ldr	r3, [r3, #16]
 8000b6a:	07db      	lsls	r3, r3, #31
 8000b6c:	d532      	bpl.n	8000bd4 <TIM16_IRQHandler+0x70>
 8000b6e:	4b1a      	ldr	r3, [pc, #104]	@ (8000bd8 <TIM16_IRQHandler+0x74>)
 8000b70:	2202      	movs	r2, #2
 8000b72:	4252      	negs	r2, r2
 8000b74:	611a      	str	r2, [r3, #16]
 8000b76:	4819      	ldr	r0, [pc, #100]	@ (8000bdc <TIM16_IRQHandler+0x78>)
 8000b78:	2109      	movs	r1, #9
 8000b7a:	f000 fc91 	bl	80014a0 <usart2_transmit_dma>
 8000b7e:	4d18      	ldr	r5, [pc, #96]	@ (8000be0 <TIM16_IRQHandler+0x7c>)
 8000b80:	7828      	ldrb	r0, [r5, #0]
 8000b82:	4c18      	ldr	r4, [pc, #96]	@ (8000be4 <TIM16_IRQHandler+0x80>)
 8000b84:	2300      	movs	r3, #0
 8000b86:	5423      	strb	r3, [r4, r0]
 8000b88:	3001      	adds	r0, #1
 8000b8a:	b2c0      	uxtb	r0, r0
 8000b8c:	7028      	strb	r0, [r5, #0]
 8000b8e:	2103      	movs	r1, #3
 8000b90:	f7ff fb52 	bl	8000238 <__aeabi_uidivmod>
 8000b94:	7029      	strb	r1, [r5, #0]
 8000b96:	7823      	ldrb	r3, [r4, #0]
 8000b98:	2b00      	cmp	r3, #0
 8000b9a:	d118      	bne.n	8000bce <TIM16_IRQHandler+0x6a>
 8000b9c:	7863      	ldrb	r3, [r4, #1]
 8000b9e:	2b00      	cmp	r3, #0
 8000ba0:	d115      	bne.n	8000bce <TIM16_IRQHandler+0x6a>
 8000ba2:	78a3      	ldrb	r3, [r4, #2]
 8000ba4:	2b00      	cmp	r3, #0
 8000ba6:	d112      	bne.n	8000bce <TIM16_IRQHandler+0x6a>
 8000ba8:	4b0f      	ldr	r3, [pc, #60]	@ (8000be8 <TIM16_IRQHandler+0x84>)
 8000baa:	781b      	ldrb	r3, [r3, #0]
 8000bac:	2b00      	cmp	r3, #0
 8000bae:	d10a      	bne.n	8000bc6 <TIM16_IRQHandler+0x62>
 8000bb0:	4b0e      	ldr	r3, [pc, #56]	@ (8000bec <TIM16_IRQHandler+0x88>)
 8000bb2:	68da      	ldr	r2, [r3, #12]
 8000bb4:	2101      	movs	r1, #1
 8000bb6:	430a      	orrs	r2, r1
 8000bb8:	60da      	str	r2, [r3, #12]
 8000bba:	681a      	ldr	r2, [r3, #0]
 8000bbc:	430a      	orrs	r2, r1
 8000bbe:	601a      	str	r2, [r3, #0]
 8000bc0:	4b0b      	ldr	r3, [pc, #44]	@ (8000bf0 <TIM16_IRQHandler+0x8c>)
 8000bc2:	2203      	movs	r2, #3
 8000bc4:	701a      	strb	r2, [r3, #0]
 8000bc6:	4b08      	ldr	r3, [pc, #32]	@ (8000be8 <TIM16_IRQHandler+0x84>)
 8000bc8:	2201      	movs	r2, #1
 8000bca:	701a      	strb	r2, [r3, #0]
 8000bcc:	e002      	b.n	8000bd4 <TIM16_IRQHandler+0x70>
 8000bce:	4b06      	ldr	r3, [pc, #24]	@ (8000be8 <TIM16_IRQHandler+0x84>)
 8000bd0:	2200      	movs	r2, #0
 8000bd2:	701a      	strb	r2, [r3, #0]
 8000bd4:	bd70      	pop	{r4, r5, r6, pc}
 8000bd6:	46c0      	nop			@ (mov r8, r8)
 8000bd8:	40014400 	.word	0x40014400
 8000bdc:	20000004 	.word	0x20000004
 8000be0:	20000b68 	.word	0x20000b68
 8000be4:	20000b6c 	.word	0x20000b6c
 8000be8:	20000000 	.word	0x20000000
 8000bec:	40002000 	.word	0x40002000
 8000bf0:	20000019 	.word	0x20000019

08000bf4 <USART1_IRQHandler>:
 8000bf4:	b570      	push	{r4, r5, r6, lr}
 8000bf6:	4b3a      	ldr	r3, [pc, #232]	@ (8000ce0 <USART1_IRQHandler+0xec>)
 8000bf8:	69db      	ldr	r3, [r3, #28]
 8000bfa:	06db      	lsls	r3, r3, #27
 8000bfc:	d533      	bpl.n	8000c66 <USART1_IRQHandler+0x72>
 8000bfe:	4b38      	ldr	r3, [pc, #224]	@ (8000ce0 <USART1_IRQHandler+0xec>)
 8000c00:	681b      	ldr	r3, [r3, #0]
 8000c02:	06db      	lsls	r3, r3, #27
 8000c04:	d52f      	bpl.n	8000c66 <USART1_IRQHandler+0x72>
 8000c06:	4936      	ldr	r1, [pc, #216]	@ (8000ce0 <USART1_IRQHandler+0xec>)
 8000c08:	2310      	movs	r3, #16
 8000c0a:	620b      	str	r3, [r1, #32]
 8000c0c:	4b35      	ldr	r3, [pc, #212]	@ (8000ce4 <USART1_IRQHandler+0xf0>)
 8000c0e:	681a      	ldr	r2, [r3, #0]
 8000c10:	2001      	movs	r0, #1
 8000c12:	4382      	bics	r2, r0
 8000c14:	601a      	str	r2, [r3, #0]
 8000c16:	685a      	ldr	r2, [r3, #4]
 8000c18:	0412      	lsls	r2, r2, #16
 8000c1a:	0c12      	lsrs	r2, r2, #16
 8000c1c:	4252      	negs	r2, r2
 8000c1e:	4c32      	ldr	r4, [pc, #200]	@ (8000ce8 <USART1_IRQHandler+0xf4>)
 8000c20:	7022      	strb	r2, [r4, #0]
 8000c22:	4d32      	ldr	r5, [pc, #200]	@ (8000cec <USART1_IRQHandler+0xf8>)
 8000c24:	782e      	ldrb	r6, [r5, #0]
 8000c26:	2201      	movs	r2, #1
 8000c28:	1b92      	subs	r2, r2, r6
 8000c2a:	b2d2      	uxtb	r2, r2
 8000c2c:	702a      	strb	r2, [r5, #0]
 8000c2e:	782a      	ldrb	r2, [r5, #0]
 8000c30:	0252      	lsls	r2, r2, #9
 8000c32:	4d2f      	ldr	r5, [pc, #188]	@ (8000cf0 <USART1_IRQHandler+0xfc>)
 8000c34:	1952      	adds	r2, r2, r5
 8000c36:	60da      	str	r2, [r3, #12]
 8000c38:	685a      	ldr	r2, [r3, #4]
 8000c3a:	0c12      	lsrs	r2, r2, #16
 8000c3c:	0412      	lsls	r2, r2, #16
 8000c3e:	2580      	movs	r5, #128	@ 0x80
 8000c40:	00ad      	lsls	r5, r5, #2
 8000c42:	432a      	orrs	r2, r5
 8000c44:	605a      	str	r2, [r3, #4]
 8000c46:	681a      	ldr	r2, [r3, #0]
 8000c48:	4302      	orrs	r2, r0
 8000c4a:	601a      	str	r2, [r3, #0]
 8000c4c:	f3ef 8210 	mrs	r2, PRIMASK
 8000c50:	f380 8810 	msr	PRIMASK, r0
 8000c54:	688b      	ldr	r3, [r1, #8]
 8000c56:	303f      	adds	r0, #63	@ 0x3f
 8000c58:	4303      	orrs	r3, r0
 8000c5a:	608b      	str	r3, [r1, #8]
 8000c5c:	f382 8810 	msr	PRIMASK, r2
 8000c60:	7821      	ldrb	r1, [r4, #0]
 8000c62:	2900      	cmp	r1, #0
 8000c64:	d100      	bne.n	8000c68 <USART1_IRQHandler+0x74>
 8000c66:	bd70      	pop	{r4, r5, r6, pc}
 8000c68:	4b20      	ldr	r3, [pc, #128]	@ (8000cec <USART1_IRQHandler+0xf8>)
 8000c6a:	781b      	ldrb	r3, [r3, #0]
 8000c6c:	383f      	subs	r0, #63	@ 0x3f
 8000c6e:	1ac0      	subs	r0, r0, r3
 8000c70:	0240      	lsls	r0, r0, #9
 8000c72:	4b1f      	ldr	r3, [pc, #124]	@ (8000cf0 <USART1_IRQHandler+0xfc>)
 8000c74:	18c0      	adds	r0, r0, r3
 8000c76:	f7ff fee1 	bl	8000a3c <uart_in_data_pack_type>
 8000c7a:	4a1e      	ldr	r2, [pc, #120]	@ (8000cf4 <USART1_IRQHandler+0x100>)
 8000c7c:	7010      	strb	r0, [r2, #0]
 8000c7e:	2804      	cmp	r0, #4
 8000c80:	d021      	beq.n	8000cc6 <USART1_IRQHandler+0xd2>
 8000c82:	d80f      	bhi.n	8000ca4 <USART1_IRQHandler+0xb0>
 8000c84:	2801      	cmp	r0, #1
 8000c86:	d01b      	beq.n	8000cc0 <USART1_IRQHandler+0xcc>
 8000c88:	2802      	cmp	r0, #2
 8000c8a:	d1ec      	bne.n	8000c66 <USART1_IRQHandler+0x72>
 8000c8c:	4b17      	ldr	r3, [pc, #92]	@ (8000cec <USART1_IRQHandler+0xf8>)
 8000c8e:	781b      	ldrb	r3, [r3, #0]
 8000c90:	2001      	movs	r0, #1
 8000c92:	1ac0      	subs	r0, r0, r3
 8000c94:	0240      	lsls	r0, r0, #9
 8000c96:	4b16      	ldr	r3, [pc, #88]	@ (8000cf0 <USART1_IRQHandler+0xfc>)
 8000c98:	18c0      	adds	r0, r0, r3
 8000c9a:	4b13      	ldr	r3, [pc, #76]	@ (8000ce8 <USART1_IRQHandler+0xf4>)
 8000c9c:	7819      	ldrb	r1, [r3, #0]
 8000c9e:	f7ff fc0b 	bl	80004b8 <chain_enum_handle>
 8000ca2:	e7e0      	b.n	8000c66 <USART1_IRQHandler+0x72>
 8000ca4:	2805      	cmp	r0, #5
 8000ca6:	d1de      	bne.n	8000c66 <USART1_IRQHandler+0x72>
 8000ca8:	4b10      	ldr	r3, [pc, #64]	@ (8000cec <USART1_IRQHandler+0xf8>)
 8000caa:	781b      	ldrb	r3, [r3, #0]
 8000cac:	2001      	movs	r0, #1
 8000cae:	1ac0      	subs	r0, r0, r3
 8000cb0:	0240      	lsls	r0, r0, #9
 8000cb2:	4b0f      	ldr	r3, [pc, #60]	@ (8000cf0 <USART1_IRQHandler+0xfc>)
 8000cb4:	18c0      	adds	r0, r0, r3
 8000cb6:	4b0c      	ldr	r3, [pc, #48]	@ (8000ce8 <USART1_IRQHandler+0xf4>)
 8000cb8:	7819      	ldrb	r1, [r3, #0]
 8000cba:	f7ff fc31 	bl	8000520 <chain_deal_data_packet_handle>
 8000cbe:	e7d2      	b.n	8000c66 <USART1_IRQHandler+0x72>
 8000cc0:	f7ff fc16 	bl	80004f0 <chain_heartbeat_in_receive_handle>
 8000cc4:	e7cf      	b.n	8000c66 <USART1_IRQHandler+0x72>
 8000cc6:	4b09      	ldr	r3, [pc, #36]	@ (8000cec <USART1_IRQHandler+0xf8>)
 8000cc8:	781b      	ldrb	r3, [r3, #0]
 8000cca:	2001      	movs	r0, #1
 8000ccc:	1ac0      	subs	r0, r0, r3
 8000cce:	0240      	lsls	r0, r0, #9
 8000cd0:	4b07      	ldr	r3, [pc, #28]	@ (8000cf0 <USART1_IRQHandler+0xfc>)
 8000cd2:	18c0      	adds	r0, r0, r3
 8000cd4:	4b04      	ldr	r3, [pc, #16]	@ (8000ce8 <USART1_IRQHandler+0xf4>)
 8000cd6:	7819      	ldrb	r1, [r3, #0]
 8000cd8:	f7ff fc4a 	bl	8000570 <chain_out_relay_handle>
 8000cdc:	e7c3      	b.n	8000c66 <USART1_IRQHandler+0x72>
 8000cde:	46c0      	nop			@ (mov r8, r8)
 8000ce0:	40013800 	.word	0x40013800
 8000ce4:	40020008 	.word	0x40020008
 8000ce8:	20000b70 	.word	0x20000b70
 8000cec:	20000365 	.word	0x20000365
 8000cf0:	20000768 	.word	0x20000768
 8000cf4:	20000b6f 	.word	0x20000b6f

08000cf8 <USART2_IRQHandler>:
 8000cf8:	b570      	push	{r4, r5, r6, lr}
 8000cfa:	4b3a      	ldr	r3, [pc, #232]	@ (8000de4 <USART2_IRQHandler+0xec>)
 8000cfc:	69db      	ldr	r3, [r3, #28]
 8000cfe:	06db      	lsls	r3, r3, #27
 8000d00:	d533      	bpl.n	8000d6a <USART2_IRQHandler+0x72>
 8000d02:	4b38      	ldr	r3, [pc, #224]	@ (8000de4 <USART2_IRQHandler+0xec>)
 8000d04:	681b      	ldr	r3, [r3, #0]
 8000d06:	06db      	lsls	r3, r3, #27
 8000d08:	d52f      	bpl.n	8000d6a <USART2_IRQHandler+0x72>
 8000d0a:	4936      	ldr	r1, [pc, #216]	@ (8000de4 <USART2_IRQHandler+0xec>)
 8000d0c:	2310      	movs	r3, #16
 8000d0e:	620b      	str	r3, [r1, #32]
 8000d10:	4b35      	ldr	r3, [pc, #212]	@ (8000de8 <USART2_IRQHandler+0xf0>)
 8000d12:	681a      	ldr	r2, [r3, #0]
 8000d14:	2001      	movs	r0, #1
 8000d16:	4382      	bics	r2, r0
 8000d18:	601a      	str	r2, [r3, #0]
 8000d1a:	685a      	ldr	r2, [r3, #4]
 8000d1c:	0412      	lsls	r2, r2, #16
 8000d1e:	0c12      	lsrs	r2, r2, #16
 8000d20:	4252      	negs	r2, r2
 8000d22:	4c32      	ldr	r4, [pc, #200]	@ (8000dec <USART2_IRQHandler+0xf4>)
 8000d24:	7022      	strb	r2, [r4, #0]
 8000d26:	4d32      	ldr	r5, [pc, #200]	@ (8000df0 <USART2_IRQHandler+0xf8>)
 8000d28:	782e      	ldrb	r6, [r5, #0]
 8000d2a:	2201      	movs	r2, #1
 8000d2c:	1b92      	subs	r2, r2, r6
 8000d2e:	b2d2      	uxtb	r2, r2
 8000d30:	702a      	strb	r2, [r5, #0]
 8000d32:	782a      	ldrb	r2, [r5, #0]
 8000d34:	0252      	lsls	r2, r2, #9
 8000d36:	4d2f      	ldr	r5, [pc, #188]	@ (8000df4 <USART2_IRQHandler+0xfc>)
 8000d38:	1952      	adds	r2, r2, r5
 8000d3a:	60da      	str	r2, [r3, #12]
 8000d3c:	685a      	ldr	r2, [r3, #4]
 8000d3e:	0c12      	lsrs	r2, r2, #16
 8000d40:	0412      	lsls	r2, r2, #16
 8000d42:	2580      	movs	r5, #128	@ 0x80
 8000d44:	00ad      	lsls	r5, r5, #2
 8000d46:	432a      	orrs	r2, r5
 8000d48:	605a      	str	r2, [r3, #4]
 8000d4a:	681a      	ldr	r2, [r3, #0]
 8000d4c:	4302      	orrs	r2, r0
 8000d4e:	601a      	str	r2, [r3, #0]
 8000d50:	f3ef 8210 	mrs	r2, PRIMASK
 8000d54:	f380 8810 	msr	PRIMASK, r0
 8000d58:	688b      	ldr	r3, [r1, #8]
 8000d5a:	303f      	adds	r0, #63	@ 0x3f
 8000d5c:	4303      	orrs	r3, r0
 8000d5e:	608b      	str	r3, [r1, #8]
 8000d60:	f382 8810 	msr	PRIMASK, r2
 8000d64:	7821      	ldrb	r1, [r4, #0]
 8000d66:	2900      	cmp	r1, #0
 8000d68:	d100      	bne.n	8000d6c <USART2_IRQHandler+0x74>
 8000d6a:	bd70      	pop	{r4, r5, r6, pc}
 8000d6c:	4b20      	ldr	r3, [pc, #128]	@ (8000df0 <USART2_IRQHandler+0xf8>)
 8000d6e:	781b      	ldrb	r3, [r3, #0]
 8000d70:	383f      	subs	r0, #63	@ 0x3f
 8000d72:	1ac0      	subs	r0, r0, r3
 8000d74:	0240      	lsls	r0, r0, #9
 8000d76:	4b1f      	ldr	r3, [pc, #124]	@ (8000df4 <USART2_IRQHandler+0xfc>)
 8000d78:	18c0      	adds	r0, r0, r3
 8000d7a:	f7ff fe75 	bl	8000a68 <uart_out_data_pack_type>
 8000d7e:	4a1e      	ldr	r2, [pc, #120]	@ (8000df8 <USART2_IRQHandler+0x100>)
 8000d80:	7010      	strb	r0, [r2, #0]
 8000d82:	2804      	cmp	r0, #4
 8000d84:	d021      	beq.n	8000dca <USART2_IRQHandler+0xd2>
 8000d86:	d80f      	bhi.n	8000da8 <USART2_IRQHandler+0xb0>
 8000d88:	2801      	cmp	r0, #1
 8000d8a:	d01b      	beq.n	8000dc4 <USART2_IRQHandler+0xcc>
 8000d8c:	2803      	cmp	r0, #3
 8000d8e:	d1ec      	bne.n	8000d6a <USART2_IRQHandler+0x72>
 8000d90:	4b17      	ldr	r3, [pc, #92]	@ (8000df0 <USART2_IRQHandler+0xf8>)
 8000d92:	781b      	ldrb	r3, [r3, #0]
 8000d94:	2001      	movs	r0, #1
 8000d96:	1ac0      	subs	r0, r0, r3
 8000d98:	0240      	lsls	r0, r0, #9
 8000d9a:	4b16      	ldr	r3, [pc, #88]	@ (8000df4 <USART2_IRQHandler+0xfc>)
 8000d9c:	18c0      	adds	r0, r0, r3
 8000d9e:	4b13      	ldr	r3, [pc, #76]	@ (8000dec <USART2_IRQHandler+0xf4>)
 8000da0:	7819      	ldrb	r1, [r3, #0]
 8000da2:	f7ff fb9d 	bl	80004e0 <chain_enum_return_handle>
 8000da6:	e7e0      	b.n	8000d6a <USART2_IRQHandler+0x72>
 8000da8:	2806      	cmp	r0, #6
 8000daa:	d1de      	bne.n	8000d6a <USART2_IRQHandler+0x72>
 8000dac:	4b10      	ldr	r3, [pc, #64]	@ (8000df0 <USART2_IRQHandler+0xf8>)
 8000dae:	781b      	ldrb	r3, [r3, #0]
 8000db0:	2001      	movs	r0, #1
 8000db2:	1ac0      	subs	r0, r0, r3
 8000db4:	0240      	lsls	r0, r0, #9
 8000db6:	4b0f      	ldr	r3, [pc, #60]	@ (8000df4 <USART2_IRQHandler+0xfc>)
 8000db8:	18c0      	adds	r0, r0, r3
 8000dba:	4b0c      	ldr	r3, [pc, #48]	@ (8000dec <USART2_IRQHandler+0xf4>)
 8000dbc:	7819      	ldrb	r1, [r3, #0]
 8000dbe:	f7ff fb93 	bl	80004e8 <chain_enum_please_handle>
 8000dc2:	e7d2      	b.n	8000d6a <USART2_IRQHandler+0x72>
 8000dc4:	f7ff fb9c 	bl	8000500 <chain_heartbeat_out_receive_handle>
 8000dc8:	e7cf      	b.n	8000d6a <USART2_IRQHandler+0x72>
 8000dca:	4b09      	ldr	r3, [pc, #36]	@ (8000df0 <USART2_IRQHandler+0xf8>)
 8000dcc:	781b      	ldrb	r3, [r3, #0]
 8000dce:	2001      	movs	r0, #1
 8000dd0:	1ac0      	subs	r0, r0, r3
 8000dd2:	0240      	lsls	r0, r0, #9
 8000dd4:	4b07      	ldr	r3, [pc, #28]	@ (8000df4 <USART2_IRQHandler+0xfc>)
 8000dd6:	18c0      	adds	r0, r0, r3
 8000dd8:	4b04      	ldr	r3, [pc, #16]	@ (8000dec <USART2_IRQHandler+0xf4>)
 8000dda:	7819      	ldrb	r1, [r3, #0]
 8000ddc:	f7ff fbd3 	bl	8000586 <chain_in_relay_handle>
 8000de0:	e7c3      	b.n	8000d6a <USART2_IRQHandler+0x72>
 8000de2:	46c0      	nop			@ (mov r8, r8)
 8000de4:	40004400 	.word	0x40004400
 8000de8:	40020030 	.word	0x40020030
 8000dec:	20000b70 	.word	0x20000b70
 8000df0:	20000364 	.word	0x20000364
 8000df4:	20000368 	.word	0x20000368
 8000df8:	20000b6f 	.word	0x20000b6f

08000dfc <_sbrk>:
 8000dfc:	b510      	push	{r4, lr}
 8000dfe:	0003      	movs	r3, r0
 8000e00:	4a0c      	ldr	r2, [pc, #48]	@ (8000e34 <_sbrk+0x38>)
 8000e02:	490d      	ldr	r1, [pc, #52]	@ (8000e38 <_sbrk+0x3c>)
 8000e04:	1a52      	subs	r2, r2, r1
 8000e06:	490d      	ldr	r1, [pc, #52]	@ (8000e3c <_sbrk+0x40>)
 8000e08:	6809      	ldr	r1, [r1, #0]
 8000e0a:	2900      	cmp	r1, #0
 8000e0c:	d007      	beq.n	8000e1e <_sbrk+0x22>
 8000e0e:	490b      	ldr	r1, [pc, #44]	@ (8000e3c <_sbrk+0x40>)
 8000e10:	6808      	ldr	r0, [r1, #0]
 8000e12:	18c3      	adds	r3, r0, r3
 8000e14:	4293      	cmp	r3, r2
 8000e16:	d806      	bhi.n	8000e26 <_sbrk+0x2a>
 8000e18:	4a08      	ldr	r2, [pc, #32]	@ (8000e3c <_sbrk+0x40>)
 8000e1a:	6013      	str	r3, [r2, #0]
 8000e1c:	bd10      	pop	{r4, pc}
 8000e1e:	4907      	ldr	r1, [pc, #28]	@ (8000e3c <_sbrk+0x40>)
 8000e20:	4807      	ldr	r0, [pc, #28]	@ (8000e40 <_sbrk+0x44>)
 8000e22:	6008      	str	r0, [r1, #0]
 8000e24:	e7f3      	b.n	8000e0e <_sbrk+0x12>
 8000e26:	f002 fb67 	bl	80034f8 <__errno>
 8000e2a:	230c      	movs	r3, #12
 8000e2c:	6003      	str	r3, [r0, #0]
 8000e2e:	2001      	movs	r0, #1
 8000e30:	4240      	negs	r0, r0
 8000e32:	e7f3      	b.n	8000e1c <_sbrk+0x20>
 8000e34:	20002000 	.word	0x20002000
 8000e38:	00000400 	.word	0x00000400
 8000e3c:	20000b74 	.word	0x20000b74
 8000e40:	20000ce0 	.word	0x20000ce0

08000e44 <SystemInit>:
 8000e44:	4770      	bx	lr
	...

08000e48 <MX_TIM14_Init>:
 8000e48:	b530      	push	{r4, r5, lr}
 8000e4a:	b087      	sub	sp, #28
 8000e4c:	ac01      	add	r4, sp, #4
 8000e4e:	2214      	movs	r2, #20
 8000e50:	2100      	movs	r1, #0
 8000e52:	0020      	movs	r0, r4
 8000e54:	f002 fb36 	bl	80034c4 <memset>
 8000e58:	4b14      	ldr	r3, [pc, #80]	@ (8000eac <MX_TIM14_Init+0x64>)
 8000e5a:	6c1a      	ldr	r2, [r3, #64]	@ 0x40
 8000e5c:	2180      	movs	r1, #128	@ 0x80
 8000e5e:	0209      	lsls	r1, r1, #8
 8000e60:	430a      	orrs	r2, r1
 8000e62:	641a      	str	r2, [r3, #64]	@ 0x40
 8000e64:	6c1b      	ldr	r3, [r3, #64]	@ 0x40
 8000e66:	400b      	ands	r3, r1
 8000e68:	9300      	str	r3, [sp, #0]
 8000e6a:	9b00      	ldr	r3, [sp, #0]
 8000e6c:	4a10      	ldr	r2, [pc, #64]	@ (8000eb0 <MX_TIM14_Init+0x68>)
 8000e6e:	20c4      	movs	r0, #196	@ 0xc4
 8000e70:	0080      	lsls	r0, r0, #2
 8000e72:	5813      	ldr	r3, [r2, r0]
 8000e74:	021b      	lsls	r3, r3, #8
 8000e76:	0a1b      	lsrs	r3, r3, #8
 8000e78:	2180      	movs	r1, #128	@ 0x80
 8000e7a:	05c9      	lsls	r1, r1, #23
 8000e7c:	430b      	orrs	r3, r1
 8000e7e:	5013      	str	r3, [r2, r0]
 8000e80:	2380      	movs	r3, #128	@ 0x80
 8000e82:	031b      	lsls	r3, r3, #12
 8000e84:	6013      	str	r3, [r2, #0]
 8000e86:	4b0b      	ldr	r3, [pc, #44]	@ (8000eb4 <MX_TIM14_Init+0x6c>)
 8000e88:	8023      	strh	r3, [r4, #0]
 8000e8a:	2300      	movs	r3, #0
 8000e8c:	6063      	str	r3, [r4, #4]
 8000e8e:	4a0a      	ldr	r2, [pc, #40]	@ (8000eb8 <MX_TIM14_Init+0x70>)
 8000e90:	60a2      	str	r2, [r4, #8]
 8000e92:	60e3      	str	r3, [r4, #12]
 8000e94:	4d09      	ldr	r5, [pc, #36]	@ (8000ebc <MX_TIM14_Init+0x74>)
 8000e96:	0021      	movs	r1, r4
 8000e98:	0028      	movs	r0, r5
 8000e9a:	f002 f933 	bl	8003104 <LL_TIM_Init>
 8000e9e:	682b      	ldr	r3, [r5, #0]
 8000ea0:	2280      	movs	r2, #128	@ 0x80
 8000ea2:	4313      	orrs	r3, r2
 8000ea4:	602b      	str	r3, [r5, #0]
 8000ea6:	b007      	add	sp, #28
 8000ea8:	bd30      	pop	{r4, r5, pc}
 8000eaa:	46c0      	nop			@ (mov r8, r8)
 8000eac:	40021000 	.word	0x40021000
 8000eb0:	e000e100 	.word	0xe000e100
 8000eb4:	000018ff 	.word	0x000018ff
 8000eb8:	000006a3 	.word	0x000006a3
 8000ebc:	40002000 	.word	0x40002000

08000ec0 <MX_TIM16_Init>:
 8000ec0:	b530      	push	{r4, r5, lr}
 8000ec2:	b087      	sub	sp, #28
 8000ec4:	ac01      	add	r4, sp, #4
 8000ec6:	2214      	movs	r2, #20
 8000ec8:	2100      	movs	r1, #0
 8000eca:	0020      	movs	r0, r4
 8000ecc:	f002 fafa 	bl	80034c4 <memset>
 8000ed0:	4b14      	ldr	r3, [pc, #80]	@ (8000f24 <MX_TIM16_Init+0x64>)
 8000ed2:	6c1a      	ldr	r2, [r3, #64]	@ 0x40
 8000ed4:	2180      	movs	r1, #128	@ 0x80
 8000ed6:	0289      	lsls	r1, r1, #10
 8000ed8:	430a      	orrs	r2, r1
 8000eda:	641a      	str	r2, [r3, #64]	@ 0x40
 8000edc:	6c1b      	ldr	r3, [r3, #64]	@ 0x40
 8000ede:	400b      	ands	r3, r1
 8000ee0:	9300      	str	r3, [sp, #0]
 8000ee2:	9b00      	ldr	r3, [sp, #0]
 8000ee4:	4b10      	ldr	r3, [pc, #64]	@ (8000f28 <MX_TIM16_Init+0x68>)
 8000ee6:	20c5      	movs	r0, #197	@ 0xc5
 8000ee8:	0080      	lsls	r0, r0, #2
 8000eea:	5819      	ldr	r1, [r3, r0]
 8000eec:	4a0f      	ldr	r2, [pc, #60]	@ (8000f2c <MX_TIM16_Init+0x6c>)
 8000eee:	4011      	ands	r1, r2
 8000ef0:	2280      	movs	r2, #128	@ 0x80
 8000ef2:	01d2      	lsls	r2, r2, #7
 8000ef4:	430a      	orrs	r2, r1
 8000ef6:	501a      	str	r2, [r3, r0]
 8000ef8:	2280      	movs	r2, #128	@ 0x80
 8000efa:	0392      	lsls	r2, r2, #14
 8000efc:	601a      	str	r2, [r3, #0]
 8000efe:	4b0c      	ldr	r3, [pc, #48]	@ (8000f30 <MX_TIM16_Init+0x70>)
 8000f00:	8023      	strh	r3, [r4, #0]
 8000f02:	2300      	movs	r3, #0
 8000f04:	6063      	str	r3, [r4, #4]
 8000f06:	4a0b      	ldr	r2, [pc, #44]	@ (8000f34 <MX_TIM16_Init+0x74>)
 8000f08:	60a2      	str	r2, [r4, #8]
 8000f0a:	60e3      	str	r3, [r4, #12]
 8000f0c:	6123      	str	r3, [r4, #16]
 8000f0e:	4d0a      	ldr	r5, [pc, #40]	@ (8000f38 <MX_TIM16_Init+0x78>)
 8000f10:	0021      	movs	r1, r4
 8000f12:	0028      	movs	r0, r5
 8000f14:	f002 f8f6 	bl	8003104 <LL_TIM_Init>
 8000f18:	682b      	ldr	r3, [r5, #0]
 8000f1a:	2280      	movs	r2, #128	@ 0x80
 8000f1c:	4393      	bics	r3, r2
 8000f1e:	602b      	str	r3, [r5, #0]
 8000f20:	b007      	add	sp, #28
 8000f22:	bd30      	pop	{r4, r5, pc}
 8000f24:	40021000 	.word	0x40021000
 8000f28:	e000e100 	.word	0xe000e100
 8000f2c:	ffff00ff 	.word	0xffff00ff
 8000f30:	000018ff 	.word	0x000018ff
 8000f34:	0000270f 	.word	0x0000270f
 8000f38:	40014400 	.word	0x40014400

08000f3c <usart1_hart_init>:
 8000f3c:	b570      	push	{r4, r5, r6, lr}
 8000f3e:	f3ef 8410 	mrs	r4, PRIMASK
 8000f42:	2101      	movs	r1, #1
 8000f44:	f381 8810 	msr	PRIMASK, r1
 8000f48:	4a24      	ldr	r2, [pc, #144]	@ (8000fdc <usart1_hart_init+0xa0>)
 8000f4a:	6813      	ldr	r3, [r2, #0]
 8000f4c:	200c      	movs	r0, #12
 8000f4e:	4383      	bics	r3, r0
 8000f50:	4303      	orrs	r3, r0
 8000f52:	6013      	str	r3, [r2, #0]
 8000f54:	f384 8810 	msr	PRIMASK, r4
 8000f58:	f3ef 8010 	mrs	r0, PRIMASK
 8000f5c:	f381 8810 	msr	PRIMASK, r1
 8000f60:	6813      	ldr	r3, [r2, #0]
 8000f62:	2410      	movs	r4, #16
 8000f64:	4323      	orrs	r3, r4
 8000f66:	6013      	str	r3, [r2, #0]
 8000f68:	f380 8810 	msr	PRIMASK, r0
 8000f6c:	4b1c      	ldr	r3, [pc, #112]	@ (8000fe0 <usart1_hart_init+0xa4>)
 8000f6e:	481d      	ldr	r0, [pc, #116]	@ (8000fe4 <usart1_hart_init+0xa8>)
 8000f70:	6098      	str	r0, [r3, #8]
 8000f72:	481d      	ldr	r0, [pc, #116]	@ (8000fe8 <usart1_hart_init+0xac>)
 8000f74:	7800      	ldrb	r0, [r0, #0]
 8000f76:	0240      	lsls	r0, r0, #9
 8000f78:	4d1c      	ldr	r5, [pc, #112]	@ (8000fec <usart1_hart_init+0xb0>)
 8000f7a:	1940      	adds	r0, r0, r5
 8000f7c:	60d8      	str	r0, [r3, #12]
 8000f7e:	6858      	ldr	r0, [r3, #4]
 8000f80:	0c00      	lsrs	r0, r0, #16
 8000f82:	0400      	lsls	r0, r0, #16
 8000f84:	2580      	movs	r5, #128	@ 0x80
 8000f86:	00ad      	lsls	r5, r5, #2
 8000f88:	4328      	orrs	r0, r5
 8000f8a:	6058      	str	r0, [r3, #4]
 8000f8c:	6818      	ldr	r0, [r3, #0]
 8000f8e:	3dff      	subs	r5, #255	@ 0xff
 8000f90:	3dff      	subs	r5, #255	@ 0xff
 8000f92:	4328      	orrs	r0, r5
 8000f94:	6018      	str	r0, [r3, #0]
 8000f96:	6818      	ldr	r0, [r3, #0]
 8000f98:	2608      	movs	r6, #8
 8000f9a:	4330      	orrs	r0, r6
 8000f9c:	6018      	str	r0, [r3, #0]
 8000f9e:	6818      	ldr	r0, [r3, #0]
 8000fa0:	4308      	orrs	r0, r1
 8000fa2:	6018      	str	r0, [r3, #0]
 8000fa4:	f3ef 8010 	mrs	r0, PRIMASK
 8000fa8:	f381 8810 	msr	PRIMASK, r1
 8000fac:	6893      	ldr	r3, [r2, #8]
 8000fae:	3638      	adds	r6, #56	@ 0x38
 8000fb0:	4333      	orrs	r3, r6
 8000fb2:	6093      	str	r3, [r2, #8]
 8000fb4:	f380 8810 	msr	PRIMASK, r0
 8000fb8:	6214      	str	r4, [r2, #32]
 8000fba:	4b0d      	ldr	r3, [pc, #52]	@ (8000ff0 <usart1_hart_init+0xb4>)
 8000fbc:	480d      	ldr	r0, [pc, #52]	@ (8000ff4 <usart1_hart_init+0xb8>)
 8000fbe:	6098      	str	r0, [r3, #8]
 8000fc0:	f3ef 8010 	mrs	r0, PRIMASK
 8000fc4:	f381 8810 	msr	PRIMASK, r1
 8000fc8:	6891      	ldr	r1, [r2, #8]
 8000fca:	3470      	adds	r4, #112	@ 0x70
 8000fcc:	4321      	orrs	r1, r4
 8000fce:	6091      	str	r1, [r2, #8]
 8000fd0:	f380 8810 	msr	PRIMASK, r0
 8000fd4:	681a      	ldr	r2, [r3, #0]
 8000fd6:	432a      	orrs	r2, r5
 8000fd8:	601a      	str	r2, [r3, #0]
 8000fda:	bd70      	pop	{r4, r5, r6, pc}
 8000fdc:	40013800 	.word	0x40013800
 8000fe0:	40020008 	.word	0x40020008
 8000fe4:	40013824 	.word	0x40013824
 8000fe8:	20000365 	.word	0x20000365
 8000fec:	20000768 	.word	0x20000768
 8000ff0:	4002001c 	.word	0x4002001c
 8000ff4:	40013828 	.word	0x40013828

08000ff8 <MX_USART1_UART_Init>:
 8000ff8:	b5f0      	push	{r4, r5, r6, r7, lr}
 8000ffa:	46de      	mov	lr, fp
 8000ffc:	4657      	mov	r7, sl
 8000ffe:	464e      	mov	r6, r9
 8001000:	4645      	mov	r5, r8
 8001002:	b5e0      	push	{r5, r6, r7, lr}
 8001004:	b09b      	sub	sp, #108	@ 0x6c
 8001006:	2220      	movs	r2, #32
 8001008:	2100      	movs	r1, #0
 800100a:	a812      	add	r0, sp, #72	@ 0x48
 800100c:	f002 fa5a 	bl	80034c4 <memset>
 8001010:	2218      	movs	r2, #24
 8001012:	2100      	movs	r1, #0
 8001014:	a80c      	add	r0, sp, #48	@ 0x30
 8001016:	f002 fa55 	bl	80034c4 <memset>
 800101a:	2228      	movs	r2, #40	@ 0x28
 800101c:	2100      	movs	r1, #0
 800101e:	a802      	add	r0, sp, #8
 8001020:	f002 fa50 	bl	80034c4 <memset>
 8001024:	2301      	movs	r3, #1
 8001026:	9302      	str	r3, [sp, #8]
 8001028:	a802      	add	r0, sp, #8
 800102a:	f001 fe6d 	bl	8002d08 <HAL_RCCEx_PeriphCLKConfig>
 800102e:	2800      	cmp	r0, #0
 8001030:	d000      	beq.n	8001034 <MX_USART1_UART_Init+0x3c>
 8001032:	e0c6      	b.n	80011c2 <MX_USART1_UART_Init+0x1ca>
 8001034:	4b64      	ldr	r3, [pc, #400]	@ (80011c8 <MX_USART1_UART_Init+0x1d0>)
 8001036:	6c1a      	ldr	r2, [r3, #64]	@ 0x40
 8001038:	2180      	movs	r1, #128	@ 0x80
 800103a:	01c9      	lsls	r1, r1, #7
 800103c:	430a      	orrs	r2, r1
 800103e:	641a      	str	r2, [r3, #64]	@ 0x40
 8001040:	6c1a      	ldr	r2, [r3, #64]	@ 0x40
 8001042:	400a      	ands	r2, r1
 8001044:	9201      	str	r2, [sp, #4]
 8001046:	9a01      	ldr	r2, [sp, #4]
 8001048:	6b5a      	ldr	r2, [r3, #52]	@ 0x34
 800104a:	2502      	movs	r5, #2
 800104c:	432a      	orrs	r2, r5
 800104e:	635a      	str	r2, [r3, #52]	@ 0x34
 8001050:	6b5b      	ldr	r3, [r3, #52]	@ 0x34
 8001052:	402b      	ands	r3, r5
 8001054:	9300      	str	r3, [sp, #0]
 8001056:	9b00      	ldr	r3, [sp, #0]
 8001058:	2340      	movs	r3, #64	@ 0x40
 800105a:	4698      	mov	r8, r3
 800105c:	930c      	str	r3, [sp, #48]	@ 0x30
 800105e:	950d      	str	r5, [sp, #52]	@ 0x34
 8001060:	950e      	str	r5, [sp, #56]	@ 0x38
 8001062:	2400      	movs	r4, #0
 8001064:	940f      	str	r4, [sp, #60]	@ 0x3c
 8001066:	2601      	movs	r6, #1
 8001068:	9610      	str	r6, [sp, #64]	@ 0x40
 800106a:	9411      	str	r4, [sp, #68]	@ 0x44
 800106c:	4b57      	ldr	r3, [pc, #348]	@ (80011cc <MX_USART1_UART_Init+0x1d4>)
 800106e:	4699      	mov	r9, r3
 8001070:	a90c      	add	r1, sp, #48	@ 0x30
 8001072:	0018      	movs	r0, r3
 8001074:	f001 ff42 	bl	8002efc <LL_GPIO_Init>
 8001078:	2780      	movs	r7, #128	@ 0x80
 800107a:	970c      	str	r7, [sp, #48]	@ 0x30
 800107c:	950d      	str	r5, [sp, #52]	@ 0x34
 800107e:	950e      	str	r5, [sp, #56]	@ 0x38
 8001080:	940f      	str	r4, [sp, #60]	@ 0x3c
 8001082:	9610      	str	r6, [sp, #64]	@ 0x40
 8001084:	9411      	str	r4, [sp, #68]	@ 0x44
 8001086:	a90c      	add	r1, sp, #48	@ 0x30
 8001088:	4648      	mov	r0, r9
 800108a:	f001 ff37 	bl	8002efc <LL_GPIO_Init>
 800108e:	4a50      	ldr	r2, [pc, #320]	@ (80011d0 <MX_USART1_UART_Init+0x1d8>)
 8001090:	6813      	ldr	r3, [r2, #0]
 8001092:	213f      	movs	r1, #63	@ 0x3f
 8001094:	468a      	mov	sl, r1
 8001096:	438b      	bics	r3, r1
 8001098:	390d      	subs	r1, #13
 800109a:	430b      	orrs	r3, r1
 800109c:	6013      	str	r3, [r2, #0]
 800109e:	4b4d      	ldr	r3, [pc, #308]	@ (80011d4 <MX_USART1_UART_Init+0x1dc>)
 80010a0:	681a      	ldr	r2, [r3, #0]
 80010a2:	494d      	ldr	r1, [pc, #308]	@ (80011d8 <MX_USART1_UART_Init+0x1e0>)
 80010a4:	4689      	mov	r9, r1
 80010a6:	400a      	ands	r2, r1
 80010a8:	601a      	str	r2, [r3, #0]
 80010aa:	681a      	ldr	r2, [r3, #0]
 80010ac:	494b      	ldr	r1, [pc, #300]	@ (80011dc <MX_USART1_UART_Init+0x1e4>)
 80010ae:	468c      	mov	ip, r1
 80010b0:	400a      	ands	r2, r1
 80010b2:	601a      	str	r2, [r3, #0]
 80010b4:	681a      	ldr	r2, [r3, #0]
 80010b6:	351e      	adds	r5, #30
 80010b8:	43aa      	bics	r2, r5
 80010ba:	601a      	str	r2, [r3, #0]
 80010bc:	681a      	ldr	r2, [r3, #0]
 80010be:	4641      	mov	r1, r8
 80010c0:	438a      	bics	r2, r1
 80010c2:	601a      	str	r2, [r3, #0]
 80010c4:	681a      	ldr	r2, [r3, #0]
 80010c6:	43ba      	bics	r2, r7
 80010c8:	433a      	orrs	r2, r7
 80010ca:	601a      	str	r2, [r3, #0]
 80010cc:	681a      	ldr	r2, [r3, #0]
 80010ce:	4844      	ldr	r0, [pc, #272]	@ (80011e0 <MX_USART1_UART_Init+0x1e8>)
 80010d0:	4002      	ands	r2, r0
 80010d2:	601a      	str	r2, [r3, #0]
 80010d4:	681a      	ldr	r2, [r3, #0]
 80010d6:	4943      	ldr	r1, [pc, #268]	@ (80011e4 <MX_USART1_UART_Init+0x1ec>)
 80010d8:	468b      	mov	fp, r1
 80010da:	400a      	ands	r2, r1
 80010dc:	601a      	str	r2, [r3, #0]
 80010de:	4a42      	ldr	r2, [pc, #264]	@ (80011e8 <MX_USART1_UART_Init+0x1f0>)
 80010e0:	6813      	ldr	r3, [r2, #0]
 80010e2:	4651      	mov	r1, sl
 80010e4:	438b      	bics	r3, r1
 80010e6:	390c      	subs	r1, #12
 80010e8:	430b      	orrs	r3, r1
 80010ea:	6013      	str	r3, [r2, #0]
 80010ec:	4b3f      	ldr	r3, [pc, #252]	@ (80011ec <MX_USART1_UART_Init+0x1f4>)
 80010ee:	681a      	ldr	r2, [r3, #0]
 80010f0:	4649      	mov	r1, r9
 80010f2:	400a      	ands	r2, r1
 80010f4:	2110      	movs	r1, #16
 80010f6:	430a      	orrs	r2, r1
 80010f8:	601a      	str	r2, [r3, #0]
 80010fa:	681a      	ldr	r2, [r3, #0]
 80010fc:	4661      	mov	r1, ip
 80010fe:	400a      	ands	r2, r1
 8001100:	601a      	str	r2, [r3, #0]
 8001102:	681a      	ldr	r2, [r3, #0]
 8001104:	43aa      	bics	r2, r5
 8001106:	601a      	str	r2, [r3, #0]
 8001108:	681a      	ldr	r2, [r3, #0]
 800110a:	4641      	mov	r1, r8
 800110c:	438a      	bics	r2, r1
 800110e:	601a      	str	r2, [r3, #0]
 8001110:	681a      	ldr	r2, [r3, #0]
 8001112:	43ba      	bics	r2, r7
 8001114:	433a      	orrs	r2, r7
 8001116:	601a      	str	r2, [r3, #0]
 8001118:	681a      	ldr	r2, [r3, #0]
 800111a:	4002      	ands	r2, r0
 800111c:	601a      	str	r2, [r3, #0]
 800111e:	681a      	ldr	r2, [r3, #0]
 8001120:	4659      	mov	r1, fp
 8001122:	400a      	ands	r2, r1
 8001124:	601a      	str	r2, [r3, #0]
 8001126:	4a32      	ldr	r2, [pc, #200]	@ (80011f0 <MX_USART1_UART_Init+0x1f8>)
 8001128:	21c6      	movs	r1, #198	@ 0xc6
 800112a:	0089      	lsls	r1, r1, #2
 800112c:	5853      	ldr	r3, [r2, r1]
 800112e:	021b      	lsls	r3, r3, #8
 8001130:	0a1b      	lsrs	r3, r3, #8
 8001132:	5053      	str	r3, [r2, r1]
 8001134:	2380      	movs	r3, #128	@ 0x80
 8001136:	051b      	lsls	r3, r3, #20
 8001138:	6013      	str	r3, [r2, #0]
 800113a:	9412      	str	r4, [sp, #72]	@ 0x48
 800113c:	23e1      	movs	r3, #225	@ 0xe1
 800113e:	025b      	lsls	r3, r3, #9
 8001140:	9313      	str	r3, [sp, #76]	@ 0x4c
 8001142:	9414      	str	r4, [sp, #80]	@ 0x50
 8001144:	9415      	str	r4, [sp, #84]	@ 0x54
 8001146:	9416      	str	r4, [sp, #88]	@ 0x58
 8001148:	230c      	movs	r3, #12
 800114a:	9317      	str	r3, [sp, #92]	@ 0x5c
 800114c:	9418      	str	r4, [sp, #96]	@ 0x60
 800114e:	9419      	str	r4, [sp, #100]	@ 0x64
 8001150:	4c28      	ldr	r4, [pc, #160]	@ (80011f4 <MX_USART1_UART_Init+0x1fc>)
 8001152:	a912      	add	r1, sp, #72	@ 0x48
 8001154:	0020      	movs	r0, r4
 8001156:	f002 f855 	bl	8003204 <LL_USART_Init>
 800115a:	f3ef 8210 	mrs	r2, PRIMASK
 800115e:	f386 8810 	msr	PRIMASK, r6
 8001162:	68a3      	ldr	r3, [r4, #8]
 8001164:	00db      	lsls	r3, r3, #3
 8001166:	08db      	lsrs	r3, r3, #3
 8001168:	60a3      	str	r3, [r4, #8]
 800116a:	f382 8810 	msr	PRIMASK, r2
 800116e:	f3ef 8210 	mrs	r2, PRIMASK
 8001172:	f386 8810 	msr	PRIMASK, r6
 8001176:	68a3      	ldr	r3, [r4, #8]
 8001178:	491f      	ldr	r1, [pc, #124]	@ (80011f8 <MX_USART1_UART_Init+0x200>)
 800117a:	400b      	ands	r3, r1
 800117c:	60a3      	str	r3, [r4, #8]
 800117e:	f382 8810 	msr	PRIMASK, r2
 8001182:	6823      	ldr	r3, [r4, #0]
 8001184:	4a1d      	ldr	r2, [pc, #116]	@ (80011fc <MX_USART1_UART_Init+0x204>)
 8001186:	4013      	ands	r3, r2
 8001188:	6023      	str	r3, [r4, #0]
 800118a:	6863      	ldr	r3, [r4, #4]
 800118c:	4a1c      	ldr	r2, [pc, #112]	@ (8001200 <MX_USART1_UART_Init+0x208>)
 800118e:	4013      	ands	r3, r2
 8001190:	6063      	str	r3, [r4, #4]
 8001192:	68a3      	ldr	r3, [r4, #8]
 8001194:	222a      	movs	r2, #42	@ 0x2a
 8001196:	4393      	bics	r3, r2
 8001198:	60a3      	str	r3, [r4, #8]
 800119a:	6823      	ldr	r3, [r4, #0]
 800119c:	4333      	orrs	r3, r6
 800119e:	6023      	str	r3, [r4, #0]
 80011a0:	4b14      	ldr	r3, [pc, #80]	@ (80011f4 <MX_USART1_UART_Init+0x1fc>)
 80011a2:	69db      	ldr	r3, [r3, #28]
 80011a4:	029b      	lsls	r3, r3, #10
 80011a6:	d5fb      	bpl.n	80011a0 <MX_USART1_UART_Init+0x1a8>
 80011a8:	4b12      	ldr	r3, [pc, #72]	@ (80011f4 <MX_USART1_UART_Init+0x1fc>)
 80011aa:	69db      	ldr	r3, [r3, #28]
 80011ac:	025b      	lsls	r3, r3, #9
 80011ae:	d5f7      	bpl.n	80011a0 <MX_USART1_UART_Init+0x1a8>
 80011b0:	f7ff fec4 	bl	8000f3c <usart1_hart_init>
 80011b4:	b01b      	add	sp, #108	@ 0x6c
 80011b6:	bcf0      	pop	{r4, r5, r6, r7}
 80011b8:	46bb      	mov	fp, r7
 80011ba:	46b2      	mov	sl, r6
 80011bc:	46a9      	mov	r9, r5
 80011be:	46a0      	mov	r8, r4
 80011c0:	bdf0      	pop	{r4, r5, r6, r7, pc}
 80011c2:	f7ff fb09 	bl	80007d8 <Error_Handler>
 80011c6:	e735      	b.n	8001034 <MX_USART1_UART_Init+0x3c>
 80011c8:	40021000 	.word	0x40021000
 80011cc:	50000400 	.word	0x50000400
 80011d0:	40020800 	.word	0x40020800
 80011d4:	40020008 	.word	0x40020008
 80011d8:	ffffbfef 	.word	0xffffbfef
 80011dc:	ffffcfff 	.word	0xffffcfff
 80011e0:	fffffcff 	.word	0xfffffcff
 80011e4:	fffff3ff 	.word	0xfffff3ff
 80011e8:	40020804 	.word	0x40020804
 80011ec:	4002001c 	.word	0x4002001c
 80011f0:	e000e100 	.word	0xe000e100
 80011f4:	40013800 	.word	0x40013800
 80011f8:	f1ffffff 	.word	0xf1ffffff
 80011fc:	dfffffff 	.word	0xdfffffff
 8001200:	ffffb7ff 	.word	0xffffb7ff

08001204 <usart2_hart_init>:
 8001204:	b570      	push	{r4, r5, r6, lr}
 8001206:	f3ef 8410 	mrs	r4, PRIMASK
 800120a:	2101      	movs	r1, #1
 800120c:	f381 8810 	msr	PRIMASK, r1
 8001210:	4a24      	ldr	r2, [pc, #144]	@ (80012a4 <usart2_hart_init+0xa0>)
 8001212:	6813      	ldr	r3, [r2, #0]
 8001214:	200c      	movs	r0, #12
 8001216:	4383      	bics	r3, r0
 8001218:	4303      	orrs	r3, r0
 800121a:	6013      	str	r3, [r2, #0]
 800121c:	f384 8810 	msr	PRIMASK, r4
 8001220:	f3ef 8010 	mrs	r0, PRIMASK
 8001224:	f381 8810 	msr	PRIMASK, r1
 8001228:	6813      	ldr	r3, [r2, #0]
 800122a:	2410      	movs	r4, #16
 800122c:	4323      	orrs	r3, r4
 800122e:	6013      	str	r3, [r2, #0]
 8001230:	f380 8810 	msr	PRIMASK, r0
 8001234:	4b1c      	ldr	r3, [pc, #112]	@ (80012a8 <usart2_hart_init+0xa4>)
 8001236:	481d      	ldr	r0, [pc, #116]	@ (80012ac <usart2_hart_init+0xa8>)
 8001238:	6098      	str	r0, [r3, #8]
 800123a:	481d      	ldr	r0, [pc, #116]	@ (80012b0 <usart2_hart_init+0xac>)
 800123c:	7800      	ldrb	r0, [r0, #0]
 800123e:	0240      	lsls	r0, r0, #9
 8001240:	4d1c      	ldr	r5, [pc, #112]	@ (80012b4 <usart2_hart_init+0xb0>)
 8001242:	1940      	adds	r0, r0, r5
 8001244:	60d8      	str	r0, [r3, #12]
 8001246:	6858      	ldr	r0, [r3, #4]
 8001248:	0c00      	lsrs	r0, r0, #16
 800124a:	0400      	lsls	r0, r0, #16
 800124c:	2580      	movs	r5, #128	@ 0x80
 800124e:	00ad      	lsls	r5, r5, #2
 8001250:	4328      	orrs	r0, r5
 8001252:	6058      	str	r0, [r3, #4]
 8001254:	6818      	ldr	r0, [r3, #0]
 8001256:	3dff      	subs	r5, #255	@ 0xff
 8001258:	3dff      	subs	r5, #255	@ 0xff
 800125a:	4328      	orrs	r0, r5
 800125c:	6018      	str	r0, [r3, #0]
 800125e:	6818      	ldr	r0, [r3, #0]
 8001260:	2608      	movs	r6, #8
 8001262:	4330      	orrs	r0, r6
 8001264:	6018      	str	r0, [r3, #0]
 8001266:	6818      	ldr	r0, [r3, #0]
 8001268:	4308      	orrs	r0, r1
 800126a:	6018      	str	r0, [r3, #0]
 800126c:	f3ef 8010 	mrs	r0, PRIMASK
 8001270:	f381 8810 	msr	PRIMASK, r1
 8001274:	6893      	ldr	r3, [r2, #8]
 8001276:	3638      	adds	r6, #56	@ 0x38
 8001278:	4333      	orrs	r3, r6
 800127a:	6093      	str	r3, [r2, #8]
 800127c:	f380 8810 	msr	PRIMASK, r0
 8001280:	6214      	str	r4, [r2, #32]
 8001282:	4b0d      	ldr	r3, [pc, #52]	@ (80012b8 <usart2_hart_init+0xb4>)
 8001284:	480d      	ldr	r0, [pc, #52]	@ (80012bc <usart2_hart_init+0xb8>)
 8001286:	6098      	str	r0, [r3, #8]
 8001288:	f3ef 8010 	mrs	r0, PRIMASK
 800128c:	f381 8810 	msr	PRIMASK, r1
 8001290:	6891      	ldr	r1, [r2, #8]
 8001292:	3470      	adds	r4, #112	@ 0x70
 8001294:	4321      	orrs	r1, r4
 8001296:	6091      	str	r1, [r2, #8]
 8001298:	f380 8810 	msr	PRIMASK, r0
 800129c:	681a      	ldr	r2, [r3, #0]
 800129e:	432a      	orrs	r2, r5
 80012a0:	601a      	str	r2, [r3, #0]
 80012a2:	bd70      	pop	{r4, r5, r6, pc}
 80012a4:	40004400 	.word	0x40004400
 80012a8:	40020030 	.word	0x40020030
 80012ac:	40004424 	.word	0x40004424
 80012b0:	20000364 	.word	0x20000364
 80012b4:	20000368 	.word	0x20000368
 80012b8:	40020044 	.word	0x40020044
 80012bc:	40004428 	.word	0x40004428

080012c0 <MX_USART2_UART_Init>:
 80012c0:	b5f0      	push	{r4, r5, r6, r7, lr}
 80012c2:	46de      	mov	lr, fp
 80012c4:	4657      	mov	r7, sl
 80012c6:	464e      	mov	r6, r9
 80012c8:	4645      	mov	r5, r8
 80012ca:	b5e0      	push	{r5, r6, r7, lr}
 80012cc:	b091      	sub	sp, #68	@ 0x44
 80012ce:	2620      	movs	r6, #32
 80012d0:	2220      	movs	r2, #32
 80012d2:	2100      	movs	r1, #0
 80012d4:	a808      	add	r0, sp, #32
 80012d6:	f002 f8f5 	bl	80034c4 <memset>
 80012da:	2218      	movs	r2, #24
 80012dc:	2100      	movs	r1, #0
 80012de:	a802      	add	r0, sp, #8
 80012e0:	f002 f8f0 	bl	80034c4 <memset>
 80012e4:	4b56      	ldr	r3, [pc, #344]	@ (8001440 <MX_USART2_UART_Init+0x180>)
 80012e6:	6bda      	ldr	r2, [r3, #60]	@ 0x3c
 80012e8:	2180      	movs	r1, #128	@ 0x80
 80012ea:	0289      	lsls	r1, r1, #10
 80012ec:	430a      	orrs	r2, r1
 80012ee:	63da      	str	r2, [r3, #60]	@ 0x3c
 80012f0:	6bda      	ldr	r2, [r3, #60]	@ 0x3c
 80012f2:	400a      	ands	r2, r1
 80012f4:	9201      	str	r2, [sp, #4]
 80012f6:	9a01      	ldr	r2, [sp, #4]
 80012f8:	6b5a      	ldr	r2, [r3, #52]	@ 0x34
 80012fa:	2501      	movs	r5, #1
 80012fc:	432a      	orrs	r2, r5
 80012fe:	635a      	str	r2, [r3, #52]	@ 0x34
 8001300:	6b5b      	ldr	r3, [r3, #52]	@ 0x34
 8001302:	402b      	ands	r3, r5
 8001304:	9300      	str	r3, [sp, #0]
 8001306:	9b00      	ldr	r3, [sp, #0]
 8001308:	2304      	movs	r3, #4
 800130a:	9302      	str	r3, [sp, #8]
 800130c:	2402      	movs	r4, #2
 800130e:	9403      	str	r4, [sp, #12]
 8001310:	9404      	str	r4, [sp, #16]
 8001312:	9506      	str	r5, [sp, #24]
 8001314:	9507      	str	r5, [sp, #28]
 8001316:	27a0      	movs	r7, #160	@ 0xa0
 8001318:	05ff      	lsls	r7, r7, #23
 800131a:	a902      	add	r1, sp, #8
 800131c:	0038      	movs	r0, r7
 800131e:	f001 fded 	bl	8002efc <LL_GPIO_Init>
 8001322:	2308      	movs	r3, #8
 8001324:	9302      	str	r3, [sp, #8]
 8001326:	9403      	str	r4, [sp, #12]
 8001328:	9404      	str	r4, [sp, #16]
 800132a:	2400      	movs	r4, #0
 800132c:	9405      	str	r4, [sp, #20]
 800132e:	9506      	str	r5, [sp, #24]
 8001330:	9507      	str	r5, [sp, #28]
 8001332:	a902      	add	r1, sp, #8
 8001334:	0038      	movs	r0, r7
 8001336:	f001 fde1 	bl	8002efc <LL_GPIO_Init>
 800133a:	4a42      	ldr	r2, [pc, #264]	@ (8001444 <MX_USART2_UART_Init+0x184>)
 800133c:	6813      	ldr	r3, [r2, #0]
 800133e:	213f      	movs	r1, #63	@ 0x3f
 8001340:	468a      	mov	sl, r1
 8001342:	438b      	bics	r3, r1
 8001344:	390b      	subs	r1, #11
 8001346:	430b      	orrs	r3, r1
 8001348:	6013      	str	r3, [r2, #0]
 800134a:	4b3f      	ldr	r3, [pc, #252]	@ (8001448 <MX_USART2_UART_Init+0x188>)
 800134c:	681a      	ldr	r2, [r3, #0]
 800134e:	493f      	ldr	r1, [pc, #252]	@ (800144c <MX_USART2_UART_Init+0x18c>)
 8001350:	4689      	mov	r9, r1
 8001352:	400a      	ands	r2, r1
 8001354:	601a      	str	r2, [r3, #0]
 8001356:	681a      	ldr	r2, [r3, #0]
 8001358:	493d      	ldr	r1, [pc, #244]	@ (8001450 <MX_USART2_UART_Init+0x190>)
 800135a:	4688      	mov	r8, r1
 800135c:	400a      	ands	r2, r1
 800135e:	601a      	str	r2, [r3, #0]
 8001360:	681a      	ldr	r2, [r3, #0]
 8001362:	43b2      	bics	r2, r6
 8001364:	601a      	str	r2, [r3, #0]
 8001366:	681a      	ldr	r2, [r3, #0]
 8001368:	2140      	movs	r1, #64	@ 0x40
 800136a:	468c      	mov	ip, r1
 800136c:	438a      	bics	r2, r1
 800136e:	601a      	str	r2, [r3, #0]
 8001370:	681a      	ldr	r2, [r3, #0]
 8001372:	2780      	movs	r7, #128	@ 0x80
 8001374:	43ba      	bics	r2, r7
 8001376:	433a      	orrs	r2, r7
 8001378:	601a      	str	r2, [r3, #0]
 800137a:	681a      	ldr	r2, [r3, #0]
 800137c:	4835      	ldr	r0, [pc, #212]	@ (8001454 <MX_USART2_UART_Init+0x194>)
 800137e:	4002      	ands	r2, r0
 8001380:	601a      	str	r2, [r3, #0]
 8001382:	681a      	ldr	r2, [r3, #0]
 8001384:	4934      	ldr	r1, [pc, #208]	@ (8001458 <MX_USART2_UART_Init+0x198>)
 8001386:	468b      	mov	fp, r1
 8001388:	400a      	ands	r2, r1
 800138a:	601a      	str	r2, [r3, #0]
 800138c:	4a33      	ldr	r2, [pc, #204]	@ (800145c <MX_USART2_UART_Init+0x19c>)
 800138e:	6813      	ldr	r3, [r2, #0]
 8001390:	4651      	mov	r1, sl
 8001392:	438b      	bics	r3, r1
 8001394:	390a      	subs	r1, #10
 8001396:	430b      	orrs	r3, r1
 8001398:	6013      	str	r3, [r2, #0]
 800139a:	4b31      	ldr	r3, [pc, #196]	@ (8001460 <MX_USART2_UART_Init+0x1a0>)
 800139c:	681a      	ldr	r2, [r3, #0]
 800139e:	4649      	mov	r1, r9
 80013a0:	400a      	ands	r2, r1
 80013a2:	2110      	movs	r1, #16
 80013a4:	430a      	orrs	r2, r1
 80013a6:	601a      	str	r2, [r3, #0]
 80013a8:	681a      	ldr	r2, [r3, #0]
 80013aa:	4641      	mov	r1, r8
 80013ac:	400a      	ands	r2, r1
 80013ae:	601a      	str	r2, [r3, #0]
 80013b0:	681a      	ldr	r2, [r3, #0]
 80013b2:	43b2      	bics	r2, r6
 80013b4:	601a      	str	r2, [r3, #0]
 80013b6:	681a      	ldr	r2, [r3, #0]
 80013b8:	4661      	mov	r1, ip
 80013ba:	438a      	bics	r2, r1
 80013bc:	601a      	str	r2, [r3, #0]
 80013be:	681a      	ldr	r2, [r3, #0]
 80013c0:	43ba      	bics	r2, r7
 80013c2:	433a      	orrs	r2, r7
 80013c4:	601a      	str	r2, [r3, #0]
 80013c6:	681a      	ldr	r2, [r3, #0]
 80013c8:	4002      	ands	r2, r0
 80013ca:	601a      	str	r2, [r3, #0]
 80013cc:	681a      	ldr	r2, [r3, #0]
 80013ce:	4659      	mov	r1, fp
 80013d0:	400a      	ands	r2, r1
 80013d2:	601a      	str	r2, [r3, #0]
 80013d4:	4b23      	ldr	r3, [pc, #140]	@ (8001464 <MX_USART2_UART_Init+0x1a4>)
 80013d6:	21c7      	movs	r1, #199	@ 0xc7
 80013d8:	0089      	lsls	r1, r1, #2
 80013da:	585a      	ldr	r2, [r3, r1]
 80013dc:	20ff      	movs	r0, #255	@ 0xff
 80013de:	4382      	bics	r2, r0
 80013e0:	505a      	str	r2, [r3, r1]
 80013e2:	2280      	movs	r2, #128	@ 0x80
 80013e4:	0552      	lsls	r2, r2, #21
 80013e6:	601a      	str	r2, [r3, #0]
 80013e8:	9408      	str	r4, [sp, #32]
 80013ea:	23e1      	movs	r3, #225	@ 0xe1
 80013ec:	025b      	lsls	r3, r3, #9
 80013ee:	9309      	str	r3, [sp, #36]	@ 0x24
 80013f0:	940a      	str	r4, [sp, #40]	@ 0x28
 80013f2:	940b      	str	r4, [sp, #44]	@ 0x2c
 80013f4:	940c      	str	r4, [sp, #48]	@ 0x30
 80013f6:	230c      	movs	r3, #12
 80013f8:	930d      	str	r3, [sp, #52]	@ 0x34
 80013fa:	940e      	str	r4, [sp, #56]	@ 0x38
 80013fc:	940f      	str	r4, [sp, #60]	@ 0x3c
 80013fe:	4c1a      	ldr	r4, [pc, #104]	@ (8001468 <MX_USART2_UART_Init+0x1a8>)
 8001400:	a908      	add	r1, sp, #32
 8001402:	0020      	movs	r0, r4
 8001404:	f001 fefe 	bl	8003204 <LL_USART_Init>
 8001408:	6863      	ldr	r3, [r4, #4]
 800140a:	4a18      	ldr	r2, [pc, #96]	@ (800146c <MX_USART2_UART_Init+0x1ac>)
 800140c:	4013      	ands	r3, r2
 800140e:	6063      	str	r3, [r4, #4]
 8001410:	68a3      	ldr	r3, [r4, #8]
 8001412:	222a      	movs	r2, #42	@ 0x2a
 8001414:	4393      	bics	r3, r2
 8001416:	60a3      	str	r3, [r4, #8]
 8001418:	6823      	ldr	r3, [r4, #0]
 800141a:	432b      	orrs	r3, r5
 800141c:	6023      	str	r3, [r4, #0]
 800141e:	4b12      	ldr	r3, [pc, #72]	@ (8001468 <MX_USART2_UART_Init+0x1a8>)
 8001420:	69db      	ldr	r3, [r3, #28]
 8001422:	029b      	lsls	r3, r3, #10
 8001424:	d5fb      	bpl.n	800141e <MX_USART2_UART_Init+0x15e>
 8001426:	4b10      	ldr	r3, [pc, #64]	@ (8001468 <MX_USART2_UART_Init+0x1a8>)
 8001428:	69db      	ldr	r3, [r3, #28]
 800142a:	025b      	lsls	r3, r3, #9
 800142c:	d5f7      	bpl.n	800141e <MX_USART2_UART_Init+0x15e>
 800142e:	f7ff fee9 	bl	8001204 <usart2_hart_init>
 8001432:	b011      	add	sp, #68	@ 0x44
 8001434:	bcf0      	pop	{r4, r5, r6, r7}
 8001436:	46bb      	mov	fp, r7
 8001438:	46b2      	mov	sl, r6
 800143a:	46a9      	mov	r9, r5
 800143c:	46a0      	mov	r8, r4
 800143e:	bdf0      	pop	{r4, r5, r6, r7, pc}
 8001440:	40021000 	.word	0x40021000
 8001444:	40020808 	.word	0x40020808
 8001448:	40020030 	.word	0x40020030
 800144c:	ffffbfef 	.word	0xffffbfef
 8001450:	ffffcfff 	.word	0xffffcfff
 8001454:	fffffcff 	.word	0xfffffcff
 8001458:	fffff3ff 	.word	0xfffff3ff
 800145c:	4002080c 	.word	0x4002080c
 8001460:	40020044 	.word	0x40020044
 8001464:	e000e100 	.word	0xe000e100
 8001468:	40004400 	.word	0x40004400
 800146c:	ffffb7ff 	.word	0xffffb7ff

08001470 <usart1_transmit_dma>:
 8001470:	4b09      	ldr	r3, [pc, #36]	@ (8001498 <usart1_transmit_dma+0x28>)
 8001472:	781b      	ldrb	r3, [r3, #0]
 8001474:	2b01      	cmp	r3, #1
 8001476:	d000      	beq.n	800147a <usart1_transmit_dma+0xa>
 8001478:	4770      	bx	lr
 800147a:	4b07      	ldr	r3, [pc, #28]	@ (8001498 <usart1_transmit_dma+0x28>)
 800147c:	2200      	movs	r2, #0
 800147e:	701a      	strb	r2, [r3, #0]
 8001480:	4b06      	ldr	r3, [pc, #24]	@ (800149c <usart1_transmit_dma+0x2c>)
 8001482:	60d8      	str	r0, [r3, #12]
 8001484:	685a      	ldr	r2, [r3, #4]
 8001486:	0c12      	lsrs	r2, r2, #16
 8001488:	0412      	lsls	r2, r2, #16
 800148a:	4311      	orrs	r1, r2
 800148c:	6059      	str	r1, [r3, #4]
 800148e:	681a      	ldr	r2, [r3, #0]
 8001490:	2101      	movs	r1, #1
 8001492:	430a      	orrs	r2, r1
 8001494:	601a      	str	r2, [r3, #0]
 8001496:	e7ef      	b.n	8001478 <usart1_transmit_dma+0x8>
 8001498:	20000002 	.word	0x20000002
 800149c:	4002001c 	.word	0x4002001c

080014a0 <usart2_transmit_dma>:
 80014a0:	4b09      	ldr	r3, [pc, #36]	@ (80014c8 <usart2_transmit_dma+0x28>)
 80014a2:	781b      	ldrb	r3, [r3, #0]
 80014a4:	2b01      	cmp	r3, #1
 80014a6:	d000      	beq.n	80014aa <usart2_transmit_dma+0xa>
 80014a8:	4770      	bx	lr
 80014aa:	4b07      	ldr	r3, [pc, #28]	@ (80014c8 <usart2_transmit_dma+0x28>)
 80014ac:	2200      	movs	r2, #0
 80014ae:	701a      	strb	r2, [r3, #0]
 80014b0:	4b06      	ldr	r3, [pc, #24]	@ (80014cc <usart2_transmit_dma+0x2c>)
 80014b2:	60d8      	str	r0, [r3, #12]
 80014b4:	685a      	ldr	r2, [r3, #4]
 80014b6:	0c12      	lsrs	r2, r2, #16
 80014b8:	0412      	lsls	r2, r2, #16
 80014ba:	4311      	orrs	r1, r2
 80014bc:	6059      	str	r1, [r3, #4]
 80014be:	681a      	ldr	r2, [r3, #0]
 80014c0:	2101      	movs	r1, #1
 80014c2:	430a      	orrs	r2, r1
 80014c4:	601a      	str	r2, [r3, #0]
 80014c6:	e7ef      	b.n	80014a8 <usart2_transmit_dma+0x8>
 80014c8:	20000001 	.word	0x20000001
 80014cc:	40020044 	.word	0x40020044

080014d0 <Reset_Handler>:
 80014d0:	480d      	ldr	r0, [pc, #52]	@ (8001508 <LoopForever+0x2>)
 80014d2:	4685      	mov	sp, r0
 80014d4:	f7ff fcb6 	bl	8000e44 <SystemInit>
 80014d8:	480c      	ldr	r0, [pc, #48]	@ (800150c <LoopForever+0x6>)
 80014da:	490d      	ldr	r1, [pc, #52]	@ (8001510 <LoopForever+0xa>)
 80014dc:	4a0d      	ldr	r2, [pc, #52]	@ (8001514 <LoopForever+0xe>)
 80014de:	2300      	movs	r3, #0
 80014e0:	e002      	b.n	80014e8 <LoopCopyDataInit>

080014e2 <CopyDataInit>:
 80014e2:	58d4      	ldr	r4, [r2, r3]
 80014e4:	50c4      	str	r4, [r0, r3]
 80014e6:	3304      	adds	r3, #4

080014e8 <LoopCopyDataInit>:
 80014e8:	18c4      	adds	r4, r0, r3
 80014ea:	428c      	cmp	r4, r1
 80014ec:	d3f9      	bcc.n	80014e2 <CopyDataInit>
 80014ee:	4a0a      	ldr	r2, [pc, #40]	@ (8001518 <LoopForever+0x12>)
 80014f0:	4c0a      	ldr	r4, [pc, #40]	@ (800151c <LoopForever+0x16>)
 80014f2:	2300      	movs	r3, #0
 80014f4:	e001      	b.n	80014fa <LoopFillZerobss>

080014f6 <FillZerobss>:
 80014f6:	6013      	str	r3, [r2, #0]
 80014f8:	3204      	adds	r2, #4

080014fa <LoopFillZerobss>:
 80014fa:	42a2      	cmp	r2, r4
 80014fc:	d3fb      	bcc.n	80014f6 <FillZerobss>
 80014fe:	f002 f801 	bl	8003504 <__libc_init_array>
 8001502:	f7ff f9ad 	bl	8000860 <main>

08001506 <LoopForever>:
 8001506:	e7fe      	b.n	8001506 <LoopForever>
 8001508:	20002000 	.word	0x20002000
 800150c:	20000000 	.word	0x20000000
 8001510:	200000b0 	.word	0x200000b0
 8001514:	08003d94 	.word	0x08003d94
 8001518:	200000b0 	.word	0x200000b0
 800151c:	20000ce0 	.word	0x20000ce0

08001520 <ADC1_IRQHandler>:
 8001520:	e7fe      	b.n	8001520 <ADC1_IRQHandler>

08001522 <get_page>:
 8001522:	23f8      	movs	r3, #248	@ 0xf8
 8001524:	061b      	lsls	r3, r3, #24
 8001526:	469c      	mov	ip, r3
 8001528:	4460      	add	r0, ip
 800152a:	0ac0      	lsrs	r0, r0, #11
 800152c:	4770      	bx	lr

0800152e <set_byte_in_uint64>:
 800152e:	b570      	push	{r4, r5, r6, lr}
 8001530:	6804      	ldr	r4, [r0, #0]
 8001532:	6843      	ldr	r3, [r0, #4]
 8001534:	00c9      	lsls	r1, r1, #3
 8001536:	000e      	movs	r6, r1
 8001538:	3e20      	subs	r6, #32
 800153a:	d413      	bmi.n	8001564 <set_byte_in_uint64+0x36>
 800153c:	25ff      	movs	r5, #255	@ 0xff
 800153e:	40b5      	lsls	r5, r6
 8001540:	26ff      	movs	r6, #255	@ 0xff
 8001542:	408e      	lsls	r6, r1
 8001544:	43b4      	bics	r4, r6
 8001546:	43ab      	bics	r3, r5
 8001548:	6004      	str	r4, [r0, #0]
 800154a:	6043      	str	r3, [r0, #4]
 800154c:	000d      	movs	r5, r1
 800154e:	3d20      	subs	r5, #32
 8001550:	d40d      	bmi.n	800156e <set_byte_in_uint64+0x40>
 8001552:	0016      	movs	r6, r2
 8001554:	40ae      	lsls	r6, r5
 8001556:	0035      	movs	r5, r6
 8001558:	408a      	lsls	r2, r1
 800155a:	4314      	orrs	r4, r2
 800155c:	6004      	str	r4, [r0, #0]
 800155e:	432b      	orrs	r3, r5
 8001560:	6043      	str	r3, [r0, #4]
 8001562:	bd70      	pop	{r4, r5, r6, pc}
 8001564:	2620      	movs	r6, #32
 8001566:	1a76      	subs	r6, r6, r1
 8001568:	25ff      	movs	r5, #255	@ 0xff
 800156a:	40f5      	lsrs	r5, r6
 800156c:	e7e8      	b.n	8001540 <set_byte_in_uint64+0x12>
 800156e:	2520      	movs	r5, #32
 8001570:	1a6d      	subs	r5, r5, r1
 8001572:	0016      	movs	r6, r2
 8001574:	40ee      	lsrs	r6, r5
 8001576:	0035      	movs	r5, r6
 8001578:	e7ee      	b.n	8001558 <set_byte_in_uint64+0x2a>

0800157a <my_flash_read_double_word>:
 800157a:	6841      	ldr	r1, [r0, #4]
 800157c:	6800      	ldr	r0, [r0, #0]
 800157e:	4770      	bx	lr

08001580 <my_flash_earse_pages>:
 8001580:	b510      	push	{r4, lr}
 8001582:	b086      	sub	sp, #24
 8001584:	2300      	movs	r3, #0
 8001586:	9305      	str	r3, [sp, #20]
 8001588:	3302      	adds	r3, #2
 800158a:	9301      	str	r3, [sp, #4]
 800158c:	f7ff ffc9 	bl	8001522 <get_page>
 8001590:	9003      	str	r0, [sp, #12]
 8001592:	2301      	movs	r3, #1
 8001594:	9304      	str	r3, [sp, #16]
 8001596:	f000 f981 	bl	800189c <HAL_FLASH_Unlock>
 800159a:	a905      	add	r1, sp, #20
 800159c:	a801      	add	r0, sp, #4
 800159e:	f000 fa2b 	bl	80019f8 <HAL_FLASHEx_Erase>
 80015a2:	0004      	movs	r4, r0
 80015a4:	f000 f9fa 	bl	800199c <HAL_FLASH_Lock>
 80015a8:	4263      	negs	r3, r4
 80015aa:	415c      	adcs	r4, r3
 80015ac:	b2e0      	uxtb	r0, r4
 80015ae:	b006      	add	sp, #24
 80015b0:	bd10      	pop	{r4, pc}

080015b2 <my_flash_write_double_word>:
 80015b2:	b570      	push	{r4, r5, r6, lr}
 80015b4:	0004      	movs	r4, r0
 80015b6:	0016      	movs	r6, r2
 80015b8:	001d      	movs	r5, r3
 80015ba:	f000 f96f 	bl	800189c <HAL_FLASH_Unlock>
 80015be:	0032      	movs	r2, r6
 80015c0:	002b      	movs	r3, r5
 80015c2:	0021      	movs	r1, r4
 80015c4:	2001      	movs	r0, #1
 80015c6:	f000 f9b7 	bl	8001938 <HAL_FLASH_Program>
 80015ca:	0004      	movs	r4, r0
 80015cc:	f000 f9e6 	bl	800199c <HAL_FLASH_Lock>
 80015d0:	4263      	negs	r3, r4
 80015d2:	415c      	adcs	r4, r3
 80015d4:	b2e0      	uxtb	r0, r4
 80015d6:	bd70      	pop	{r4, r5, r6, pc}

080015d8 <get_rgb_light>:
 80015d8:	4b01      	ldr	r3, [pc, #4]	@ (80015e0 <get_rgb_light+0x8>)
 80015da:	7818      	ldrb	r0, [r3, #0]
 80015dc:	b2c0      	uxtb	r0, r0
 80015de:	4770      	bx	lr
 80015e0:	0800c001 	.word	0x0800c001

080015e4 <set_rgb_light>:
 80015e4:	b530      	push	{r4, r5, lr}
 80015e6:	b083      	sub	sp, #12
 80015e8:	0004      	movs	r4, r0
 80015ea:	4d0e      	ldr	r5, [pc, #56]	@ (8001624 <set_rgb_light+0x40>)
 80015ec:	0028      	movs	r0, r5
 80015ee:	f7ff ffc4 	bl	800157a <my_flash_read_double_word>
 80015f2:	9000      	str	r0, [sp, #0]
 80015f4:	9101      	str	r1, [sp, #4]
 80015f6:	0022      	movs	r2, r4
 80015f8:	2101      	movs	r1, #1
 80015fa:	4668      	mov	r0, sp
 80015fc:	f7ff ff97 	bl	800152e <set_byte_in_uint64>
 8001600:	0028      	movs	r0, r5
 8001602:	f7ff ffbd 	bl	8001580 <my_flash_earse_pages>
 8001606:	9a00      	ldr	r2, [sp, #0]
 8001608:	9b01      	ldr	r3, [sp, #4]
 800160a:	4806      	ldr	r0, [pc, #24]	@ (8001624 <set_rgb_light+0x40>)
 800160c:	f7ff ffd1 	bl	80015b2 <my_flash_write_double_word>
 8001610:	2800      	cmp	r0, #0
 8001612:	d0f8      	beq.n	8001606 <set_rgb_light+0x22>
 8001614:	f7ff ffe0 	bl	80015d8 <get_rgb_light>
 8001618:	1b00      	subs	r0, r0, r4
 800161a:	4243      	negs	r3, r0
 800161c:	4158      	adcs	r0, r3
 800161e:	b2c0      	uxtb	r0, r0
 8001620:	b003      	add	sp, #12
 8001622:	bd30      	pop	{r4, r5, pc}
 8001624:	0800c000 	.word	0x0800c000

08001628 <get_bootloader_version>:
 8001628:	4b01      	ldr	r3, [pc, #4]	@ (8001630 <get_bootloader_version+0x8>)
 800162a:	7818      	ldrb	r0, [r3, #0]
 800162c:	b2c0      	uxtb	r0, r0
 800162e:	4770      	bx	lr
 8001630:	08001fff 	.word	0x08001fff

08001634 <HAL_InitTick>:
 8001634:	b510      	push	{r4, lr}
 8001636:	0004      	movs	r4, r0
 8001638:	4b11      	ldr	r3, [pc, #68]	@ (8001680 <HAL_InitTick+0x4c>)
 800163a:	7819      	ldrb	r1, [r3, #0]
 800163c:	2900      	cmp	r1, #0
 800163e:	d101      	bne.n	8001644 <HAL_InitTick+0x10>
 8001640:	2001      	movs	r0, #1
 8001642:	bd10      	pop	{r4, pc}
 8001644:	20fa      	movs	r0, #250	@ 0xfa
 8001646:	0080      	lsls	r0, r0, #2
 8001648:	f7fe fd70 	bl	800012c <__udivsi3>
 800164c:	0001      	movs	r1, r0
 800164e:	4b0d      	ldr	r3, [pc, #52]	@ (8001684 <HAL_InitTick+0x50>)
 8001650:	6818      	ldr	r0, [r3, #0]
 8001652:	f7fe fd6b 	bl	800012c <__udivsi3>
 8001656:	f000 f8ad 	bl	80017b4 <HAL_SYSTICK_Config>
 800165a:	2800      	cmp	r0, #0
 800165c:	d10d      	bne.n	800167a <HAL_InitTick+0x46>
 800165e:	2c03      	cmp	r4, #3
 8001660:	d901      	bls.n	8001666 <HAL_InitTick+0x32>
 8001662:	2001      	movs	r0, #1
 8001664:	e7ed      	b.n	8001642 <HAL_InitTick+0xe>
 8001666:	3001      	adds	r0, #1
 8001668:	2200      	movs	r2, #0
 800166a:	0021      	movs	r1, r4
 800166c:	4240      	negs	r0, r0
 800166e:	f000 f891 	bl	8001794 <HAL_NVIC_SetPriority>
 8001672:	4b05      	ldr	r3, [pc, #20]	@ (8001688 <HAL_InitTick+0x54>)
 8001674:	601c      	str	r4, [r3, #0]
 8001676:	2000      	movs	r0, #0
 8001678:	e7e3      	b.n	8001642 <HAL_InitTick+0xe>
 800167a:	2001      	movs	r0, #1
 800167c:	e7e1      	b.n	8001642 <HAL_InitTick+0xe>
 800167e:	46c0      	nop			@ (mov r8, r8)
 8001680:	20000020 	.word	0x20000020
 8001684:	2000001c 	.word	0x2000001c
 8001688:	20000024 	.word	0x20000024

0800168c <HAL_Init>:
 800168c:	b510      	push	{r4, lr}
 800168e:	4a08      	ldr	r2, [pc, #32]	@ (80016b0 <HAL_Init+0x24>)
 8001690:	6811      	ldr	r1, [r2, #0]
 8001692:	2380      	movs	r3, #128	@ 0x80
 8001694:	005b      	lsls	r3, r3, #1
 8001696:	430b      	orrs	r3, r1
 8001698:	6013      	str	r3, [r2, #0]
 800169a:	2003      	movs	r0, #3
 800169c:	f7ff ffca 	bl	8001634 <HAL_InitTick>
 80016a0:	1e04      	subs	r4, r0, #0
 80016a2:	d002      	beq.n	80016aa <HAL_Init+0x1e>
 80016a4:	2401      	movs	r4, #1
 80016a6:	0020      	movs	r0, r4
 80016a8:	bd10      	pop	{r4, pc}
 80016aa:	f7ff f9a7 	bl	80009fc <HAL_MspInit>
 80016ae:	e7fa      	b.n	80016a6 <HAL_Init+0x1a>
 80016b0:	40022000 	.word	0x40022000

080016b4 <HAL_IncTick>:
 80016b4:	4b03      	ldr	r3, [pc, #12]	@ (80016c4 <HAL_IncTick+0x10>)
 80016b6:	781b      	ldrb	r3, [r3, #0]
 80016b8:	4a03      	ldr	r2, [pc, #12]	@ (80016c8 <HAL_IncTick+0x14>)
 80016ba:	6811      	ldr	r1, [r2, #0]
 80016bc:	185b      	adds	r3, r3, r1
 80016be:	6013      	str	r3, [r2, #0]
 80016c0:	4770      	bx	lr
 80016c2:	46c0      	nop			@ (mov r8, r8)
 80016c4:	20000020 	.word	0x20000020
 80016c8:	20000b78 	.word	0x20000b78

080016cc <HAL_GetTick>:
 80016cc:	4b01      	ldr	r3, [pc, #4]	@ (80016d4 <HAL_GetTick+0x8>)
 80016ce:	6818      	ldr	r0, [r3, #0]
 80016d0:	4770      	bx	lr
 80016d2:	46c0      	nop			@ (mov r8, r8)
 80016d4:	20000b78 	.word	0x20000b78

080016d8 <HAL_Delay>:
 80016d8:	b570      	push	{r4, r5, r6, lr}
 80016da:	0004      	movs	r4, r0
 80016dc:	f7ff fff6 	bl	80016cc <HAL_GetTick>
 80016e0:	0005      	movs	r5, r0
 80016e2:	1c63      	adds	r3, r4, #1
 80016e4:	d002      	beq.n	80016ec <HAL_Delay+0x14>
 80016e6:	4b04      	ldr	r3, [pc, #16]	@ (80016f8 <HAL_Delay+0x20>)
 80016e8:	781b      	ldrb	r3, [r3, #0]
 80016ea:	18e4      	adds	r4, r4, r3
 80016ec:	f7ff ffee 	bl	80016cc <HAL_GetTick>
 80016f0:	1b40      	subs	r0, r0, r5
 80016f2:	42a0      	cmp	r0, r4
 80016f4:	d3fa      	bcc.n	80016ec <HAL_Delay+0x14>
 80016f6:	bd70      	pop	{r4, r5, r6, pc}
 80016f8:	20000020 	.word	0x20000020

080016fc <__NVIC_SetPriority>:
 80016fc:	b570      	push	{r4, r5, r6, lr}
 80016fe:	2800      	cmp	r0, #0
 8001700:	db11      	blt.n	8001726 <__NVIC_SetPriority+0x2a>
 8001702:	0883      	lsrs	r3, r0, #2
 8001704:	4d13      	ldr	r5, [pc, #76]	@ (8001754 <__NVIC_SetPriority+0x58>)
 8001706:	33c0      	adds	r3, #192	@ 0xc0
 8001708:	009b      	lsls	r3, r3, #2
 800170a:	595c      	ldr	r4, [r3, r5]
 800170c:	2203      	movs	r2, #3
 800170e:	4010      	ands	r0, r2
 8001710:	00c0      	lsls	r0, r0, #3
 8001712:	32fc      	adds	r2, #252	@ 0xfc
 8001714:	0016      	movs	r6, r2
 8001716:	4086      	lsls	r6, r0
 8001718:	43b4      	bics	r4, r6
 800171a:	0189      	lsls	r1, r1, #6
 800171c:	400a      	ands	r2, r1
 800171e:	4082      	lsls	r2, r0
 8001720:	4322      	orrs	r2, r4
 8001722:	515a      	str	r2, [r3, r5]
 8001724:	bd70      	pop	{r4, r5, r6, pc}
 8001726:	230f      	movs	r3, #15
 8001728:	4003      	ands	r3, r0
 800172a:	3b08      	subs	r3, #8
 800172c:	089b      	lsrs	r3, r3, #2
 800172e:	3306      	adds	r3, #6
 8001730:	009b      	lsls	r3, r3, #2
 8001732:	4a09      	ldr	r2, [pc, #36]	@ (8001758 <__NVIC_SetPriority+0x5c>)
 8001734:	4694      	mov	ip, r2
 8001736:	4463      	add	r3, ip
 8001738:	685c      	ldr	r4, [r3, #4]
 800173a:	2203      	movs	r2, #3
 800173c:	4010      	ands	r0, r2
 800173e:	00c0      	lsls	r0, r0, #3
 8001740:	32fc      	adds	r2, #252	@ 0xfc
 8001742:	0015      	movs	r5, r2
 8001744:	4085      	lsls	r5, r0
 8001746:	43ac      	bics	r4, r5
 8001748:	0189      	lsls	r1, r1, #6
 800174a:	400a      	ands	r2, r1
 800174c:	4082      	lsls	r2, r0
 800174e:	4322      	orrs	r2, r4
 8001750:	605a      	str	r2, [r3, #4]
 8001752:	e7e7      	b.n	8001724 <__NVIC_SetPriority+0x28>
 8001754:	e000e100 	.word	0xe000e100
 8001758:	e000ed00 	.word	0xe000ed00

0800175c <SysTick_Config>:
 800175c:	3801      	subs	r0, #1
 800175e:	2380      	movs	r3, #128	@ 0x80
 8001760:	045b      	lsls	r3, r3, #17
 8001762:	4298      	cmp	r0, r3
 8001764:	d20f      	bcs.n	8001786 <SysTick_Config+0x2a>
 8001766:	4a09      	ldr	r2, [pc, #36]	@ (800178c <SysTick_Config+0x30>)
 8001768:	6050      	str	r0, [r2, #4]
 800176a:	4809      	ldr	r0, [pc, #36]	@ (8001790 <SysTick_Config+0x34>)
 800176c:	6a03      	ldr	r3, [r0, #32]
 800176e:	021b      	lsls	r3, r3, #8
 8001770:	0a1b      	lsrs	r3, r3, #8
 8001772:	21c0      	movs	r1, #192	@ 0xc0
 8001774:	0609      	lsls	r1, r1, #24
 8001776:	430b      	orrs	r3, r1
 8001778:	6203      	str	r3, [r0, #32]
 800177a:	2300      	movs	r3, #0
 800177c:	6093      	str	r3, [r2, #8]
 800177e:	3307      	adds	r3, #7
 8001780:	6013      	str	r3, [r2, #0]
 8001782:	2000      	movs	r0, #0
 8001784:	4770      	bx	lr
 8001786:	2001      	movs	r0, #1
 8001788:	e7fc      	b.n	8001784 <SysTick_Config+0x28>
 800178a:	46c0      	nop			@ (mov r8, r8)
 800178c:	e000e010 	.word	0xe000e010
 8001790:	e000ed00 	.word	0xe000ed00

08001794 <HAL_NVIC_SetPriority>:
 8001794:	b510      	push	{r4, lr}
 8001796:	f7ff ffb1 	bl	80016fc <__NVIC_SetPriority>
 800179a:	bd10      	pop	{r4, pc}

0800179c <HAL_NVIC_EnableIRQ>:
 800179c:	2800      	cmp	r0, #0
 800179e:	db05      	blt.n	80017ac <HAL_NVIC_EnableIRQ+0x10>
 80017a0:	221f      	movs	r2, #31
 80017a2:	4002      	ands	r2, r0
 80017a4:	2301      	movs	r3, #1
 80017a6:	4093      	lsls	r3, r2
 80017a8:	4a01      	ldr	r2, [pc, #4]	@ (80017b0 <HAL_NVIC_EnableIRQ+0x14>)
 80017aa:	6013      	str	r3, [r2, #0]
 80017ac:	4770      	bx	lr
 80017ae:	46c0      	nop			@ (mov r8, r8)
 80017b0:	e000e100 	.word	0xe000e100

080017b4 <HAL_SYSTICK_Config>:
 80017b4:	b510      	push	{r4, lr}
 80017b6:	f7ff ffd1 	bl	800175c <SysTick_Config>
 80017ba:	bd10      	pop	{r4, pc}

080017bc <FLASH_Program_DoubleWord>:
 80017bc:	b530      	push	{r4, r5, lr}
 80017be:	4c05      	ldr	r4, [pc, #20]	@ (80017d4 <FLASH_Program_DoubleWord+0x18>)
 80017c0:	6961      	ldr	r1, [r4, #20]
 80017c2:	2501      	movs	r5, #1
 80017c4:	4329      	orrs	r1, r5
 80017c6:	6161      	str	r1, [r4, #20]
 80017c8:	6002      	str	r2, [r0, #0]
 80017ca:	f3bf 8f6f 	isb	sy
 80017ce:	6043      	str	r3, [r0, #4]
 80017d0:	bd30      	pop	{r4, r5, pc}
 80017d2:	46c0      	nop			@ (mov r8, r8)
 80017d4:	40022000 	.word	0x40022000

080017d8 <HAL_FLASH_EndOfOperationCallback>:
 80017d8:	4770      	bx	lr

080017da <HAL_FLASH_OperationErrorCallback>:
 80017da:	4770      	bx	lr

080017dc <HAL_FLASH_IRQHandler>:
 80017dc:	b510      	push	{r4, lr}
 80017de:	4b2a      	ldr	r3, [pc, #168]	@ (8001888 <HAL_FLASH_IRQHandler+0xac>)
 80017e0:	691b      	ldr	r3, [r3, #16]
 80017e2:	4a2a      	ldr	r2, [pc, #168]	@ (800188c <HAL_FLASH_IRQHandler+0xb0>)
 80017e4:	4013      	ands	r3, r2
 80017e6:	4a2a      	ldr	r2, [pc, #168]	@ (8001890 <HAL_FLASH_IRQHandler+0xb4>)
 80017e8:	6892      	ldr	r2, [r2, #8]
 80017ea:	0751      	lsls	r1, r2, #29
 80017ec:	d521      	bpl.n	8001832 <HAL_FLASH_IRQHandler+0x56>
 80017ee:	4a28      	ldr	r2, [pc, #160]	@ (8001890 <HAL_FLASH_IRQHandler+0xb4>)
 80017f0:	6914      	ldr	r4, [r2, #16]
 80017f2:	2b00      	cmp	r3, #0
 80017f4:	d12a      	bne.n	800184c <HAL_FLASH_IRQHandler+0x70>
 80017f6:	4b24      	ldr	r3, [pc, #144]	@ (8001888 <HAL_FLASH_IRQHandler+0xac>)
 80017f8:	691b      	ldr	r3, [r3, #16]
 80017fa:	07db      	lsls	r3, r3, #31
 80017fc:	d50c      	bpl.n	8001818 <HAL_FLASH_IRQHandler+0x3c>
 80017fe:	4b22      	ldr	r3, [pc, #136]	@ (8001888 <HAL_FLASH_IRQHandler+0xac>)
 8001800:	2201      	movs	r2, #1
 8001802:	611a      	str	r2, [r3, #16]
 8001804:	4b22      	ldr	r3, [pc, #136]	@ (8001890 <HAL_FLASH_IRQHandler+0xb4>)
 8001806:	689b      	ldr	r3, [r3, #8]
 8001808:	2b02      	cmp	r3, #2
 800180a:	d02c      	beq.n	8001866 <HAL_FLASH_IRQHandler+0x8a>
 800180c:	4b20      	ldr	r3, [pc, #128]	@ (8001890 <HAL_FLASH_IRQHandler+0xb4>)
 800180e:	2200      	movs	r2, #0
 8001810:	609a      	str	r2, [r3, #8]
 8001812:	0020      	movs	r0, r4
 8001814:	f7ff ffe0 	bl	80017d8 <HAL_FLASH_EndOfOperationCallback>
 8001818:	4b1d      	ldr	r3, [pc, #116]	@ (8001890 <HAL_FLASH_IRQHandler+0xb4>)
 800181a:	689b      	ldr	r3, [r3, #8]
 800181c:	2b00      	cmp	r3, #0
 800181e:	d107      	bne.n	8001830 <HAL_FLASH_IRQHandler+0x54>
 8001820:	4a19      	ldr	r2, [pc, #100]	@ (8001888 <HAL_FLASH_IRQHandler+0xac>)
 8001822:	6953      	ldr	r3, [r2, #20]
 8001824:	491b      	ldr	r1, [pc, #108]	@ (8001894 <HAL_FLASH_IRQHandler+0xb8>)
 8001826:	400b      	ands	r3, r1
 8001828:	6153      	str	r3, [r2, #20]
 800182a:	4b19      	ldr	r3, [pc, #100]	@ (8001890 <HAL_FLASH_IRQHandler+0xb4>)
 800182c:	2200      	movs	r2, #0
 800182e:	701a      	strb	r2, [r3, #0]
 8001830:	bd10      	pop	{r4, pc}
 8001832:	4815      	ldr	r0, [pc, #84]	@ (8001888 <HAL_FLASH_IRQHandler+0xac>)
 8001834:	6941      	ldr	r1, [r0, #20]
 8001836:	4391      	bics	r1, r2
 8001838:	6141      	str	r1, [r0, #20]
 800183a:	4917      	ldr	r1, [pc, #92]	@ (8001898 <HAL_FLASH_IRQHandler+0xbc>)
 800183c:	420a      	tst	r2, r1
 800183e:	d002      	beq.n	8001846 <HAL_FLASH_IRQHandler+0x6a>
 8001840:	4a13      	ldr	r2, [pc, #76]	@ (8001890 <HAL_FLASH_IRQHandler+0xb4>)
 8001842:	68d4      	ldr	r4, [r2, #12]
 8001844:	e7d5      	b.n	80017f2 <HAL_FLASH_IRQHandler+0x16>
 8001846:	4a12      	ldr	r2, [pc, #72]	@ (8001890 <HAL_FLASH_IRQHandler+0xb4>)
 8001848:	6954      	ldr	r4, [r2, #20]
 800184a:	e7d2      	b.n	80017f2 <HAL_FLASH_IRQHandler+0x16>
 800184c:	4a10      	ldr	r2, [pc, #64]	@ (8001890 <HAL_FLASH_IRQHandler+0xb4>)
 800184e:	6851      	ldr	r1, [r2, #4]
 8001850:	430b      	orrs	r3, r1
 8001852:	6053      	str	r3, [r2, #4]
 8001854:	4b0c      	ldr	r3, [pc, #48]	@ (8001888 <HAL_FLASH_IRQHandler+0xac>)
 8001856:	490d      	ldr	r1, [pc, #52]	@ (800188c <HAL_FLASH_IRQHandler+0xb0>)
 8001858:	6119      	str	r1, [r3, #16]
 800185a:	2300      	movs	r3, #0
 800185c:	6093      	str	r3, [r2, #8]
 800185e:	0020      	movs	r0, r4
 8001860:	f7ff ffbb 	bl	80017da <HAL_FLASH_OperationErrorCallback>
 8001864:	e7c7      	b.n	80017f6 <HAL_FLASH_IRQHandler+0x1a>
 8001866:	4a0a      	ldr	r2, [pc, #40]	@ (8001890 <HAL_FLASH_IRQHandler+0xb4>)
 8001868:	6993      	ldr	r3, [r2, #24]
 800186a:	3b01      	subs	r3, #1
 800186c:	6193      	str	r3, [r2, #24]
 800186e:	2b00      	cmp	r3, #0
 8001870:	d103      	bne.n	800187a <HAL_FLASH_IRQHandler+0x9e>
 8001872:	4b07      	ldr	r3, [pc, #28]	@ (8001890 <HAL_FLASH_IRQHandler+0xb4>)
 8001874:	2200      	movs	r2, #0
 8001876:	609a      	str	r2, [r3, #8]
 8001878:	e7cb      	b.n	8001812 <HAL_FLASH_IRQHandler+0x36>
 800187a:	6951      	ldr	r1, [r2, #20]
 800187c:	3101      	adds	r1, #1
 800187e:	6151      	str	r1, [r2, #20]
 8001880:	6910      	ldr	r0, [r2, #16]
 8001882:	f000 f8a9 	bl	80019d8 <FLASH_PageErase>
 8001886:	e7c4      	b.n	8001812 <HAL_FLASH_IRQHandler+0x36>
 8001888:	40022000 	.word	0x40022000
 800188c:	0000c3fa 	.word	0x0000c3fa
 8001890:	20000b7c 	.word	0x20000b7c
 8001894:	fcffffff 	.word	0xfcffffff
 8001898:	00040001 	.word	0x00040001

0800189c <HAL_FLASH_Unlock>:
 800189c:	4b08      	ldr	r3, [pc, #32]	@ (80018c0 <HAL_FLASH_Unlock+0x24>)
 800189e:	695b      	ldr	r3, [r3, #20]
 80018a0:	2b00      	cmp	r3, #0
 80018a2:	db01      	blt.n	80018a8 <HAL_FLASH_Unlock+0xc>
 80018a4:	2000      	movs	r0, #0
 80018a6:	4770      	bx	lr
 80018a8:	4b05      	ldr	r3, [pc, #20]	@ (80018c0 <HAL_FLASH_Unlock+0x24>)
 80018aa:	4a06      	ldr	r2, [pc, #24]	@ (80018c4 <HAL_FLASH_Unlock+0x28>)
 80018ac:	609a      	str	r2, [r3, #8]
 80018ae:	4a06      	ldr	r2, [pc, #24]	@ (80018c8 <HAL_FLASH_Unlock+0x2c>)
 80018b0:	609a      	str	r2, [r3, #8]
 80018b2:	695b      	ldr	r3, [r3, #20]
 80018b4:	2b00      	cmp	r3, #0
 80018b6:	db01      	blt.n	80018bc <HAL_FLASH_Unlock+0x20>
 80018b8:	2000      	movs	r0, #0
 80018ba:	e7f4      	b.n	80018a6 <HAL_FLASH_Unlock+0xa>
 80018bc:	2001      	movs	r0, #1
 80018be:	e7f2      	b.n	80018a6 <HAL_FLASH_Unlock+0xa>
 80018c0:	40022000 	.word	0x40022000
 80018c4:	45670123 	.word	0x45670123
 80018c8:	cdef89ab 	.word	0xcdef89ab

080018cc <FLASH_WaitForLastOperation>:
 80018cc:	b570      	push	{r4, r5, r6, lr}
 80018ce:	0004      	movs	r4, r0
 80018d0:	f7ff fefc 	bl	80016cc <HAL_GetTick>
 80018d4:	0005      	movs	r5, r0
 80018d6:	4b14      	ldr	r3, [pc, #80]	@ (8001928 <FLASH_WaitForLastOperation+0x5c>)
 80018d8:	691b      	ldr	r3, [r3, #16]
 80018da:	03db      	lsls	r3, r3, #15
 80018dc:	d508      	bpl.n	80018f0 <FLASH_WaitForLastOperation+0x24>
 80018de:	1c63      	adds	r3, r4, #1
 80018e0:	d0f9      	beq.n	80018d6 <FLASH_WaitForLastOperation+0xa>
 80018e2:	f7ff fef3 	bl	80016cc <HAL_GetTick>
 80018e6:	1b40      	subs	r0, r0, r5
 80018e8:	42a0      	cmp	r0, r4
 80018ea:	d3f4      	bcc.n	80018d6 <FLASH_WaitForLastOperation+0xa>
 80018ec:	2003      	movs	r0, #3
 80018ee:	e01a      	b.n	8001926 <FLASH_WaitForLastOperation+0x5a>
 80018f0:	490d      	ldr	r1, [pc, #52]	@ (8001928 <FLASH_WaitForLastOperation+0x5c>)
 80018f2:	690a      	ldr	r2, [r1, #16]
 80018f4:	4b0d      	ldr	r3, [pc, #52]	@ (800192c <FLASH_WaitForLastOperation+0x60>)
 80018f6:	0016      	movs	r6, r2
 80018f8:	401e      	ands	r6, r3
 80018fa:	480d      	ldr	r0, [pc, #52]	@ (8001930 <FLASH_WaitForLastOperation+0x64>)
 80018fc:	6108      	str	r0, [r1, #16]
 80018fe:	421a      	tst	r2, r3
 8001900:	d10c      	bne.n	800191c <FLASH_WaitForLastOperation+0x50>
 8001902:	4b09      	ldr	r3, [pc, #36]	@ (8001928 <FLASH_WaitForLastOperation+0x5c>)
 8001904:	691b      	ldr	r3, [r3, #16]
 8001906:	035b      	lsls	r3, r3, #13
 8001908:	d50c      	bpl.n	8001924 <FLASH_WaitForLastOperation+0x58>
 800190a:	1c63      	adds	r3, r4, #1
 800190c:	d0f9      	beq.n	8001902 <FLASH_WaitForLastOperation+0x36>
 800190e:	f7ff fedd 	bl	80016cc <HAL_GetTick>
 8001912:	1b40      	subs	r0, r0, r5
 8001914:	42a0      	cmp	r0, r4
 8001916:	d3f4      	bcc.n	8001902 <FLASH_WaitForLastOperation+0x36>
 8001918:	2003      	movs	r0, #3
 800191a:	e004      	b.n	8001926 <FLASH_WaitForLastOperation+0x5a>
 800191c:	4b05      	ldr	r3, [pc, #20]	@ (8001934 <FLASH_WaitForLastOperation+0x68>)
 800191e:	605e      	str	r6, [r3, #4]
 8001920:	2001      	movs	r0, #1
 8001922:	e000      	b.n	8001926 <FLASH_WaitForLastOperation+0x5a>
 8001924:	2000      	movs	r0, #0
 8001926:	bd70      	pop	{r4, r5, r6, pc}
 8001928:	40022000 	.word	0x40022000
 800192c:	0000c3fa 	.word	0x0000c3fa
 8001930:	0000c3fb 	.word	0x0000c3fb
 8001934:	20000b7c 	.word	0x20000b7c

08001938 <HAL_FLASH_Program>:
 8001938:	b5f8      	push	{r3, r4, r5, r6, r7, lr}
 800193a:	0007      	movs	r7, r0
 800193c:	000c      	movs	r4, r1
 800193e:	0015      	movs	r5, r2
 8001940:	001e      	movs	r6, r3
 8001942:	4b14      	ldr	r3, [pc, #80]	@ (8001994 <HAL_FLASH_Program+0x5c>)
 8001944:	781b      	ldrb	r3, [r3, #0]
 8001946:	2b01      	cmp	r3, #1
 8001948:	d022      	beq.n	8001990 <HAL_FLASH_Program+0x58>
 800194a:	4b12      	ldr	r3, [pc, #72]	@ (8001994 <HAL_FLASH_Program+0x5c>)
 800194c:	2201      	movs	r2, #1
 800194e:	701a      	strb	r2, [r3, #0]
 8001950:	2200      	movs	r2, #0
 8001952:	605a      	str	r2, [r3, #4]
 8001954:	20fa      	movs	r0, #250	@ 0xfa
 8001956:	0080      	lsls	r0, r0, #2
 8001958:	f7ff ffb8 	bl	80018cc <FLASH_WaitForLastOperation>
 800195c:	2800      	cmp	r0, #0
 800195e:	d10d      	bne.n	800197c <HAL_FLASH_Program+0x44>
 8001960:	2f01      	cmp	r7, #1
 8001962:	d00f      	beq.n	8001984 <HAL_FLASH_Program+0x4c>
 8001964:	0029      	movs	r1, r5
 8001966:	0020      	movs	r0, r4
 8001968:	f002 f982 	bl	8003c70 <__FLASH_Program_Fast_veneer>
 800196c:	20fa      	movs	r0, #250	@ 0xfa
 800196e:	0080      	lsls	r0, r0, #2
 8001970:	f7ff ffac 	bl	80018cc <FLASH_WaitForLastOperation>
 8001974:	4a08      	ldr	r2, [pc, #32]	@ (8001998 <HAL_FLASH_Program+0x60>)
 8001976:	6953      	ldr	r3, [r2, #20]
 8001978:	43bb      	bics	r3, r7
 800197a:	6153      	str	r3, [r2, #20]
 800197c:	4b05      	ldr	r3, [pc, #20]	@ (8001994 <HAL_FLASH_Program+0x5c>)
 800197e:	2200      	movs	r2, #0
 8001980:	701a      	strb	r2, [r3, #0]
 8001982:	bdf8      	pop	{r3, r4, r5, r6, r7, pc}
 8001984:	002a      	movs	r2, r5
 8001986:	0033      	movs	r3, r6
 8001988:	0020      	movs	r0, r4
 800198a:	f7ff ff17 	bl	80017bc <FLASH_Program_DoubleWord>
 800198e:	e7ed      	b.n	800196c <HAL_FLASH_Program+0x34>
 8001990:	2002      	movs	r0, #2
 8001992:	e7f6      	b.n	8001982 <HAL_FLASH_Program+0x4a>
 8001994:	20000b7c 	.word	0x20000b7c
 8001998:	40022000 	.word	0x40022000

0800199c <HAL_FLASH_Lock>:
 800199c:	b510      	push	{r4, lr}
 800199e:	20fa      	movs	r0, #250	@ 0xfa
 80019a0:	0080      	lsls	r0, r0, #2
 80019a2:	f7ff ff93 	bl	80018cc <FLASH_WaitForLastOperation>
 80019a6:	4b06      	ldr	r3, [pc, #24]	@ (80019c0 <HAL_FLASH_Lock+0x24>)
 80019a8:	6959      	ldr	r1, [r3, #20]
 80019aa:	2280      	movs	r2, #128	@ 0x80
 80019ac:	0612      	lsls	r2, r2, #24
 80019ae:	430a      	orrs	r2, r1
 80019b0:	615a      	str	r2, [r3, #20]
 80019b2:	695b      	ldr	r3, [r3, #20]
 80019b4:	2b00      	cmp	r3, #0
 80019b6:	db01      	blt.n	80019bc <HAL_FLASH_Lock+0x20>
 80019b8:	2001      	movs	r0, #1
 80019ba:	bd10      	pop	{r4, pc}
 80019bc:	2000      	movs	r0, #0
 80019be:	e7fc      	b.n	80019ba <HAL_FLASH_Lock+0x1e>
 80019c0:	40022000 	.word	0x40022000

080019c4 <FLASH_MassErase>:
 80019c4:	4a03      	ldr	r2, [pc, #12]	@ (80019d4 <FLASH_MassErase+0x10>)
 80019c6:	6953      	ldr	r3, [r2, #20]
 80019c8:	4303      	orrs	r3, r0
 80019ca:	2080      	movs	r0, #128	@ 0x80
 80019cc:	0240      	lsls	r0, r0, #9
 80019ce:	4318      	orrs	r0, r3
 80019d0:	6150      	str	r0, [r2, #20]
 80019d2:	4770      	bx	lr
 80019d4:	40022000 	.word	0x40022000

080019d8 <FLASH_PageErase>:
 80019d8:	4a04      	ldr	r2, [pc, #16]	@ (80019ec <FLASH_PageErase+0x14>)
 80019da:	6953      	ldr	r3, [r2, #20]
 80019dc:	4804      	ldr	r0, [pc, #16]	@ (80019f0 <FLASH_PageErase+0x18>)
 80019de:	4003      	ands	r3, r0
 80019e0:	00c9      	lsls	r1, r1, #3
 80019e2:	4319      	orrs	r1, r3
 80019e4:	4b03      	ldr	r3, [pc, #12]	@ (80019f4 <FLASH_PageErase+0x1c>)
 80019e6:	430b      	orrs	r3, r1
 80019e8:	6153      	str	r3, [r2, #20]
 80019ea:	4770      	bx	lr
 80019ec:	40022000 	.word	0x40022000
 80019f0:	ffffe007 	.word	0xffffe007
 80019f4:	00010002 	.word	0x00010002

080019f8 <HAL_FLASHEx_Erase>:
 80019f8:	b570      	push	{r4, r5, r6, lr}
 80019fa:	0004      	movs	r4, r0
 80019fc:	000e      	movs	r6, r1
 80019fe:	4b1e      	ldr	r3, [pc, #120]	@ (8001a78 <HAL_FLASHEx_Erase+0x80>)
 8001a00:	781b      	ldrb	r3, [r3, #0]
 8001a02:	2b01      	cmp	r3, #1
 8001a04:	d036      	beq.n	8001a74 <HAL_FLASHEx_Erase+0x7c>
 8001a06:	4b1c      	ldr	r3, [pc, #112]	@ (8001a78 <HAL_FLASHEx_Erase+0x80>)
 8001a08:	2201      	movs	r2, #1
 8001a0a:	701a      	strb	r2, [r3, #0]
 8001a0c:	2200      	movs	r2, #0
 8001a0e:	605a      	str	r2, [r3, #4]
 8001a10:	20fa      	movs	r0, #250	@ 0xfa
 8001a12:	0080      	lsls	r0, r0, #2
 8001a14:	f7ff ff5a 	bl	80018cc <FLASH_WaitForLastOperation>
 8001a18:	2800      	cmp	r0, #0
 8001a1a:	d127      	bne.n	8001a6c <HAL_FLASHEx_Erase+0x74>
 8001a1c:	2304      	movs	r3, #4
 8001a1e:	6063      	str	r3, [r4, #4]
 8001a20:	6823      	ldr	r3, [r4, #0]
 8001a22:	2b04      	cmp	r3, #4
 8001a24:	d014      	beq.n	8001a50 <HAL_FLASHEx_Erase+0x58>
 8001a26:	2301      	movs	r3, #1
 8001a28:	425b      	negs	r3, r3
 8001a2a:	6033      	str	r3, [r6, #0]
 8001a2c:	68a5      	ldr	r5, [r4, #8]
 8001a2e:	68a3      	ldr	r3, [r4, #8]
 8001a30:	68e2      	ldr	r2, [r4, #12]
 8001a32:	189b      	adds	r3, r3, r2
 8001a34:	42ab      	cmp	r3, r5
 8001a36:	d914      	bls.n	8001a62 <HAL_FLASHEx_Erase+0x6a>
 8001a38:	6860      	ldr	r0, [r4, #4]
 8001a3a:	0029      	movs	r1, r5
 8001a3c:	f7ff ffcc 	bl	80019d8 <FLASH_PageErase>
 8001a40:	20fa      	movs	r0, #250	@ 0xfa
 8001a42:	0080      	lsls	r0, r0, #2
 8001a44:	f7ff ff42 	bl	80018cc <FLASH_WaitForLastOperation>
 8001a48:	2800      	cmp	r0, #0
 8001a4a:	d109      	bne.n	8001a60 <HAL_FLASHEx_Erase+0x68>
 8001a4c:	3501      	adds	r5, #1
 8001a4e:	e7ee      	b.n	8001a2e <HAL_FLASHEx_Erase+0x36>
 8001a50:	3004      	adds	r0, #4
 8001a52:	f7ff ffb7 	bl	80019c4 <FLASH_MassErase>
 8001a56:	20fa      	movs	r0, #250	@ 0xfa
 8001a58:	0080      	lsls	r0, r0, #2
 8001a5a:	f7ff ff37 	bl	80018cc <FLASH_WaitForLastOperation>
 8001a5e:	e005      	b.n	8001a6c <HAL_FLASHEx_Erase+0x74>
 8001a60:	6035      	str	r5, [r6, #0]
 8001a62:	4a06      	ldr	r2, [pc, #24]	@ (8001a7c <HAL_FLASHEx_Erase+0x84>)
 8001a64:	6953      	ldr	r3, [r2, #20]
 8001a66:	2102      	movs	r1, #2
 8001a68:	438b      	bics	r3, r1
 8001a6a:	6153      	str	r3, [r2, #20]
 8001a6c:	4b02      	ldr	r3, [pc, #8]	@ (8001a78 <HAL_FLASHEx_Erase+0x80>)
 8001a6e:	2200      	movs	r2, #0
 8001a70:	701a      	strb	r2, [r3, #0]
 8001a72:	bd70      	pop	{r4, r5, r6, pc}
 8001a74:	2002      	movs	r0, #2
 8001a76:	e7fc      	b.n	8001a72 <HAL_FLASHEx_Erase+0x7a>
 8001a78:	20000b7c 	.word	0x20000b7c
 8001a7c:	40022000 	.word	0x40022000

08001a80 <HAL_GPIO_Init>:
 8001a80:	b5f0      	push	{r4, r5, r6, r7, lr}
 8001a82:	2300      	movs	r3, #0
 8001a84:	e059      	b.n	8001b3a <HAL_GPIO_Init+0xba>
 8001a86:	6886      	ldr	r6, [r0, #8]
 8001a88:	005f      	lsls	r7, r3, #1
 8001a8a:	2403      	movs	r4, #3
 8001a8c:	40bc      	lsls	r4, r7
 8001a8e:	43a6      	bics	r6, r4
 8001a90:	68cc      	ldr	r4, [r1, #12]
 8001a92:	40bc      	lsls	r4, r7
 8001a94:	4334      	orrs	r4, r6
 8001a96:	6084      	str	r4, [r0, #8]
 8001a98:	6844      	ldr	r4, [r0, #4]
 8001a9a:	4394      	bics	r4, r2
 8001a9c:	684e      	ldr	r6, [r1, #4]
 8001a9e:	0936      	lsrs	r6, r6, #4
 8001aa0:	2201      	movs	r2, #1
 8001aa2:	4032      	ands	r2, r6
 8001aa4:	409a      	lsls	r2, r3
 8001aa6:	4322      	orrs	r2, r4
 8001aa8:	6042      	str	r2, [r0, #4]
 8001aaa:	e056      	b.n	8001b5a <HAL_GPIO_Init+0xda>
 8001aac:	08de      	lsrs	r6, r3, #3
 8001aae:	3608      	adds	r6, #8
 8001ab0:	00b6      	lsls	r6, r6, #2
 8001ab2:	5837      	ldr	r7, [r6, r0]
 8001ab4:	3205      	adds	r2, #5
 8001ab6:	401a      	ands	r2, r3
 8001ab8:	0092      	lsls	r2, r2, #2
 8001aba:	240f      	movs	r4, #15
 8001abc:	4094      	lsls	r4, r2
 8001abe:	43a7      	bics	r7, r4
 8001ac0:	690c      	ldr	r4, [r1, #16]
 8001ac2:	4094      	lsls	r4, r2
 8001ac4:	0022      	movs	r2, r4
 8001ac6:	433a      	orrs	r2, r7
 8001ac8:	5032      	str	r2, [r6, r0]
 8001aca:	e059      	b.n	8001b80 <HAL_GPIO_Init+0x100>
 8001acc:	2603      	movs	r6, #3
 8001ace:	e000      	b.n	8001ad2 <HAL_GPIO_Init+0x52>
 8001ad0:	2600      	movs	r6, #0
 8001ad2:	40a6      	lsls	r6, r4
 8001ad4:	0034      	movs	r4, r6
 8001ad6:	433c      	orrs	r4, r7
 8001ad8:	4e42      	ldr	r6, [pc, #264]	@ (8001be4 <HAL_GPIO_Init+0x164>)
 8001ada:	3218      	adds	r2, #24
 8001adc:	0092      	lsls	r2, r2, #2
 8001ade:	5194      	str	r4, [r2, r6]
 8001ae0:	6837      	ldr	r7, [r6, #0]
 8001ae2:	43ea      	mvns	r2, r5
 8001ae4:	003e      	movs	r6, r7
 8001ae6:	43ae      	bics	r6, r5
 8001ae8:	684c      	ldr	r4, [r1, #4]
 8001aea:	02e4      	lsls	r4, r4, #11
 8001aec:	d501      	bpl.n	8001af2 <HAL_GPIO_Init+0x72>
 8001aee:	003e      	movs	r6, r7
 8001af0:	432e      	orrs	r6, r5
 8001af2:	4c3c      	ldr	r4, [pc, #240]	@ (8001be4 <HAL_GPIO_Init+0x164>)
 8001af4:	6026      	str	r6, [r4, #0]
 8001af6:	6867      	ldr	r7, [r4, #4]
 8001af8:	003e      	movs	r6, r7
 8001afa:	4016      	ands	r6, r2
 8001afc:	684c      	ldr	r4, [r1, #4]
 8001afe:	02a4      	lsls	r4, r4, #10
 8001b00:	d501      	bpl.n	8001b06 <HAL_GPIO_Init+0x86>
 8001b02:	003e      	movs	r6, r7
 8001b04:	432e      	orrs	r6, r5
 8001b06:	4c37      	ldr	r4, [pc, #220]	@ (8001be4 <HAL_GPIO_Init+0x164>)
 8001b08:	6066      	str	r6, [r4, #4]
 8001b0a:	2684      	movs	r6, #132	@ 0x84
 8001b0c:	59a7      	ldr	r7, [r4, r6]
 8001b0e:	003e      	movs	r6, r7
 8001b10:	4016      	ands	r6, r2
 8001b12:	684c      	ldr	r4, [r1, #4]
 8001b14:	03a4      	lsls	r4, r4, #14
 8001b16:	d501      	bpl.n	8001b1c <HAL_GPIO_Init+0x9c>
 8001b18:	003e      	movs	r6, r7
 8001b1a:	432e      	orrs	r6, r5
 8001b1c:	4c31      	ldr	r4, [pc, #196]	@ (8001be4 <HAL_GPIO_Init+0x164>)
 8001b1e:	2784      	movs	r7, #132	@ 0x84
 8001b20:	51e6      	str	r6, [r4, r7]
 8001b22:	2680      	movs	r6, #128	@ 0x80
 8001b24:	59a6      	ldr	r6, [r4, r6]
 8001b26:	4032      	ands	r2, r6
 8001b28:	684c      	ldr	r4, [r1, #4]
 8001b2a:	03e4      	lsls	r4, r4, #15
 8001b2c:	d501      	bpl.n	8001b32 <HAL_GPIO_Init+0xb2>
 8001b2e:	002a      	movs	r2, r5
 8001b30:	4332      	orrs	r2, r6
 8001b32:	4d2c      	ldr	r5, [pc, #176]	@ (8001be4 <HAL_GPIO_Init+0x164>)
 8001b34:	2480      	movs	r4, #128	@ 0x80
 8001b36:	512a      	str	r2, [r5, r4]
 8001b38:	3301      	adds	r3, #1
 8001b3a:	680c      	ldr	r4, [r1, #0]
 8001b3c:	0022      	movs	r2, r4
 8001b3e:	40da      	lsrs	r2, r3
 8001b40:	d04e      	beq.n	8001be0 <HAL_GPIO_Init+0x160>
 8001b42:	2201      	movs	r2, #1
 8001b44:	409a      	lsls	r2, r3
 8001b46:	0025      	movs	r5, r4
 8001b48:	4015      	ands	r5, r2
 8001b4a:	4214      	tst	r4, r2
 8001b4c:	d0f4      	beq.n	8001b38 <HAL_GPIO_Init+0xb8>
 8001b4e:	684e      	ldr	r6, [r1, #4]
 8001b50:	2403      	movs	r4, #3
 8001b52:	4034      	ands	r4, r6
 8001b54:	3c01      	subs	r4, #1
 8001b56:	2c01      	cmp	r4, #1
 8001b58:	d995      	bls.n	8001a86 <HAL_GPIO_Init+0x6>
 8001b5a:	684c      	ldr	r4, [r1, #4]
 8001b5c:	2203      	movs	r2, #3
 8001b5e:	4022      	ands	r2, r4
 8001b60:	2a03      	cmp	r2, #3
 8001b62:	d008      	beq.n	8001b76 <HAL_GPIO_Init+0xf6>
 8001b64:	68c4      	ldr	r4, [r0, #12]
 8001b66:	005e      	lsls	r6, r3, #1
 8001b68:	2203      	movs	r2, #3
 8001b6a:	40b2      	lsls	r2, r6
 8001b6c:	4394      	bics	r4, r2
 8001b6e:	688a      	ldr	r2, [r1, #8]
 8001b70:	40b2      	lsls	r2, r6
 8001b72:	4322      	orrs	r2, r4
 8001b74:	60c2      	str	r2, [r0, #12]
 8001b76:	684c      	ldr	r4, [r1, #4]
 8001b78:	2203      	movs	r2, #3
 8001b7a:	4022      	ands	r2, r4
 8001b7c:	2a02      	cmp	r2, #2
 8001b7e:	d095      	beq.n	8001aac <HAL_GPIO_Init+0x2c>
 8001b80:	6804      	ldr	r4, [r0, #0]
 8001b82:	005e      	lsls	r6, r3, #1
 8001b84:	2203      	movs	r2, #3
 8001b86:	0017      	movs	r7, r2
 8001b88:	40b7      	lsls	r7, r6
 8001b8a:	43bc      	bics	r4, r7
 8001b8c:	684f      	ldr	r7, [r1, #4]
 8001b8e:	403a      	ands	r2, r7
 8001b90:	40b2      	lsls	r2, r6
 8001b92:	4322      	orrs	r2, r4
 8001b94:	6002      	str	r2, [r0, #0]
 8001b96:	684c      	ldr	r4, [r1, #4]
 8001b98:	22c0      	movs	r2, #192	@ 0xc0
 8001b9a:	0292      	lsls	r2, r2, #10
 8001b9c:	4214      	tst	r4, r2
 8001b9e:	d0cb      	beq.n	8001b38 <HAL_GPIO_Init+0xb8>
 8001ba0:	089a      	lsrs	r2, r3, #2
 8001ba2:	0014      	movs	r4, r2
 8001ba4:	3418      	adds	r4, #24
 8001ba6:	00a4      	lsls	r4, r4, #2
 8001ba8:	4e0e      	ldr	r6, [pc, #56]	@ (8001be4 <HAL_GPIO_Init+0x164>)
 8001baa:	59a7      	ldr	r7, [r4, r6]
 8001bac:	2403      	movs	r4, #3
 8001bae:	401c      	ands	r4, r3
 8001bb0:	00e4      	lsls	r4, r4, #3
 8001bb2:	260f      	movs	r6, #15
 8001bb4:	40a6      	lsls	r6, r4
 8001bb6:	43b7      	bics	r7, r6
 8001bb8:	26a0      	movs	r6, #160	@ 0xa0
 8001bba:	05f6      	lsls	r6, r6, #23
 8001bbc:	42b0      	cmp	r0, r6
 8001bbe:	d087      	beq.n	8001ad0 <HAL_GPIO_Init+0x50>
 8001bc0:	4e09      	ldr	r6, [pc, #36]	@ (8001be8 <HAL_GPIO_Init+0x168>)
 8001bc2:	42b0      	cmp	r0, r6
 8001bc4:	d008      	beq.n	8001bd8 <HAL_GPIO_Init+0x158>
 8001bc6:	4e09      	ldr	r6, [pc, #36]	@ (8001bec <HAL_GPIO_Init+0x16c>)
 8001bc8:	42b0      	cmp	r0, r6
 8001bca:	d007      	beq.n	8001bdc <HAL_GPIO_Init+0x15c>
 8001bcc:	4e08      	ldr	r6, [pc, #32]	@ (8001bf0 <HAL_GPIO_Init+0x170>)
 8001bce:	42b0      	cmp	r0, r6
 8001bd0:	d100      	bne.n	8001bd4 <HAL_GPIO_Init+0x154>
 8001bd2:	e77b      	b.n	8001acc <HAL_GPIO_Init+0x4c>
 8001bd4:	2605      	movs	r6, #5
 8001bd6:	e77c      	b.n	8001ad2 <HAL_GPIO_Init+0x52>
 8001bd8:	2601      	movs	r6, #1
 8001bda:	e77a      	b.n	8001ad2 <HAL_GPIO_Init+0x52>
 8001bdc:	2602      	movs	r6, #2
 8001bde:	e778      	b.n	8001ad2 <HAL_GPIO_Init+0x52>
 8001be0:	bdf0      	pop	{r4, r5, r6, r7, pc}
 8001be2:	46c0      	nop			@ (mov r8, r8)
 8001be4:	40021800 	.word	0x40021800
 8001be8:	50000400 	.word	0x50000400
 8001bec:	50000800 	.word	0x50000800
 8001bf0:	50000c00 	.word	0x50000c00

08001bf4 <I2C_Flush_TXDR>:
 8001bf4:	6802      	ldr	r2, [r0, #0]
 8001bf6:	6993      	ldr	r3, [r2, #24]
 8001bf8:	079b      	lsls	r3, r3, #30
 8001bfa:	d501      	bpl.n	8001c00 <I2C_Flush_TXDR+0xc>
 8001bfc:	2300      	movs	r3, #0
 8001bfe:	6293      	str	r3, [r2, #40]	@ 0x28
 8001c00:	6803      	ldr	r3, [r0, #0]
 8001c02:	699a      	ldr	r2, [r3, #24]
 8001c04:	07d2      	lsls	r2, r2, #31
 8001c06:	d403      	bmi.n	8001c10 <I2C_Flush_TXDR+0x1c>
 8001c08:	699a      	ldr	r2, [r3, #24]
 8001c0a:	2101      	movs	r1, #1
 8001c0c:	430a      	orrs	r2, r1
 8001c0e:	619a      	str	r2, [r3, #24]
 8001c10:	4770      	bx	lr
	...

08001c14 <I2C_TransferConfig>:
 8001c14:	b510      	push	{r4, lr}
 8001c16:	0589      	lsls	r1, r1, #22
 8001c18:	0d89      	lsrs	r1, r1, #22
 8001c1a:	0412      	lsls	r2, r2, #16
 8001c1c:	4311      	orrs	r1, r2
 8001c1e:	4319      	orrs	r1, r3
 8001c20:	9b02      	ldr	r3, [sp, #8]
 8001c22:	4319      	orrs	r1, r3
 8001c24:	0049      	lsls	r1, r1, #1
 8001c26:	0849      	lsrs	r1, r1, #1
 8001c28:	6804      	ldr	r4, [r0, #0]
 8001c2a:	6862      	ldr	r2, [r4, #4]
 8001c2c:	0d5b      	lsrs	r3, r3, #21
 8001c2e:	2080      	movs	r0, #128	@ 0x80
 8001c30:	00c0      	lsls	r0, r0, #3
 8001c32:	4003      	ands	r3, r0
 8001c34:	4803      	ldr	r0, [pc, #12]	@ (8001c44 <I2C_TransferConfig+0x30>)
 8001c36:	4303      	orrs	r3, r0
 8001c38:	439a      	bics	r2, r3
 8001c3a:	0013      	movs	r3, r2
 8001c3c:	430b      	orrs	r3, r1
 8001c3e:	6063      	str	r3, [r4, #4]
 8001c40:	bd10      	pop	{r4, pc}
 8001c42:	46c0      	nop			@ (mov r8, r8)
 8001c44:	03ff63ff 	.word	0x03ff63ff

08001c48 <I2C_IsErrorOccurred>:
 8001c48:	b5f0      	push	{r4, r5, r6, r7, lr}
 8001c4a:	46c6      	mov	lr, r8
 8001c4c:	b500      	push	{lr}
 8001c4e:	0004      	movs	r4, r0
 8001c50:	000d      	movs	r5, r1
 8001c52:	0017      	movs	r7, r2
 8001c54:	6801      	ldr	r1, [r0, #0]
 8001c56:	698b      	ldr	r3, [r1, #24]
 8001c58:	2210      	movs	r2, #16
 8001c5a:	0016      	movs	r6, r2
 8001c5c:	401e      	ands	r6, r3
 8001c5e:	421a      	tst	r2, r3
 8001c60:	d100      	bne.n	8001c64 <I2C_IsErrorOccurred+0x1c>
 8001c62:	e075      	b.n	8001d50 <I2C_IsErrorOccurred+0x108>
 8001c64:	2310      	movs	r3, #16
 8001c66:	61cb      	str	r3, [r1, #28]
 8001c68:	2300      	movs	r3, #0
 8001c6a:	4698      	mov	r8, r3
 8001c6c:	2600      	movs	r6, #0
 8001c6e:	6820      	ldr	r0, [r4, #0]
 8001c70:	6983      	ldr	r3, [r0, #24]
 8001c72:	069b      	lsls	r3, r3, #26
 8001c74:	d431      	bmi.n	8001cda <I2C_IsErrorOccurred+0x92>
 8001c76:	2e00      	cmp	r6, #0
 8001c78:	d12f      	bne.n	8001cda <I2C_IsErrorOccurred+0x92>
 8001c7a:	1c6b      	adds	r3, r5, #1
 8001c7c:	d0f7      	beq.n	8001c6e <I2C_IsErrorOccurred+0x26>
 8001c7e:	f7ff fd25 	bl	80016cc <HAL_GetTick>
 8001c82:	1bc0      	subs	r0, r0, r7
 8001c84:	42a8      	cmp	r0, r5
 8001c86:	d801      	bhi.n	8001c8c <I2C_IsErrorOccurred+0x44>
 8001c88:	2d00      	cmp	r5, #0
 8001c8a:	d1f0      	bne.n	8001c6e <I2C_IsErrorOccurred+0x26>
 8001c8c:	6821      	ldr	r1, [r4, #0]
 8001c8e:	684b      	ldr	r3, [r1, #4]
 8001c90:	2280      	movs	r2, #128	@ 0x80
 8001c92:	01d2      	lsls	r2, r2, #7
 8001c94:	4013      	ands	r3, r2
 8001c96:	2242      	movs	r2, #66	@ 0x42
 8001c98:	5ca2      	ldrb	r2, [r4, r2]
 8001c9a:	b2d2      	uxtb	r2, r2
 8001c9c:	6988      	ldr	r0, [r1, #24]
 8001c9e:	0400      	lsls	r0, r0, #16
 8001ca0:	d503      	bpl.n	8001caa <I2C_IsErrorOccurred+0x62>
 8001ca2:	2b00      	cmp	r3, #0
 8001ca4:	d101      	bne.n	8001caa <I2C_IsErrorOccurred+0x62>
 8001ca6:	2a20      	cmp	r2, #32
 8001ca8:	d10e      	bne.n	8001cc8 <I2C_IsErrorOccurred+0x80>
 8001caa:	6823      	ldr	r3, [r4, #0]
 8001cac:	699b      	ldr	r3, [r3, #24]
 8001cae:	069b      	lsls	r3, r3, #26
 8001cb0:	d4dd      	bmi.n	8001c6e <I2C_IsErrorOccurred+0x26>
 8001cb2:	f7ff fd0b 	bl	80016cc <HAL_GetTick>
 8001cb6:	1bc0      	subs	r0, r0, r7
 8001cb8:	2819      	cmp	r0, #25
 8001cba:	d9f6      	bls.n	8001caa <I2C_IsErrorOccurred+0x62>
 8001cbc:	2320      	movs	r3, #32
 8001cbe:	4642      	mov	r2, r8
 8001cc0:	431a      	orrs	r2, r3
 8001cc2:	4690      	mov	r8, r2
 8001cc4:	2601      	movs	r6, #1
 8001cc6:	e7d2      	b.n	8001c6e <I2C_IsErrorOccurred+0x26>
 8001cc8:	684a      	ldr	r2, [r1, #4]
 8001cca:	2380      	movs	r3, #128	@ 0x80
 8001ccc:	01db      	lsls	r3, r3, #7
 8001cce:	4313      	orrs	r3, r2
 8001cd0:	604b      	str	r3, [r1, #4]
 8001cd2:	f7ff fcfb 	bl	80016cc <HAL_GetTick>
 8001cd6:	0007      	movs	r7, r0
 8001cd8:	e7e7      	b.n	8001caa <I2C_IsErrorOccurred+0x62>
 8001cda:	2e00      	cmp	r6, #0
 8001cdc:	d101      	bne.n	8001ce2 <I2C_IsErrorOccurred+0x9a>
 8001cde:	2320      	movs	r3, #32
 8001ce0:	61c3      	str	r3, [r0, #28]
 8001ce2:	2604      	movs	r6, #4
 8001ce4:	4643      	mov	r3, r8
 8001ce6:	4333      	orrs	r3, r6
 8001ce8:	001e      	movs	r6, r3
 8001cea:	2501      	movs	r5, #1
 8001cec:	6822      	ldr	r2, [r4, #0]
 8001cee:	6993      	ldr	r3, [r2, #24]
 8001cf0:	05d9      	lsls	r1, r3, #23
 8001cf2:	d504      	bpl.n	8001cfe <I2C_IsErrorOccurred+0xb6>
 8001cf4:	2101      	movs	r1, #1
 8001cf6:	430e      	orrs	r6, r1
 8001cf8:	31ff      	adds	r1, #255	@ 0xff
 8001cfa:	61d1      	str	r1, [r2, #28]
 8001cfc:	2501      	movs	r5, #1
 8001cfe:	055a      	lsls	r2, r3, #21
 8001d00:	d506      	bpl.n	8001d10 <I2C_IsErrorOccurred+0xc8>
 8001d02:	2208      	movs	r2, #8
 8001d04:	4316      	orrs	r6, r2
 8001d06:	6822      	ldr	r2, [r4, #0]
 8001d08:	2180      	movs	r1, #128	@ 0x80
 8001d0a:	00c9      	lsls	r1, r1, #3
 8001d0c:	61d1      	str	r1, [r2, #28]
 8001d0e:	2501      	movs	r5, #1
 8001d10:	059b      	lsls	r3, r3, #22
 8001d12:	d51f      	bpl.n	8001d54 <I2C_IsErrorOccurred+0x10c>
 8001d14:	2302      	movs	r3, #2
 8001d16:	431e      	orrs	r6, r3
 8001d18:	6823      	ldr	r3, [r4, #0]
 8001d1a:	2280      	movs	r2, #128	@ 0x80
 8001d1c:	0092      	lsls	r2, r2, #2
 8001d1e:	61da      	str	r2, [r3, #28]
 8001d20:	2501      	movs	r5, #1
 8001d22:	0020      	movs	r0, r4
 8001d24:	f7ff ff66 	bl	8001bf4 <I2C_Flush_TXDR>
 8001d28:	6822      	ldr	r2, [r4, #0]
 8001d2a:	6853      	ldr	r3, [r2, #4]
 8001d2c:	490b      	ldr	r1, [pc, #44]	@ (8001d5c <I2C_IsErrorOccurred+0x114>)
 8001d2e:	400b      	ands	r3, r1
 8001d30:	6053      	str	r3, [r2, #4]
 8001d32:	6c63      	ldr	r3, [r4, #68]	@ 0x44
 8001d34:	4333      	orrs	r3, r6
 8001d36:	6463      	str	r3, [r4, #68]	@ 0x44
 8001d38:	2341      	movs	r3, #65	@ 0x41
 8001d3a:	2220      	movs	r2, #32
 8001d3c:	54e2      	strb	r2, [r4, r3]
 8001d3e:	2300      	movs	r3, #0
 8001d40:	3222      	adds	r2, #34	@ 0x22
 8001d42:	54a3      	strb	r3, [r4, r2]
 8001d44:	3a02      	subs	r2, #2
 8001d46:	54a3      	strb	r3, [r4, r2]
 8001d48:	0028      	movs	r0, r5
 8001d4a:	bc80      	pop	{r7}
 8001d4c:	46b8      	mov	r8, r7
 8001d4e:	bdf0      	pop	{r4, r5, r6, r7, pc}
 8001d50:	2500      	movs	r5, #0
 8001d52:	e7cb      	b.n	8001cec <I2C_IsErrorOccurred+0xa4>
 8001d54:	2d00      	cmp	r5, #0
 8001d56:	d0f7      	beq.n	8001d48 <I2C_IsErrorOccurred+0x100>
 8001d58:	e7e3      	b.n	8001d22 <I2C_IsErrorOccurred+0xda>
 8001d5a:	46c0      	nop			@ (mov r8, r8)
 8001d5c:	fe00e800 	.word	0xfe00e800

08001d60 <I2C_WaitOnTXISFlagUntilTimeout>:
 8001d60:	b570      	push	{r4, r5, r6, lr}
 8001d62:	0004      	movs	r4, r0
 8001d64:	000d      	movs	r5, r1
 8001d66:	0016      	movs	r6, r2
 8001d68:	6823      	ldr	r3, [r4, #0]
 8001d6a:	699b      	ldr	r3, [r3, #24]
 8001d6c:	079b      	lsls	r3, r3, #30
 8001d6e:	d420      	bmi.n	8001db2 <I2C_WaitOnTXISFlagUntilTimeout+0x52>
 8001d70:	0032      	movs	r2, r6
 8001d72:	0029      	movs	r1, r5
 8001d74:	0020      	movs	r0, r4
 8001d76:	f7ff ff67 	bl	8001c48 <I2C_IsErrorOccurred>
 8001d7a:	2800      	cmp	r0, #0
 8001d7c:	d11b      	bne.n	8001db6 <I2C_WaitOnTXISFlagUntilTimeout+0x56>
 8001d7e:	1c6b      	adds	r3, r5, #1
 8001d80:	d0f2      	beq.n	8001d68 <I2C_WaitOnTXISFlagUntilTimeout+0x8>
 8001d82:	f7ff fca3 	bl	80016cc <HAL_GetTick>
 8001d86:	1b80      	subs	r0, r0, r6
 8001d88:	42a8      	cmp	r0, r5
 8001d8a:	d801      	bhi.n	8001d90 <I2C_WaitOnTXISFlagUntilTimeout+0x30>
 8001d8c:	2d00      	cmp	r5, #0
 8001d8e:	d1eb      	bne.n	8001d68 <I2C_WaitOnTXISFlagUntilTimeout+0x8>
 8001d90:	6823      	ldr	r3, [r4, #0]
 8001d92:	699b      	ldr	r3, [r3, #24]
 8001d94:	079b      	lsls	r3, r3, #30
 8001d96:	d4e7      	bmi.n	8001d68 <I2C_WaitOnTXISFlagUntilTimeout+0x8>
 8001d98:	6c63      	ldr	r3, [r4, #68]	@ 0x44
 8001d9a:	2220      	movs	r2, #32
 8001d9c:	4313      	orrs	r3, r2
 8001d9e:	6463      	str	r3, [r4, #68]	@ 0x44
 8001da0:	2341      	movs	r3, #65	@ 0x41
 8001da2:	54e2      	strb	r2, [r4, r3]
 8001da4:	2300      	movs	r3, #0
 8001da6:	3222      	adds	r2, #34	@ 0x22
 8001da8:	54a3      	strb	r3, [r4, r2]
 8001daa:	3a02      	subs	r2, #2
 8001dac:	54a3      	strb	r3, [r4, r2]
 8001dae:	2001      	movs	r0, #1
 8001db0:	e000      	b.n	8001db4 <I2C_WaitOnTXISFlagUntilTimeout+0x54>
 8001db2:	2000      	movs	r0, #0
 8001db4:	bd70      	pop	{r4, r5, r6, pc}
 8001db6:	2001      	movs	r0, #1
 8001db8:	e7fc      	b.n	8001db4 <I2C_WaitOnTXISFlagUntilTimeout+0x54>

08001dba <I2C_WaitOnFlagUntilTimeout>:
 8001dba:	b5f0      	push	{r4, r5, r6, r7, lr}
 8001dbc:	46d6      	mov	lr, sl
 8001dbe:	464f      	mov	r7, r9
 8001dc0:	b580      	push	{r7, lr}
 8001dc2:	b083      	sub	sp, #12
 8001dc4:	0007      	movs	r7, r0
 8001dc6:	000d      	movs	r5, r1
 8001dc8:	0016      	movs	r6, r2
 8001dca:	4699      	mov	r9, r3
 8001dcc:	9b0a      	ldr	r3, [sp, #40]	@ 0x28
 8001dce:	469a      	mov	sl, r3
 8001dd0:	683b      	ldr	r3, [r7, #0]
 8001dd2:	699c      	ldr	r4, [r3, #24]
 8001dd4:	402c      	ands	r4, r5
 8001dd6:	1b64      	subs	r4, r4, r5
 8001dd8:	4263      	negs	r3, r4
 8001dda:	415c      	adcs	r4, r3
 8001ddc:	9601      	str	r6, [sp, #4]
 8001dde:	42b4      	cmp	r4, r6
 8001de0:	d128      	bne.n	8001e34 <I2C_WaitOnFlagUntilTimeout+0x7a>
 8001de2:	4652      	mov	r2, sl
 8001de4:	4649      	mov	r1, r9
 8001de6:	0038      	movs	r0, r7
 8001de8:	f7ff ff2e 	bl	8001c48 <I2C_IsErrorOccurred>
 8001dec:	2800      	cmp	r0, #0
 8001dee:	d127      	bne.n	8001e40 <I2C_WaitOnFlagUntilTimeout+0x86>
 8001df0:	464b      	mov	r3, r9
 8001df2:	3301      	adds	r3, #1
 8001df4:	d0ec      	beq.n	8001dd0 <I2C_WaitOnFlagUntilTimeout+0x16>
 8001df6:	f7ff fc69 	bl	80016cc <HAL_GetTick>
 8001dfa:	4653      	mov	r3, sl
 8001dfc:	1ac0      	subs	r0, r0, r3
 8001dfe:	4548      	cmp	r0, r9
 8001e00:	d802      	bhi.n	8001e08 <I2C_WaitOnFlagUntilTimeout+0x4e>
 8001e02:	464b      	mov	r3, r9
 8001e04:	2b00      	cmp	r3, #0
 8001e06:	d1e3      	bne.n	8001dd0 <I2C_WaitOnFlagUntilTimeout+0x16>
 8001e08:	683b      	ldr	r3, [r7, #0]
 8001e0a:	699b      	ldr	r3, [r3, #24]
 8001e0c:	402b      	ands	r3, r5
 8001e0e:	1b5b      	subs	r3, r3, r5
 8001e10:	425a      	negs	r2, r3
 8001e12:	4153      	adcs	r3, r2
 8001e14:	9a01      	ldr	r2, [sp, #4]
 8001e16:	4293      	cmp	r3, r2
 8001e18:	d1da      	bne.n	8001dd0 <I2C_WaitOnFlagUntilTimeout+0x16>
 8001e1a:	6c7b      	ldr	r3, [r7, #68]	@ 0x44
 8001e1c:	2220      	movs	r2, #32
 8001e1e:	4313      	orrs	r3, r2
 8001e20:	647b      	str	r3, [r7, #68]	@ 0x44
 8001e22:	2341      	movs	r3, #65	@ 0x41
 8001e24:	54fa      	strb	r2, [r7, r3]
 8001e26:	2300      	movs	r3, #0
 8001e28:	3222      	adds	r2, #34	@ 0x22
 8001e2a:	54bb      	strb	r3, [r7, r2]
 8001e2c:	3a02      	subs	r2, #2
 8001e2e:	54bb      	strb	r3, [r7, r2]
 8001e30:	2001      	movs	r0, #1
 8001e32:	e000      	b.n	8001e36 <I2C_WaitOnFlagUntilTimeout+0x7c>
 8001e34:	2000      	movs	r0, #0
 8001e36:	b003      	add	sp, #12
 8001e38:	bcc0      	pop	{r6, r7}
 8001e3a:	46ba      	mov	sl, r7
 8001e3c:	46b1      	mov	r9, r6
 8001e3e:	bdf0      	pop	{r4, r5, r6, r7, pc}
 8001e40:	2001      	movs	r0, #1
 8001e42:	e7f8      	b.n	8001e36 <I2C_WaitOnFlagUntilTimeout+0x7c>

08001e44 <I2C_RequestMemoryWrite>:
 8001e44:	b570      	push	{r4, r5, r6, lr}
 8001e46:	b082      	sub	sp, #8
 8001e48:	0004      	movs	r4, r0
 8001e4a:	0015      	movs	r5, r2
 8001e4c:	001e      	movs	r6, r3
 8001e4e:	2380      	movs	r3, #128	@ 0x80
 8001e50:	b2f2      	uxtb	r2, r6
 8001e52:	4819      	ldr	r0, [pc, #100]	@ (8001eb8 <I2C_RequestMemoryWrite+0x74>)
 8001e54:	9000      	str	r0, [sp, #0]
 8001e56:	045b      	lsls	r3, r3, #17
 8001e58:	0020      	movs	r0, r4
 8001e5a:	f7ff fedb 	bl	8001c14 <I2C_TransferConfig>
 8001e5e:	9a07      	ldr	r2, [sp, #28]
 8001e60:	9906      	ldr	r1, [sp, #24]
 8001e62:	0020      	movs	r0, r4
 8001e64:	f7ff ff7c 	bl	8001d60 <I2C_WaitOnTXISFlagUntilTimeout>
 8001e68:	2800      	cmp	r0, #0
 8001e6a:	d11e      	bne.n	8001eaa <I2C_RequestMemoryWrite+0x66>
 8001e6c:	2e01      	cmp	r6, #1
 8001e6e:	d10e      	bne.n	8001e8e <I2C_RequestMemoryWrite+0x4a>
 8001e70:	6823      	ldr	r3, [r4, #0]
 8001e72:	b2ed      	uxtb	r5, r5
 8001e74:	629d      	str	r5, [r3, #40]	@ 0x28
 8001e76:	9b07      	ldr	r3, [sp, #28]
 8001e78:	9300      	str	r3, [sp, #0]
 8001e7a:	9b06      	ldr	r3, [sp, #24]
 8001e7c:	2200      	movs	r2, #0
 8001e7e:	2180      	movs	r1, #128	@ 0x80
 8001e80:	0020      	movs	r0, r4
 8001e82:	f7ff ff9a 	bl	8001dba <I2C_WaitOnFlagUntilTimeout>
 8001e86:	2800      	cmp	r0, #0
 8001e88:	d113      	bne.n	8001eb2 <I2C_RequestMemoryWrite+0x6e>
 8001e8a:	b002      	add	sp, #8
 8001e8c:	bd70      	pop	{r4, r5, r6, pc}
 8001e8e:	6823      	ldr	r3, [r4, #0]
 8001e90:	0a2a      	lsrs	r2, r5, #8
 8001e92:	629a      	str	r2, [r3, #40]	@ 0x28
 8001e94:	9a07      	ldr	r2, [sp, #28]
 8001e96:	9906      	ldr	r1, [sp, #24]
 8001e98:	0020      	movs	r0, r4
 8001e9a:	f7ff ff61 	bl	8001d60 <I2C_WaitOnTXISFlagUntilTimeout>
 8001e9e:	2800      	cmp	r0, #0
 8001ea0:	d105      	bne.n	8001eae <I2C_RequestMemoryWrite+0x6a>
 8001ea2:	6823      	ldr	r3, [r4, #0]
 8001ea4:	b2ed      	uxtb	r5, r5
 8001ea6:	629d      	str	r5, [r3, #40]	@ 0x28
 8001ea8:	e7e5      	b.n	8001e76 <I2C_RequestMemoryWrite+0x32>
 8001eaa:	2001      	movs	r0, #1
 8001eac:	e7ed      	b.n	8001e8a <I2C_RequestMemoryWrite+0x46>
 8001eae:	2001      	movs	r0, #1
 8001eb0:	e7eb      	b.n	8001e8a <I2C_RequestMemoryWrite+0x46>
 8001eb2:	2001      	movs	r0, #1
 8001eb4:	e7e9      	b.n	8001e8a <I2C_RequestMemoryWrite+0x46>
 8001eb6:	46c0      	nop			@ (mov r8, r8)
 8001eb8:	80002000 	.word	0x80002000

08001ebc <I2C_RequestMemoryRead>:
 8001ebc:	b570      	push	{r4, r5, r6, lr}
 8001ebe:	b082      	sub	sp, #8
 8001ec0:	0004      	movs	r4, r0
 8001ec2:	0015      	movs	r5, r2
 8001ec4:	001e      	movs	r6, r3
 8001ec6:	b2da      	uxtb	r2, r3
 8001ec8:	4b18      	ldr	r3, [pc, #96]	@ (8001f2c <I2C_RequestMemoryRead+0x70>)
 8001eca:	9300      	str	r3, [sp, #0]
 8001ecc:	2300      	movs	r3, #0
 8001ece:	f7ff fea1 	bl	8001c14 <I2C_TransferConfig>
 8001ed2:	9a07      	ldr	r2, [sp, #28]
 8001ed4:	9906      	ldr	r1, [sp, #24]
 8001ed6:	0020      	movs	r0, r4
 8001ed8:	f7ff ff42 	bl	8001d60 <I2C_WaitOnTXISFlagUntilTimeout>
 8001edc:	2800      	cmp	r0, #0
 8001ede:	d11e      	bne.n	8001f1e <I2C_RequestMemoryRead+0x62>
 8001ee0:	2e01      	cmp	r6, #1
 8001ee2:	d10e      	bne.n	8001f02 <I2C_RequestMemoryRead+0x46>
 8001ee4:	6823      	ldr	r3, [r4, #0]
 8001ee6:	b2ed      	uxtb	r5, r5
 8001ee8:	629d      	str	r5, [r3, #40]	@ 0x28
 8001eea:	9b07      	ldr	r3, [sp, #28]
 8001eec:	9300      	str	r3, [sp, #0]
 8001eee:	9b06      	ldr	r3, [sp, #24]
 8001ef0:	2200      	movs	r2, #0
 8001ef2:	2140      	movs	r1, #64	@ 0x40
 8001ef4:	0020      	movs	r0, r4
 8001ef6:	f7ff ff60 	bl	8001dba <I2C_WaitOnFlagUntilTimeout>
 8001efa:	2800      	cmp	r0, #0
 8001efc:	d113      	bne.n	8001f26 <I2C_RequestMemoryRead+0x6a>
 8001efe:	b002      	add	sp, #8
 8001f00:	bd70      	pop	{r4, r5, r6, pc}
 8001f02:	6823      	ldr	r3, [r4, #0]
 8001f04:	0a2a      	lsrs	r2, r5, #8
 8001f06:	629a      	str	r2, [r3, #40]	@ 0x28
 8001f08:	9a07      	ldr	r2, [sp, #28]
 8001f0a:	9906      	ldr	r1, [sp, #24]
 8001f0c:	0020      	movs	r0, r4
 8001f0e:	f7ff ff27 	bl	8001d60 <I2C_WaitOnTXISFlagUntilTimeout>
 8001f12:	2800      	cmp	r0, #0
 8001f14:	d105      	bne.n	8001f22 <I2C_RequestMemoryRead+0x66>
 8001f16:	6823      	ldr	r3, [r4, #0]
 8001f18:	b2ed      	uxtb	r5, r5
 8001f1a:	629d      	str	r5, [r3, #40]	@ 0x28
 8001f1c:	e7e5      	b.n	8001eea <I2C_RequestMemoryRead+0x2e>
 8001f1e:	2001      	movs	r0, #1
 8001f20:	e7ed      	b.n	8001efe <I2C_RequestMemoryRead+0x42>
 8001f22:	2001      	movs	r0, #1
 8001f24:	e7eb      	b.n	8001efe <I2C_RequestMemoryRead+0x42>
 8001f26:	2001      	movs	r0, #1
 8001f28:	e7e9      	b.n	8001efe <I2C_RequestMemoryRead+0x42>
 8001f2a:	46c0      	nop			@ (mov r8, r8)
 8001f2c:	80002000 	.word	0x80002000

08001f30 <I2C_WaitOnSTOPFlagUntilTimeout>:
 8001f30:	b570      	push	{r4, r5, r6, lr}
 8001f32:	0004      	movs	r4, r0
 8001f34:	000d      	movs	r5, r1
 8001f36:	0016      	movs	r6, r2
 8001f38:	e003      	b.n	8001f42 <I2C_WaitOnSTOPFlagUntilTimeout+0x12>
 8001f3a:	6823      	ldr	r3, [r4, #0]
 8001f3c:	699b      	ldr	r3, [r3, #24]
 8001f3e:	069b      	lsls	r3, r3, #26
 8001f40:	d512      	bpl.n	8001f68 <I2C_WaitOnSTOPFlagUntilTimeout+0x38>
 8001f42:	6823      	ldr	r3, [r4, #0]
 8001f44:	699b      	ldr	r3, [r3, #24]
 8001f46:	069b      	lsls	r3, r3, #26
 8001f48:	d41b      	bmi.n	8001f82 <I2C_WaitOnSTOPFlagUntilTimeout+0x52>
 8001f4a:	0032      	movs	r2, r6
 8001f4c:	0029      	movs	r1, r5
 8001f4e:	0020      	movs	r0, r4
 8001f50:	f7ff fe7a 	bl	8001c48 <I2C_IsErrorOccurred>
 8001f54:	2800      	cmp	r0, #0
 8001f56:	d116      	bne.n	8001f86 <I2C_WaitOnSTOPFlagUntilTimeout+0x56>
 8001f58:	f7ff fbb8 	bl	80016cc <HAL_GetTick>
 8001f5c:	1b80      	subs	r0, r0, r6
 8001f5e:	42a8      	cmp	r0, r5
 8001f60:	d8eb      	bhi.n	8001f3a <I2C_WaitOnSTOPFlagUntilTimeout+0xa>
 8001f62:	2d00      	cmp	r5, #0
 8001f64:	d1ed      	bne.n	8001f42 <I2C_WaitOnSTOPFlagUntilTimeout+0x12>
 8001f66:	e7e8      	b.n	8001f3a <I2C_WaitOnSTOPFlagUntilTimeout+0xa>
 8001f68:	6c63      	ldr	r3, [r4, #68]	@ 0x44
 8001f6a:	2220      	movs	r2, #32
 8001f6c:	4313      	orrs	r3, r2
 8001f6e:	6463      	str	r3, [r4, #68]	@ 0x44
 8001f70:	2341      	movs	r3, #65	@ 0x41
 8001f72:	54e2      	strb	r2, [r4, r3]
 8001f74:	2300      	movs	r3, #0
 8001f76:	3222      	adds	r2, #34	@ 0x22
 8001f78:	54a3      	strb	r3, [r4, r2]
 8001f7a:	3a02      	subs	r2, #2
 8001f7c:	54a3      	strb	r3, [r4, r2]
 8001f7e:	2001      	movs	r0, #1
 8001f80:	e000      	b.n	8001f84 <I2C_WaitOnSTOPFlagUntilTimeout+0x54>
 8001f82:	2000      	movs	r0, #0
 8001f84:	bd70      	pop	{r4, r5, r6, pc}
 8001f86:	2001      	movs	r0, #1
 8001f88:	e7fc      	b.n	8001f84 <I2C_WaitOnSTOPFlagUntilTimeout+0x54>
	...

08001f8c <HAL_I2C_Init>:
 8001f8c:	b510      	push	{r4, lr}
 8001f8e:	1e04      	subs	r4, r0, #0
 8001f90:	d060      	beq.n	8002054 <HAL_I2C_Init+0xc8>
 8001f92:	2341      	movs	r3, #65	@ 0x41
 8001f94:	5cc3      	ldrb	r3, [r0, r3]
 8001f96:	2b00      	cmp	r3, #0
 8001f98:	d048      	beq.n	800202c <HAL_I2C_Init+0xa0>
 8001f9a:	2341      	movs	r3, #65	@ 0x41
 8001f9c:	2224      	movs	r2, #36	@ 0x24
 8001f9e:	54e2      	strb	r2, [r4, r3]
 8001fa0:	6822      	ldr	r2, [r4, #0]
 8001fa2:	6813      	ldr	r3, [r2, #0]
 8001fa4:	2101      	movs	r1, #1
 8001fa6:	438b      	bics	r3, r1
 8001fa8:	6013      	str	r3, [r2, #0]
 8001faa:	6863      	ldr	r3, [r4, #4]
 8001fac:	6822      	ldr	r2, [r4, #0]
 8001fae:	492a      	ldr	r1, [pc, #168]	@ (8002058 <HAL_I2C_Init+0xcc>)
 8001fb0:	400b      	ands	r3, r1
 8001fb2:	6113      	str	r3, [r2, #16]
 8001fb4:	6822      	ldr	r2, [r4, #0]
 8001fb6:	6893      	ldr	r3, [r2, #8]
 8001fb8:	4928      	ldr	r1, [pc, #160]	@ (800205c <HAL_I2C_Init+0xd0>)
 8001fba:	400b      	ands	r3, r1
 8001fbc:	6093      	str	r3, [r2, #8]
 8001fbe:	68e3      	ldr	r3, [r4, #12]
 8001fc0:	2b01      	cmp	r3, #1
 8001fc2:	d039      	beq.n	8002038 <HAL_I2C_Init+0xac>
 8001fc4:	68a1      	ldr	r1, [r4, #8]
 8001fc6:	6822      	ldr	r2, [r4, #0]
 8001fc8:	2384      	movs	r3, #132	@ 0x84
 8001fca:	021b      	lsls	r3, r3, #8
 8001fcc:	430b      	orrs	r3, r1
 8001fce:	6093      	str	r3, [r2, #8]
 8001fd0:	68e3      	ldr	r3, [r4, #12]
 8001fd2:	2b02      	cmp	r3, #2
 8001fd4:	d037      	beq.n	8002046 <HAL_I2C_Init+0xba>
 8001fd6:	6822      	ldr	r2, [r4, #0]
 8001fd8:	6853      	ldr	r3, [r2, #4]
 8001fda:	4921      	ldr	r1, [pc, #132]	@ (8002060 <HAL_I2C_Init+0xd4>)
 8001fdc:	400b      	ands	r3, r1
 8001fde:	6053      	str	r3, [r2, #4]
 8001fe0:	6822      	ldr	r2, [r4, #0]
 8001fe2:	6851      	ldr	r1, [r2, #4]
 8001fe4:	4b1f      	ldr	r3, [pc, #124]	@ (8002064 <HAL_I2C_Init+0xd8>)
 8001fe6:	430b      	orrs	r3, r1
 8001fe8:	6053      	str	r3, [r2, #4]
 8001fea:	6822      	ldr	r2, [r4, #0]
 8001fec:	68d3      	ldr	r3, [r2, #12]
 8001fee:	491b      	ldr	r1, [pc, #108]	@ (800205c <HAL_I2C_Init+0xd0>)
 8001ff0:	400b      	ands	r3, r1
 8001ff2:	60d3      	str	r3, [r2, #12]
 8001ff4:	6923      	ldr	r3, [r4, #16]
 8001ff6:	6962      	ldr	r2, [r4, #20]
 8001ff8:	4313      	orrs	r3, r2
 8001ffa:	69a2      	ldr	r2, [r4, #24]
 8001ffc:	0212      	lsls	r2, r2, #8
 8001ffe:	6821      	ldr	r1, [r4, #0]
 8002000:	4313      	orrs	r3, r2
 8002002:	60cb      	str	r3, [r1, #12]
 8002004:	69e3      	ldr	r3, [r4, #28]
 8002006:	6a21      	ldr	r1, [r4, #32]
 8002008:	6822      	ldr	r2, [r4, #0]
 800200a:	430b      	orrs	r3, r1
 800200c:	6013      	str	r3, [r2, #0]
 800200e:	6822      	ldr	r2, [r4, #0]
 8002010:	6813      	ldr	r3, [r2, #0]
 8002012:	2101      	movs	r1, #1
 8002014:	430b      	orrs	r3, r1
 8002016:	6013      	str	r3, [r2, #0]
 8002018:	2300      	movs	r3, #0
 800201a:	6463      	str	r3, [r4, #68]	@ 0x44
 800201c:	2241      	movs	r2, #65	@ 0x41
 800201e:	311f      	adds	r1, #31
 8002020:	54a1      	strb	r1, [r4, r2]
 8002022:	6323      	str	r3, [r4, #48]	@ 0x30
 8002024:	3201      	adds	r2, #1
 8002026:	54a3      	strb	r3, [r4, r2]
 8002028:	2000      	movs	r0, #0
 800202a:	bd10      	pop	{r4, pc}
 800202c:	3340      	adds	r3, #64	@ 0x40
 800202e:	2200      	movs	r2, #0
 8002030:	54c2      	strb	r2, [r0, r3]
 8002032:	f7fe fb7d 	bl	8000730 <HAL_I2C_MspInit>
 8002036:	e7b0      	b.n	8001f9a <HAL_I2C_Init+0xe>
 8002038:	68a1      	ldr	r1, [r4, #8]
 800203a:	6822      	ldr	r2, [r4, #0]
 800203c:	2380      	movs	r3, #128	@ 0x80
 800203e:	021b      	lsls	r3, r3, #8
 8002040:	430b      	orrs	r3, r1
 8002042:	6093      	str	r3, [r2, #8]
 8002044:	e7c4      	b.n	8001fd0 <HAL_I2C_Init+0x44>
 8002046:	6822      	ldr	r2, [r4, #0]
 8002048:	6851      	ldr	r1, [r2, #4]
 800204a:	2380      	movs	r3, #128	@ 0x80
 800204c:	011b      	lsls	r3, r3, #4
 800204e:	430b      	orrs	r3, r1
 8002050:	6053      	str	r3, [r2, #4]
 8002052:	e7c5      	b.n	8001fe0 <HAL_I2C_Init+0x54>
 8002054:	2001      	movs	r0, #1
 8002056:	e7e8      	b.n	800202a <HAL_I2C_Init+0x9e>
 8002058:	f0ffffff 	.word	0xf0ffffff
 800205c:	ffff7fff 	.word	0xffff7fff
 8002060:	fffff7ff 	.word	0xfffff7ff
 8002064:	02008000 	.word	0x02008000

08002068 <HAL_I2C_Mem_Write>:
 8002068:	b5f0      	push	{r4, r5, r6, r7, lr}
 800206a:	b087      	sub	sp, #28
 800206c:	0004      	movs	r4, r0
 800206e:	9103      	str	r1, [sp, #12]
 8002070:	9204      	str	r2, [sp, #16]
 8002072:	9305      	str	r3, [sp, #20]
 8002074:	ab0c      	add	r3, sp, #48	@ 0x30
 8002076:	cb20      	ldmia	r3!, {r5}
 8002078:	881f      	ldrh	r7, [r3, #0]
 800207a:	2341      	movs	r3, #65	@ 0x41
 800207c:	5cc3      	ldrb	r3, [r0, r3]
 800207e:	2b20      	cmp	r3, #32
 8002080:	d000      	beq.n	8002084 <HAL_I2C_Mem_Write+0x1c>
 8002082:	e0b3      	b.n	80021ec <HAL_I2C_Mem_Write+0x184>
 8002084:	2d00      	cmp	r5, #0
 8002086:	d018      	beq.n	80020ba <HAL_I2C_Mem_Write+0x52>
 8002088:	2f00      	cmp	r7, #0
 800208a:	d016      	beq.n	80020ba <HAL_I2C_Mem_Write+0x52>
 800208c:	2340      	movs	r3, #64	@ 0x40
 800208e:	5cc3      	ldrb	r3, [r0, r3]
 8002090:	2b01      	cmp	r3, #1
 8002092:	d100      	bne.n	8002096 <HAL_I2C_Mem_Write+0x2e>
 8002094:	e0ad      	b.n	80021f2 <HAL_I2C_Mem_Write+0x18a>
 8002096:	2340      	movs	r3, #64	@ 0x40
 8002098:	2201      	movs	r2, #1
 800209a:	54c2      	strb	r2, [r0, r3]
 800209c:	f7ff fb16 	bl	80016cc <HAL_GetTick>
 80020a0:	0006      	movs	r6, r0
 80020a2:	2180      	movs	r1, #128	@ 0x80
 80020a4:	9000      	str	r0, [sp, #0]
 80020a6:	2319      	movs	r3, #25
 80020a8:	2201      	movs	r2, #1
 80020aa:	0209      	lsls	r1, r1, #8
 80020ac:	0020      	movs	r0, r4
 80020ae:	f7ff fe84 	bl	8001dba <I2C_WaitOnFlagUntilTimeout>
 80020b2:	2800      	cmp	r0, #0
 80020b4:	d006      	beq.n	80020c4 <HAL_I2C_Mem_Write+0x5c>
 80020b6:	2001      	movs	r0, #1
 80020b8:	e099      	b.n	80021ee <HAL_I2C_Mem_Write+0x186>
 80020ba:	2380      	movs	r3, #128	@ 0x80
 80020bc:	009b      	lsls	r3, r3, #2
 80020be:	6463      	str	r3, [r4, #68]	@ 0x44
 80020c0:	2001      	movs	r0, #1
 80020c2:	e094      	b.n	80021ee <HAL_I2C_Mem_Write+0x186>
 80020c4:	2341      	movs	r3, #65	@ 0x41
 80020c6:	2221      	movs	r2, #33	@ 0x21
 80020c8:	54e2      	strb	r2, [r4, r3]
 80020ca:	3301      	adds	r3, #1
 80020cc:	321f      	adds	r2, #31
 80020ce:	54e2      	strb	r2, [r4, r3]
 80020d0:	2300      	movs	r3, #0
 80020d2:	6463      	str	r3, [r4, #68]	@ 0x44
 80020d4:	6265      	str	r5, [r4, #36]	@ 0x24
 80020d6:	8567      	strh	r7, [r4, #42]	@ 0x2a
 80020d8:	6363      	str	r3, [r4, #52]	@ 0x34
 80020da:	9601      	str	r6, [sp, #4]
 80020dc:	9b0e      	ldr	r3, [sp, #56]	@ 0x38
 80020de:	9300      	str	r3, [sp, #0]
 80020e0:	9b05      	ldr	r3, [sp, #20]
 80020e2:	9a04      	ldr	r2, [sp, #16]
 80020e4:	9903      	ldr	r1, [sp, #12]
 80020e6:	0020      	movs	r0, r4
 80020e8:	f7ff feac 	bl	8001e44 <I2C_RequestMemoryWrite>
 80020ec:	2800      	cmp	r0, #0
 80020ee:	d10f      	bne.n	8002110 <HAL_I2C_Mem_Write+0xa8>
 80020f0:	8d63      	ldrh	r3, [r4, #42]	@ 0x2a
 80020f2:	b29b      	uxth	r3, r3
 80020f4:	2bff      	cmp	r3, #255	@ 0xff
 80020f6:	d910      	bls.n	800211a <HAL_I2C_Mem_Write+0xb2>
 80020f8:	23ff      	movs	r3, #255	@ 0xff
 80020fa:	8523      	strh	r3, [r4, #40]	@ 0x28
 80020fc:	3b7f      	subs	r3, #127	@ 0x7f
 80020fe:	2200      	movs	r2, #0
 8002100:	9200      	str	r2, [sp, #0]
 8002102:	045b      	lsls	r3, r3, #17
 8002104:	32ff      	adds	r2, #255	@ 0xff
 8002106:	9903      	ldr	r1, [sp, #12]
 8002108:	0020      	movs	r0, r4
 800210a:	f7ff fd83 	bl	8001c14 <I2C_TransferConfig>
 800210e:	e021      	b.n	8002154 <HAL_I2C_Mem_Write+0xec>
 8002110:	2340      	movs	r3, #64	@ 0x40
 8002112:	2200      	movs	r2, #0
 8002114:	54e2      	strb	r2, [r4, r3]
 8002116:	2001      	movs	r0, #1
 8002118:	e069      	b.n	80021ee <HAL_I2C_Mem_Write+0x186>
 800211a:	8d62      	ldrh	r2, [r4, #42]	@ 0x2a
 800211c:	b292      	uxth	r2, r2
 800211e:	8522      	strh	r2, [r4, #40]	@ 0x28
 8002120:	2380      	movs	r3, #128	@ 0x80
 8002122:	b2d2      	uxtb	r2, r2
 8002124:	2100      	movs	r1, #0
 8002126:	9100      	str	r1, [sp, #0]
 8002128:	049b      	lsls	r3, r3, #18
 800212a:	9903      	ldr	r1, [sp, #12]
 800212c:	0020      	movs	r0, r4
 800212e:	f7ff fd71 	bl	8001c14 <I2C_TransferConfig>
 8002132:	e00f      	b.n	8002154 <HAL_I2C_Mem_Write+0xec>
 8002134:	8d62      	ldrh	r2, [r4, #42]	@ 0x2a
 8002136:	b292      	uxth	r2, r2
 8002138:	8522      	strh	r2, [r4, #40]	@ 0x28
 800213a:	2380      	movs	r3, #128	@ 0x80
 800213c:	b2d2      	uxtb	r2, r2
 800213e:	2100      	movs	r1, #0
 8002140:	9100      	str	r1, [sp, #0]
 8002142:	049b      	lsls	r3, r3, #18
 8002144:	9903      	ldr	r1, [sp, #12]
 8002146:	0020      	movs	r0, r4
 8002148:	f7ff fd64 	bl	8001c14 <I2C_TransferConfig>
 800214c:	8d63      	ldrh	r3, [r4, #42]	@ 0x2a
 800214e:	b29b      	uxth	r3, r3
 8002150:	2b00      	cmp	r3, #0
 8002152:	d034      	beq.n	80021be <HAL_I2C_Mem_Write+0x156>
 8002154:	0032      	movs	r2, r6
 8002156:	990e      	ldr	r1, [sp, #56]	@ 0x38
 8002158:	0020      	movs	r0, r4
 800215a:	f7ff fe01 	bl	8001d60 <I2C_WaitOnTXISFlagUntilTimeout>
 800215e:	2800      	cmp	r0, #0
 8002160:	d149      	bne.n	80021f6 <HAL_I2C_Mem_Write+0x18e>
 8002162:	6a62      	ldr	r2, [r4, #36]	@ 0x24
 8002164:	6823      	ldr	r3, [r4, #0]
 8002166:	7812      	ldrb	r2, [r2, #0]
 8002168:	629a      	str	r2, [r3, #40]	@ 0x28
 800216a:	6a63      	ldr	r3, [r4, #36]	@ 0x24
 800216c:	3301      	adds	r3, #1
 800216e:	6263      	str	r3, [r4, #36]	@ 0x24
 8002170:	8d63      	ldrh	r3, [r4, #42]	@ 0x2a
 8002172:	3b01      	subs	r3, #1
 8002174:	b29b      	uxth	r3, r3
 8002176:	8563      	strh	r3, [r4, #42]	@ 0x2a
 8002178:	8d23      	ldrh	r3, [r4, #40]	@ 0x28
 800217a:	3b01      	subs	r3, #1
 800217c:	b29b      	uxth	r3, r3
 800217e:	8523      	strh	r3, [r4, #40]	@ 0x28
 8002180:	8d62      	ldrh	r2, [r4, #42]	@ 0x2a
 8002182:	b292      	uxth	r2, r2
 8002184:	2a00      	cmp	r2, #0
 8002186:	d0e1      	beq.n	800214c <HAL_I2C_Mem_Write+0xe4>
 8002188:	2b00      	cmp	r3, #0
 800218a:	d1df      	bne.n	800214c <HAL_I2C_Mem_Write+0xe4>
 800218c:	9600      	str	r6, [sp, #0]
 800218e:	9b0e      	ldr	r3, [sp, #56]	@ 0x38
 8002190:	2200      	movs	r2, #0
 8002192:	2180      	movs	r1, #128	@ 0x80
 8002194:	0020      	movs	r0, r4
 8002196:	f7ff fe10 	bl	8001dba <I2C_WaitOnFlagUntilTimeout>
 800219a:	2800      	cmp	r0, #0
 800219c:	d12d      	bne.n	80021fa <HAL_I2C_Mem_Write+0x192>
 800219e:	8d63      	ldrh	r3, [r4, #42]	@ 0x2a
 80021a0:	b29b      	uxth	r3, r3
 80021a2:	2bff      	cmp	r3, #255	@ 0xff
 80021a4:	d9c6      	bls.n	8002134 <HAL_I2C_Mem_Write+0xcc>
 80021a6:	23ff      	movs	r3, #255	@ 0xff
 80021a8:	8523      	strh	r3, [r4, #40]	@ 0x28
 80021aa:	3b7f      	subs	r3, #127	@ 0x7f
 80021ac:	2200      	movs	r2, #0
 80021ae:	9200      	str	r2, [sp, #0]
 80021b0:	045b      	lsls	r3, r3, #17
 80021b2:	32ff      	adds	r2, #255	@ 0xff
 80021b4:	9903      	ldr	r1, [sp, #12]
 80021b6:	0020      	movs	r0, r4
 80021b8:	f7ff fd2c 	bl	8001c14 <I2C_TransferConfig>
 80021bc:	e7c6      	b.n	800214c <HAL_I2C_Mem_Write+0xe4>
 80021be:	0032      	movs	r2, r6
 80021c0:	990e      	ldr	r1, [sp, #56]	@ 0x38
 80021c2:	0020      	movs	r0, r4
 80021c4:	f7ff feb4 	bl	8001f30 <I2C_WaitOnSTOPFlagUntilTimeout>
 80021c8:	2800      	cmp	r0, #0
 80021ca:	d118      	bne.n	80021fe <HAL_I2C_Mem_Write+0x196>
 80021cc:	6823      	ldr	r3, [r4, #0]
 80021ce:	2220      	movs	r2, #32
 80021d0:	61da      	str	r2, [r3, #28]
 80021d2:	6821      	ldr	r1, [r4, #0]
 80021d4:	684b      	ldr	r3, [r1, #4]
 80021d6:	4d0b      	ldr	r5, [pc, #44]	@ (8002204 <HAL_I2C_Mem_Write+0x19c>)
 80021d8:	402b      	ands	r3, r5
 80021da:	604b      	str	r3, [r1, #4]
 80021dc:	2341      	movs	r3, #65	@ 0x41
 80021de:	54e2      	strb	r2, [r4, r3]
 80021e0:	2300      	movs	r3, #0
 80021e2:	3222      	adds	r2, #34	@ 0x22
 80021e4:	54a3      	strb	r3, [r4, r2]
 80021e6:	3a02      	subs	r2, #2
 80021e8:	54a3      	strb	r3, [r4, r2]
 80021ea:	e000      	b.n	80021ee <HAL_I2C_Mem_Write+0x186>
 80021ec:	2002      	movs	r0, #2
 80021ee:	b007      	add	sp, #28
 80021f0:	bdf0      	pop	{r4, r5, r6, r7, pc}
 80021f2:	2002      	movs	r0, #2
 80021f4:	e7fb      	b.n	80021ee <HAL_I2C_Mem_Write+0x186>
 80021f6:	2001      	movs	r0, #1
 80021f8:	e7f9      	b.n	80021ee <HAL_I2C_Mem_Write+0x186>
 80021fa:	2001      	movs	r0, #1
 80021fc:	e7f7      	b.n	80021ee <HAL_I2C_Mem_Write+0x186>
 80021fe:	2001      	movs	r0, #1
 8002200:	e7f5      	b.n	80021ee <HAL_I2C_Mem_Write+0x186>
 8002202:	46c0      	nop			@ (mov r8, r8)
 8002204:	fe00e800 	.word	0xfe00e800

08002208 <HAL_I2C_Mem_Read>:
 8002208:	b5f0      	push	{r4, r5, r6, r7, lr}
 800220a:	b087      	sub	sp, #28
 800220c:	0004      	movs	r4, r0
 800220e:	9103      	str	r1, [sp, #12]
 8002210:	9204      	str	r2, [sp, #16]
 8002212:	9305      	str	r3, [sp, #20]
 8002214:	ab0c      	add	r3, sp, #48	@ 0x30
 8002216:	cb20      	ldmia	r3!, {r5}
 8002218:	881f      	ldrh	r7, [r3, #0]
 800221a:	2341      	movs	r3, #65	@ 0x41
 800221c:	5cc3      	ldrb	r3, [r0, r3]
 800221e:	2b20      	cmp	r3, #32
 8002220:	d000      	beq.n	8002224 <HAL_I2C_Mem_Read+0x1c>
 8002222:	e0b5      	b.n	8002390 <HAL_I2C_Mem_Read+0x188>
 8002224:	2d00      	cmp	r5, #0
 8002226:	d018      	beq.n	800225a <HAL_I2C_Mem_Read+0x52>
 8002228:	2f00      	cmp	r7, #0
 800222a:	d016      	beq.n	800225a <HAL_I2C_Mem_Read+0x52>
 800222c:	2340      	movs	r3, #64	@ 0x40
 800222e:	5cc3      	ldrb	r3, [r0, r3]
 8002230:	2b01      	cmp	r3, #1
 8002232:	d100      	bne.n	8002236 <HAL_I2C_Mem_Read+0x2e>
 8002234:	e0af      	b.n	8002396 <HAL_I2C_Mem_Read+0x18e>
 8002236:	2340      	movs	r3, #64	@ 0x40
 8002238:	2201      	movs	r2, #1
 800223a:	54c2      	strb	r2, [r0, r3]
 800223c:	f7ff fa46 	bl	80016cc <HAL_GetTick>
 8002240:	0006      	movs	r6, r0
 8002242:	2180      	movs	r1, #128	@ 0x80
 8002244:	9000      	str	r0, [sp, #0]
 8002246:	2319      	movs	r3, #25
 8002248:	2201      	movs	r2, #1
 800224a:	0209      	lsls	r1, r1, #8
 800224c:	0020      	movs	r0, r4
 800224e:	f7ff fdb4 	bl	8001dba <I2C_WaitOnFlagUntilTimeout>
 8002252:	2800      	cmp	r0, #0
 8002254:	d006      	beq.n	8002264 <HAL_I2C_Mem_Read+0x5c>
 8002256:	2001      	movs	r0, #1
 8002258:	e09b      	b.n	8002392 <HAL_I2C_Mem_Read+0x18a>
 800225a:	2380      	movs	r3, #128	@ 0x80
 800225c:	009b      	lsls	r3, r3, #2
 800225e:	6463      	str	r3, [r4, #68]	@ 0x44
 8002260:	2001      	movs	r0, #1
 8002262:	e096      	b.n	8002392 <HAL_I2C_Mem_Read+0x18a>
 8002264:	2341      	movs	r3, #65	@ 0x41
 8002266:	2222      	movs	r2, #34	@ 0x22
 8002268:	54e2      	strb	r2, [r4, r3]
 800226a:	3301      	adds	r3, #1
 800226c:	321e      	adds	r2, #30
 800226e:	54e2      	strb	r2, [r4, r3]
 8002270:	2300      	movs	r3, #0
 8002272:	6463      	str	r3, [r4, #68]	@ 0x44
 8002274:	6265      	str	r5, [r4, #36]	@ 0x24
 8002276:	8567      	strh	r7, [r4, #42]	@ 0x2a
 8002278:	6363      	str	r3, [r4, #52]	@ 0x34
 800227a:	9601      	str	r6, [sp, #4]
 800227c:	9b0e      	ldr	r3, [sp, #56]	@ 0x38
 800227e:	9300      	str	r3, [sp, #0]
 8002280:	9b05      	ldr	r3, [sp, #20]
 8002282:	9a04      	ldr	r2, [sp, #16]
 8002284:	9903      	ldr	r1, [sp, #12]
 8002286:	0020      	movs	r0, r4
 8002288:	f7ff fe18 	bl	8001ebc <I2C_RequestMemoryRead>
 800228c:	2800      	cmp	r0, #0
 800228e:	d10f      	bne.n	80022b0 <HAL_I2C_Mem_Read+0xa8>
 8002290:	8d63      	ldrh	r3, [r4, #42]	@ 0x2a
 8002292:	b29b      	uxth	r3, r3
 8002294:	2bff      	cmp	r3, #255	@ 0xff
 8002296:	d910      	bls.n	80022ba <HAL_I2C_Mem_Read+0xb2>
 8002298:	23ff      	movs	r3, #255	@ 0xff
 800229a:	8523      	strh	r3, [r4, #40]	@ 0x28
 800229c:	3b7f      	subs	r3, #127	@ 0x7f
 800229e:	4a42      	ldr	r2, [pc, #264]	@ (80023a8 <HAL_I2C_Mem_Read+0x1a0>)
 80022a0:	9200      	str	r2, [sp, #0]
 80022a2:	045b      	lsls	r3, r3, #17
 80022a4:	22ff      	movs	r2, #255	@ 0xff
 80022a6:	9903      	ldr	r1, [sp, #12]
 80022a8:	0020      	movs	r0, r4
 80022aa:	f7ff fcb3 	bl	8001c14 <I2C_TransferConfig>
 80022ae:	e021      	b.n	80022f4 <HAL_I2C_Mem_Read+0xec>
 80022b0:	2340      	movs	r3, #64	@ 0x40
 80022b2:	2200      	movs	r2, #0
 80022b4:	54e2      	strb	r2, [r4, r3]
 80022b6:	2001      	movs	r0, #1
 80022b8:	e06b      	b.n	8002392 <HAL_I2C_Mem_Read+0x18a>
 80022ba:	8d62      	ldrh	r2, [r4, #42]	@ 0x2a
 80022bc:	b292      	uxth	r2, r2
 80022be:	8522      	strh	r2, [r4, #40]	@ 0x28
 80022c0:	2380      	movs	r3, #128	@ 0x80
 80022c2:	b2d2      	uxtb	r2, r2
 80022c4:	4938      	ldr	r1, [pc, #224]	@ (80023a8 <HAL_I2C_Mem_Read+0x1a0>)
 80022c6:	9100      	str	r1, [sp, #0]
 80022c8:	049b      	lsls	r3, r3, #18
 80022ca:	9903      	ldr	r1, [sp, #12]
 80022cc:	0020      	movs	r0, r4
 80022ce:	f7ff fca1 	bl	8001c14 <I2C_TransferConfig>
 80022d2:	e00f      	b.n	80022f4 <HAL_I2C_Mem_Read+0xec>
 80022d4:	8d62      	ldrh	r2, [r4, #42]	@ 0x2a
 80022d6:	b292      	uxth	r2, r2
 80022d8:	8522      	strh	r2, [r4, #40]	@ 0x28
 80022da:	2380      	movs	r3, #128	@ 0x80
 80022dc:	b2d2      	uxtb	r2, r2
 80022de:	2100      	movs	r1, #0
 80022e0:	9100      	str	r1, [sp, #0]
 80022e2:	049b      	lsls	r3, r3, #18
 80022e4:	9903      	ldr	r1, [sp, #12]
 80022e6:	0020      	movs	r0, r4
 80022e8:	f7ff fc94 	bl	8001c14 <I2C_TransferConfig>
 80022ec:	8d63      	ldrh	r3, [r4, #42]	@ 0x2a
 80022ee:	b29b      	uxth	r3, r3
 80022f0:	2b00      	cmp	r3, #0
 80022f2:	d036      	beq.n	8002362 <HAL_I2C_Mem_Read+0x15a>
 80022f4:	9600      	str	r6, [sp, #0]
 80022f6:	9b0e      	ldr	r3, [sp, #56]	@ 0x38
 80022f8:	2200      	movs	r2, #0
 80022fa:	2104      	movs	r1, #4
 80022fc:	0020      	movs	r0, r4
 80022fe:	f7ff fd5c 	bl	8001dba <I2C_WaitOnFlagUntilTimeout>
 8002302:	2800      	cmp	r0, #0
 8002304:	d149      	bne.n	800239a <HAL_I2C_Mem_Read+0x192>
 8002306:	6823      	ldr	r3, [r4, #0]
 8002308:	6a5a      	ldr	r2, [r3, #36]	@ 0x24
 800230a:	6a63      	ldr	r3, [r4, #36]	@ 0x24
 800230c:	701a      	strb	r2, [r3, #0]
 800230e:	6a63      	ldr	r3, [r4, #36]	@ 0x24
 8002310:	3301      	adds	r3, #1
 8002312:	6263      	str	r3, [r4, #36]	@ 0x24
 8002314:	8d23      	ldrh	r3, [r4, #40]	@ 0x28
 8002316:	3b01      	subs	r3, #1
 8002318:	b29b      	uxth	r3, r3
 800231a:	8523      	strh	r3, [r4, #40]	@ 0x28
 800231c:	8d62      	ldrh	r2, [r4, #42]	@ 0x2a
 800231e:	3a01      	subs	r2, #1
 8002320:	b292      	uxth	r2, r2
 8002322:	8562      	strh	r2, [r4, #42]	@ 0x2a
 8002324:	8d62      	ldrh	r2, [r4, #42]	@ 0x2a
 8002326:	b292      	uxth	r2, r2
 8002328:	2a00      	cmp	r2, #0
 800232a:	d0df      	beq.n	80022ec <HAL_I2C_Mem_Read+0xe4>
 800232c:	2b00      	cmp	r3, #0
 800232e:	d1dd      	bne.n	80022ec <HAL_I2C_Mem_Read+0xe4>
 8002330:	9600      	str	r6, [sp, #0]
 8002332:	9b0e      	ldr	r3, [sp, #56]	@ 0x38
 8002334:	2200      	movs	r2, #0
 8002336:	2180      	movs	r1, #128	@ 0x80
 8002338:	0020      	movs	r0, r4
 800233a:	f7ff fd3e 	bl	8001dba <I2C_WaitOnFlagUntilTimeout>
 800233e:	2800      	cmp	r0, #0
 8002340:	d12d      	bne.n	800239e <HAL_I2C_Mem_Read+0x196>
 8002342:	8d63      	ldrh	r3, [r4, #42]	@ 0x2a
 8002344:	b29b      	uxth	r3, r3
 8002346:	2bff      	cmp	r3, #255	@ 0xff
 8002348:	d9c4      	bls.n	80022d4 <HAL_I2C_Mem_Read+0xcc>
 800234a:	23ff      	movs	r3, #255	@ 0xff
 800234c:	8523      	strh	r3, [r4, #40]	@ 0x28
 800234e:	3b7f      	subs	r3, #127	@ 0x7f
 8002350:	2200      	movs	r2, #0
 8002352:	9200      	str	r2, [sp, #0]
 8002354:	045b      	lsls	r3, r3, #17
 8002356:	32ff      	adds	r2, #255	@ 0xff
 8002358:	9903      	ldr	r1, [sp, #12]
 800235a:	0020      	movs	r0, r4
 800235c:	f7ff fc5a 	bl	8001c14 <I2C_TransferConfig>
 8002360:	e7c4      	b.n	80022ec <HAL_I2C_Mem_Read+0xe4>
 8002362:	0032      	movs	r2, r6
 8002364:	990e      	ldr	r1, [sp, #56]	@ 0x38
 8002366:	0020      	movs	r0, r4
 8002368:	f7ff fde2 	bl	8001f30 <I2C_WaitOnSTOPFlagUntilTimeout>
 800236c:	2800      	cmp	r0, #0
 800236e:	d118      	bne.n	80023a2 <HAL_I2C_Mem_Read+0x19a>
 8002370:	6823      	ldr	r3, [r4, #0]
 8002372:	2220      	movs	r2, #32
 8002374:	61da      	str	r2, [r3, #28]
 8002376:	6821      	ldr	r1, [r4, #0]
 8002378:	684b      	ldr	r3, [r1, #4]
 800237a:	4d0c      	ldr	r5, [pc, #48]	@ (80023ac <HAL_I2C_Mem_Read+0x1a4>)
 800237c:	402b      	ands	r3, r5
 800237e:	604b      	str	r3, [r1, #4]
 8002380:	2341      	movs	r3, #65	@ 0x41
 8002382:	54e2      	strb	r2, [r4, r3]
 8002384:	2300      	movs	r3, #0
 8002386:	3222      	adds	r2, #34	@ 0x22
 8002388:	54a3      	strb	r3, [r4, r2]
 800238a:	3a02      	subs	r2, #2
 800238c:	54a3      	strb	r3, [r4, r2]
 800238e:	e000      	b.n	8002392 <HAL_I2C_Mem_Read+0x18a>
 8002390:	2002      	movs	r0, #2
 8002392:	b007      	add	sp, #28
 8002394:	bdf0      	pop	{r4, r5, r6, r7, pc}
 8002396:	2002      	movs	r0, #2
 8002398:	e7fb      	b.n	8002392 <HAL_I2C_Mem_Read+0x18a>
 800239a:	2001      	movs	r0, #1
 800239c:	e7f9      	b.n	8002392 <HAL_I2C_Mem_Read+0x18a>
 800239e:	2001      	movs	r0, #1
 80023a0:	e7f7      	b.n	8002392 <HAL_I2C_Mem_Read+0x18a>
 80023a2:	2001      	movs	r0, #1
 80023a4:	e7f5      	b.n	8002392 <HAL_I2C_Mem_Read+0x18a>
 80023a6:	46c0      	nop			@ (mov r8, r8)
 80023a8:	80002400 	.word	0x80002400
 80023ac:	fe00e800 	.word	0xfe00e800

080023b0 <HAL_I2C_IsDeviceReady>:
 80023b0:	b5f0      	push	{r4, r5, r6, r7, lr}
 80023b2:	46ce      	mov	lr, r9
 80023b4:	b500      	push	{lr}
 80023b6:	b086      	sub	sp, #24
 80023b8:	0007      	movs	r7, r0
 80023ba:	4689      	mov	r9, r1
 80023bc:	9203      	str	r2, [sp, #12]
 80023be:	001e      	movs	r6, r3
 80023c0:	2300      	movs	r3, #0
 80023c2:	9305      	str	r3, [sp, #20]
 80023c4:	3341      	adds	r3, #65	@ 0x41
 80023c6:	5cc3      	ldrb	r3, [r0, r3]
 80023c8:	2b20      	cmp	r3, #32
 80023ca:	d000      	beq.n	80023ce <HAL_I2C_IsDeviceReady+0x1e>
 80023cc:	e08f      	b.n	80024ee <HAL_I2C_IsDeviceReady+0x13e>
 80023ce:	6803      	ldr	r3, [r0, #0]
 80023d0:	699b      	ldr	r3, [r3, #24]
 80023d2:	041b      	lsls	r3, r3, #16
 80023d4:	d500      	bpl.n	80023d8 <HAL_I2C_IsDeviceReady+0x28>
 80023d6:	e08c      	b.n	80024f2 <HAL_I2C_IsDeviceReady+0x142>
 80023d8:	2340      	movs	r3, #64	@ 0x40
 80023da:	5cc3      	ldrb	r3, [r0, r3]
 80023dc:	2b01      	cmp	r3, #1
 80023de:	d100      	bne.n	80023e2 <HAL_I2C_IsDeviceReady+0x32>
 80023e0:	e089      	b.n	80024f6 <HAL_I2C_IsDeviceReady+0x146>
 80023e2:	2340      	movs	r3, #64	@ 0x40
 80023e4:	2201      	movs	r2, #1
 80023e6:	54c2      	strb	r2, [r0, r3]
 80023e8:	3301      	adds	r3, #1
 80023ea:	3223      	adds	r2, #35	@ 0x23
 80023ec:	54c2      	strb	r2, [r0, r3]
 80023ee:	2300      	movs	r3, #0
 80023f0:	6443      	str	r3, [r0, #68]	@ 0x44
 80023f2:	68fb      	ldr	r3, [r7, #12]
 80023f4:	2b01      	cmp	r3, #1
 80023f6:	d017      	beq.n	8002428 <HAL_I2C_IsDeviceReady+0x78>
 80023f8:	464b      	mov	r3, r9
 80023fa:	059a      	lsls	r2, r3, #22
 80023fc:	0d92      	lsrs	r2, r2, #22
 80023fe:	4b41      	ldr	r3, [pc, #260]	@ (8002504 <HAL_I2C_IsDeviceReady+0x154>)
 8002400:	4313      	orrs	r3, r2
 8002402:	683a      	ldr	r2, [r7, #0]
 8002404:	6053      	str	r3, [r2, #4]
 8002406:	f7ff f961 	bl	80016cc <HAL_GetTick>
 800240a:	0005      	movs	r5, r0
 800240c:	683a      	ldr	r2, [r7, #0]
 800240e:	6991      	ldr	r1, [r2, #24]
 8002410:	2320      	movs	r3, #32
 8002412:	400b      	ands	r3, r1
 8002414:	1e59      	subs	r1, r3, #1
 8002416:	418b      	sbcs	r3, r1
 8002418:	b2db      	uxtb	r3, r3
 800241a:	6992      	ldr	r2, [r2, #24]
 800241c:	2410      	movs	r4, #16
 800241e:	4014      	ands	r4, r2
 8002420:	1e62      	subs	r2, r4, #1
 8002422:	4194      	sbcs	r4, r2
 8002424:	b2e4      	uxtb	r4, r4
 8002426:	e012      	b.n	800244e <HAL_I2C_IsDeviceReady+0x9e>
 8002428:	464b      	mov	r3, r9
 800242a:	059a      	lsls	r2, r3, #22
 800242c:	0d92      	lsrs	r2, r2, #22
 800242e:	4b36      	ldr	r3, [pc, #216]	@ (8002508 <HAL_I2C_IsDeviceReady+0x158>)
 8002430:	4313      	orrs	r3, r2
 8002432:	e7e6      	b.n	8002402 <HAL_I2C_IsDeviceReady+0x52>
 8002434:	683a      	ldr	r2, [r7, #0]
 8002436:	6991      	ldr	r1, [r2, #24]
 8002438:	2320      	movs	r3, #32
 800243a:	400b      	ands	r3, r1
 800243c:	1e59      	subs	r1, r3, #1
 800243e:	418b      	sbcs	r3, r1
 8002440:	b2db      	uxtb	r3, r3
 8002442:	6992      	ldr	r2, [r2, #24]
 8002444:	2410      	movs	r4, #16
 8002446:	4014      	ands	r4, r2
 8002448:	1e62      	subs	r2, r4, #1
 800244a:	4194      	sbcs	r4, r2
 800244c:	b2e4      	uxtb	r4, r4
 800244e:	431c      	orrs	r4, r3
 8002450:	d116      	bne.n	8002480 <HAL_I2C_IsDeviceReady+0xd0>
 8002452:	1c73      	adds	r3, r6, #1
 8002454:	d0ee      	beq.n	8002434 <HAL_I2C_IsDeviceReady+0x84>
 8002456:	f7ff f939 	bl	80016cc <HAL_GetTick>
 800245a:	1b40      	subs	r0, r0, r5
 800245c:	42b0      	cmp	r0, r6
 800245e:	d801      	bhi.n	8002464 <HAL_I2C_IsDeviceReady+0xb4>
 8002460:	2e00      	cmp	r6, #0
 8002462:	d1e7      	bne.n	8002434 <HAL_I2C_IsDeviceReady+0x84>
 8002464:	2220      	movs	r2, #32
 8002466:	2341      	movs	r3, #65	@ 0x41
 8002468:	54fa      	strb	r2, [r7, r3]
 800246a:	6c7b      	ldr	r3, [r7, #68]	@ 0x44
 800246c:	4313      	orrs	r3, r2
 800246e:	647b      	str	r3, [r7, #68]	@ 0x44
 8002470:	2340      	movs	r3, #64	@ 0x40
 8002472:	2200      	movs	r2, #0
 8002474:	54fa      	strb	r2, [r7, r3]
 8002476:	2001      	movs	r0, #1
 8002478:	b006      	add	sp, #24
 800247a:	bc80      	pop	{r7}
 800247c:	46b9      	mov	r9, r7
 800247e:	bdf0      	pop	{r4, r5, r6, r7, pc}
 8002480:	683b      	ldr	r3, [r7, #0]
 8002482:	699b      	ldr	r3, [r3, #24]
 8002484:	06db      	lsls	r3, r3, #27
 8002486:	d520      	bpl.n	80024ca <HAL_I2C_IsDeviceReady+0x11a>
 8002488:	9500      	str	r5, [sp, #0]
 800248a:	0033      	movs	r3, r6
 800248c:	2200      	movs	r2, #0
 800248e:	2120      	movs	r1, #32
 8002490:	0038      	movs	r0, r7
 8002492:	f7ff fc92 	bl	8001dba <I2C_WaitOnFlagUntilTimeout>
 8002496:	2800      	cmp	r0, #0
 8002498:	d131      	bne.n	80024fe <HAL_I2C_IsDeviceReady+0x14e>
 800249a:	683b      	ldr	r3, [r7, #0]
 800249c:	2210      	movs	r2, #16
 800249e:	61da      	str	r2, [r3, #28]
 80024a0:	683b      	ldr	r3, [r7, #0]
 80024a2:	3210      	adds	r2, #16
 80024a4:	61da      	str	r2, [r3, #28]
 80024a6:	9b05      	ldr	r3, [sp, #20]
 80024a8:	3301      	adds	r3, #1
 80024aa:	9305      	str	r3, [sp, #20]
 80024ac:	9b05      	ldr	r3, [sp, #20]
 80024ae:	9a03      	ldr	r2, [sp, #12]
 80024b0:	4293      	cmp	r3, r2
 80024b2:	d39e      	bcc.n	80023f2 <HAL_I2C_IsDeviceReady+0x42>
 80024b4:	2220      	movs	r2, #32
 80024b6:	2341      	movs	r3, #65	@ 0x41
 80024b8:	54fa      	strb	r2, [r7, r3]
 80024ba:	6c7b      	ldr	r3, [r7, #68]	@ 0x44
 80024bc:	4313      	orrs	r3, r2
 80024be:	647b      	str	r3, [r7, #68]	@ 0x44
 80024c0:	2340      	movs	r3, #64	@ 0x40
 80024c2:	2200      	movs	r2, #0
 80024c4:	54fa      	strb	r2, [r7, r3]
 80024c6:	3001      	adds	r0, #1
 80024c8:	e7d6      	b.n	8002478 <HAL_I2C_IsDeviceReady+0xc8>
 80024ca:	9500      	str	r5, [sp, #0]
 80024cc:	0033      	movs	r3, r6
 80024ce:	2200      	movs	r2, #0
 80024d0:	2120      	movs	r1, #32
 80024d2:	0038      	movs	r0, r7
 80024d4:	f7ff fc71 	bl	8001dba <I2C_WaitOnFlagUntilTimeout>
 80024d8:	2800      	cmp	r0, #0
 80024da:	d10e      	bne.n	80024fa <HAL_I2C_IsDeviceReady+0x14a>
 80024dc:	683a      	ldr	r2, [r7, #0]
 80024de:	2320      	movs	r3, #32
 80024e0:	61d3      	str	r3, [r2, #28]
 80024e2:	2241      	movs	r2, #65	@ 0x41
 80024e4:	54bb      	strb	r3, [r7, r2]
 80024e6:	3320      	adds	r3, #32
 80024e8:	2200      	movs	r2, #0
 80024ea:	54fa      	strb	r2, [r7, r3]
 80024ec:	e7c4      	b.n	8002478 <HAL_I2C_IsDeviceReady+0xc8>
 80024ee:	2002      	movs	r0, #2
 80024f0:	e7c2      	b.n	8002478 <HAL_I2C_IsDeviceReady+0xc8>
 80024f2:	2002      	movs	r0, #2
 80024f4:	e7c0      	b.n	8002478 <HAL_I2C_IsDeviceReady+0xc8>
 80024f6:	2002      	movs	r0, #2
 80024f8:	e7be      	b.n	8002478 <HAL_I2C_IsDeviceReady+0xc8>
 80024fa:	2001      	movs	r0, #1
 80024fc:	e7bc      	b.n	8002478 <HAL_I2C_IsDeviceReady+0xc8>
 80024fe:	2001      	movs	r0, #1
 8002500:	e7ba      	b.n	8002478 <HAL_I2C_IsDeviceReady+0xc8>
 8002502:	46c0      	nop			@ (mov r8, r8)
 8002504:	02002800 	.word	0x02002800
 8002508:	02002000 	.word	0x02002000

0800250c <HAL_I2CEx_ConfigAnalogFilter>:
 800250c:	b5f0      	push	{r4, r5, r6, r7, lr}
 800250e:	2341      	movs	r3, #65	@ 0x41
 8002510:	5cc3      	ldrb	r3, [r0, r3]
 8002512:	2b20      	cmp	r3, #32
 8002514:	d120      	bne.n	8002558 <HAL_I2CEx_ConfigAnalogFilter+0x4c>
 8002516:	3320      	adds	r3, #32
 8002518:	5cc3      	ldrb	r3, [r0, r3]
 800251a:	2b01      	cmp	r3, #1
 800251c:	d01e      	beq.n	800255c <HAL_I2CEx_ConfigAnalogFilter+0x50>
 800251e:	2440      	movs	r4, #64	@ 0x40
 8002520:	2201      	movs	r2, #1
 8002522:	5502      	strb	r2, [r0, r4]
 8002524:	2541      	movs	r5, #65	@ 0x41
 8002526:	2324      	movs	r3, #36	@ 0x24
 8002528:	5543      	strb	r3, [r0, r5]
 800252a:	6806      	ldr	r6, [r0, #0]
 800252c:	6833      	ldr	r3, [r6, #0]
 800252e:	4393      	bics	r3, r2
 8002530:	6033      	str	r3, [r6, #0]
 8002532:	6806      	ldr	r6, [r0, #0]
 8002534:	6833      	ldr	r3, [r6, #0]
 8002536:	4f0a      	ldr	r7, [pc, #40]	@ (8002560 <HAL_I2CEx_ConfigAnalogFilter+0x54>)
 8002538:	403b      	ands	r3, r7
 800253a:	6033      	str	r3, [r6, #0]
 800253c:	6806      	ldr	r6, [r0, #0]
 800253e:	6833      	ldr	r3, [r6, #0]
 8002540:	430b      	orrs	r3, r1
 8002542:	6033      	str	r3, [r6, #0]
 8002544:	6801      	ldr	r1, [r0, #0]
 8002546:	680b      	ldr	r3, [r1, #0]
 8002548:	4313      	orrs	r3, r2
 800254a:	600b      	str	r3, [r1, #0]
 800254c:	2320      	movs	r3, #32
 800254e:	5543      	strb	r3, [r0, r5]
 8002550:	2300      	movs	r3, #0
 8002552:	5503      	strb	r3, [r0, r4]
 8002554:	2000      	movs	r0, #0
 8002556:	bdf0      	pop	{r4, r5, r6, r7, pc}
 8002558:	2002      	movs	r0, #2
 800255a:	e7fc      	b.n	8002556 <HAL_I2CEx_ConfigAnalogFilter+0x4a>
 800255c:	2002      	movs	r0, #2
 800255e:	e7fa      	b.n	8002556 <HAL_I2CEx_ConfigAnalogFilter+0x4a>
 8002560:	ffffefff 	.word	0xffffefff

08002564 <HAL_I2CEx_ConfigDigitalFilter>:
 8002564:	b5f0      	push	{r4, r5, r6, r7, lr}
 8002566:	2341      	movs	r3, #65	@ 0x41
 8002568:	5cc3      	ldrb	r3, [r0, r3]
 800256a:	2b20      	cmp	r3, #32
 800256c:	d11e      	bne.n	80025ac <HAL_I2CEx_ConfigDigitalFilter+0x48>
 800256e:	3320      	adds	r3, #32
 8002570:	5cc3      	ldrb	r3, [r0, r3]
 8002572:	2b01      	cmp	r3, #1
 8002574:	d01c      	beq.n	80025b0 <HAL_I2CEx_ConfigDigitalFilter+0x4c>
 8002576:	2440      	movs	r4, #64	@ 0x40
 8002578:	2201      	movs	r2, #1
 800257a:	5502      	strb	r2, [r0, r4]
 800257c:	2541      	movs	r5, #65	@ 0x41
 800257e:	2324      	movs	r3, #36	@ 0x24
 8002580:	5543      	strb	r3, [r0, r5]
 8002582:	6806      	ldr	r6, [r0, #0]
 8002584:	6833      	ldr	r3, [r6, #0]
 8002586:	4393      	bics	r3, r2
 8002588:	6033      	str	r3, [r6, #0]
 800258a:	6806      	ldr	r6, [r0, #0]
 800258c:	6833      	ldr	r3, [r6, #0]
 800258e:	4f09      	ldr	r7, [pc, #36]	@ (80025b4 <HAL_I2CEx_ConfigDigitalFilter+0x50>)
 8002590:	403b      	ands	r3, r7
 8002592:	0209      	lsls	r1, r1, #8
 8002594:	4319      	orrs	r1, r3
 8002596:	6031      	str	r1, [r6, #0]
 8002598:	6801      	ldr	r1, [r0, #0]
 800259a:	680b      	ldr	r3, [r1, #0]
 800259c:	4313      	orrs	r3, r2
 800259e:	600b      	str	r3, [r1, #0]
 80025a0:	2320      	movs	r3, #32
 80025a2:	5543      	strb	r3, [r0, r5]
 80025a4:	2300      	movs	r3, #0
 80025a6:	5503      	strb	r3, [r0, r4]
 80025a8:	2000      	movs	r0, #0
 80025aa:	bdf0      	pop	{r4, r5, r6, r7, pc}
 80025ac:	2002      	movs	r0, #2
 80025ae:	e7fc      	b.n	80025aa <HAL_I2CEx_ConfigDigitalFilter+0x46>
 80025b0:	2002      	movs	r0, #2
 80025b2:	e7fa      	b.n	80025aa <HAL_I2CEx_ConfigDigitalFilter+0x46>
 80025b4:	fffff0ff 	.word	0xfffff0ff

080025b8 <HAL_PWREx_ControlVoltageScaling>:
 80025b8:	b510      	push	{r4, lr}
 80025ba:	4a10      	ldr	r2, [pc, #64]	@ (80025fc <HAL_PWREx_ControlVoltageScaling+0x44>)
 80025bc:	6813      	ldr	r3, [r2, #0]
 80025be:	4910      	ldr	r1, [pc, #64]	@ (8002600 <HAL_PWREx_ControlVoltageScaling+0x48>)
 80025c0:	400b      	ands	r3, r1
 80025c2:	4303      	orrs	r3, r0
 80025c4:	6013      	str	r3, [r2, #0]
 80025c6:	2380      	movs	r3, #128	@ 0x80
 80025c8:	009b      	lsls	r3, r3, #2
 80025ca:	4298      	cmp	r0, r3
 80025cc:	d001      	beq.n	80025d2 <HAL_PWREx_ControlVoltageScaling+0x1a>
 80025ce:	2000      	movs	r0, #0
 80025d0:	bd10      	pop	{r4, pc}
 80025d2:	4b0c      	ldr	r3, [pc, #48]	@ (8002604 <HAL_PWREx_ControlVoltageScaling+0x4c>)
 80025d4:	681b      	ldr	r3, [r3, #0]
 80025d6:	0058      	lsls	r0, r3, #1
 80025d8:	18c0      	adds	r0, r0, r3
 80025da:	0040      	lsls	r0, r0, #1
 80025dc:	490a      	ldr	r1, [pc, #40]	@ (8002608 <HAL_PWREx_ControlVoltageScaling+0x50>)
 80025de:	f7fd fda5 	bl	800012c <__udivsi3>
 80025e2:	3001      	adds	r0, #1
 80025e4:	4b05      	ldr	r3, [pc, #20]	@ (80025fc <HAL_PWREx_ControlVoltageScaling+0x44>)
 80025e6:	695b      	ldr	r3, [r3, #20]
 80025e8:	055b      	lsls	r3, r3, #21
 80025ea:	d503      	bpl.n	80025f4 <HAL_PWREx_ControlVoltageScaling+0x3c>
 80025ec:	2800      	cmp	r0, #0
 80025ee:	d003      	beq.n	80025f8 <HAL_PWREx_ControlVoltageScaling+0x40>
 80025f0:	3801      	subs	r0, #1
 80025f2:	e7f7      	b.n	80025e4 <HAL_PWREx_ControlVoltageScaling+0x2c>
 80025f4:	2000      	movs	r0, #0
 80025f6:	e7eb      	b.n	80025d0 <HAL_PWREx_ControlVoltageScaling+0x18>
 80025f8:	2003      	movs	r0, #3
 80025fa:	e7e9      	b.n	80025d0 <HAL_PWREx_ControlVoltageScaling+0x18>
 80025fc:	40007000 	.word	0x40007000
 8002600:	fffff9ff 	.word	0xfffff9ff
 8002604:	2000001c 	.word	0x2000001c
 8002608:	000f4240 	.word	0x000f4240

0800260c <HAL_RCC_OscConfig>:
 800260c:	b570      	push	{r4, r5, r6, lr}
 800260e:	b082      	sub	sp, #8
 8002610:	1e04      	subs	r4, r0, #0
 8002612:	d100      	bne.n	8002616 <HAL_RCC_OscConfig+0xa>
 8002614:	e231      	b.n	8002a7a <HAL_RCC_OscConfig+0x46e>
 8002616:	6803      	ldr	r3, [r0, #0]
 8002618:	07db      	lsls	r3, r3, #31
 800261a:	d539      	bpl.n	8002690 <HAL_RCC_OscConfig+0x84>
 800261c:	4ac1      	ldr	r2, [pc, #772]	@ (8002924 <HAL_RCC_OscConfig+0x318>)
 800261e:	6891      	ldr	r1, [r2, #8]
 8002620:	2338      	movs	r3, #56	@ 0x38
 8002622:	400b      	ands	r3, r1
 8002624:	68d1      	ldr	r1, [r2, #12]
 8002626:	2203      	movs	r2, #3
 8002628:	400a      	ands	r2, r1
 800262a:	2b10      	cmp	r3, #16
 800262c:	d026      	beq.n	800267c <HAL_RCC_OscConfig+0x70>
 800262e:	2b08      	cmp	r3, #8
 8002630:	d026      	beq.n	8002680 <HAL_RCC_OscConfig+0x74>
 8002632:	6863      	ldr	r3, [r4, #4]
 8002634:	2280      	movs	r2, #128	@ 0x80
 8002636:	0252      	lsls	r2, r2, #9
 8002638:	4293      	cmp	r3, r2
 800263a:	d07f      	beq.n	800273c <HAL_RCC_OscConfig+0x130>
 800263c:	22a0      	movs	r2, #160	@ 0xa0
 800263e:	02d2      	lsls	r2, r2, #11
 8002640:	4293      	cmp	r3, r2
 8002642:	d100      	bne.n	8002646 <HAL_RCC_OscConfig+0x3a>
 8002644:	e081      	b.n	800274a <HAL_RCC_OscConfig+0x13e>
 8002646:	4bb7      	ldr	r3, [pc, #732]	@ (8002924 <HAL_RCC_OscConfig+0x318>)
 8002648:	681a      	ldr	r2, [r3, #0]
 800264a:	49b7      	ldr	r1, [pc, #732]	@ (8002928 <HAL_RCC_OscConfig+0x31c>)
 800264c:	400a      	ands	r2, r1
 800264e:	601a      	str	r2, [r3, #0]
 8002650:	681a      	ldr	r2, [r3, #0]
 8002652:	49b6      	ldr	r1, [pc, #728]	@ (800292c <HAL_RCC_OscConfig+0x320>)
 8002654:	400a      	ands	r2, r1
 8002656:	601a      	str	r2, [r3, #0]
 8002658:	6863      	ldr	r3, [r4, #4]
 800265a:	2b00      	cmp	r3, #0
 800265c:	d100      	bne.n	8002660 <HAL_RCC_OscConfig+0x54>
 800265e:	e080      	b.n	8002762 <HAL_RCC_OscConfig+0x156>
 8002660:	f7ff f834 	bl	80016cc <HAL_GetTick>
 8002664:	0005      	movs	r5, r0
 8002666:	4baf      	ldr	r3, [pc, #700]	@ (8002924 <HAL_RCC_OscConfig+0x318>)
 8002668:	681b      	ldr	r3, [r3, #0]
 800266a:	039b      	lsls	r3, r3, #14
 800266c:	d410      	bmi.n	8002690 <HAL_RCC_OscConfig+0x84>
 800266e:	f7ff f82d 	bl	80016cc <HAL_GetTick>
 8002672:	1b40      	subs	r0, r0, r5
 8002674:	2864      	cmp	r0, #100	@ 0x64
 8002676:	d9f6      	bls.n	8002666 <HAL_RCC_OscConfig+0x5a>
 8002678:	2003      	movs	r0, #3
 800267a:	e1ff      	b.n	8002a7c <HAL_RCC_OscConfig+0x470>
 800267c:	2a03      	cmp	r2, #3
 800267e:	d1d6      	bne.n	800262e <HAL_RCC_OscConfig+0x22>
 8002680:	4ba8      	ldr	r3, [pc, #672]	@ (8002924 <HAL_RCC_OscConfig+0x318>)
 8002682:	681b      	ldr	r3, [r3, #0]
 8002684:	039b      	lsls	r3, r3, #14
 8002686:	d503      	bpl.n	8002690 <HAL_RCC_OscConfig+0x84>
 8002688:	6863      	ldr	r3, [r4, #4]
 800268a:	2b00      	cmp	r3, #0
 800268c:	d100      	bne.n	8002690 <HAL_RCC_OscConfig+0x84>
 800268e:	e1f7      	b.n	8002a80 <HAL_RCC_OscConfig+0x474>
 8002690:	6823      	ldr	r3, [r4, #0]
 8002692:	079b      	lsls	r3, r3, #30
 8002694:	d531      	bpl.n	80026fa <HAL_RCC_OscConfig+0xee>
 8002696:	4aa3      	ldr	r2, [pc, #652]	@ (8002924 <HAL_RCC_OscConfig+0x318>)
 8002698:	6891      	ldr	r1, [r2, #8]
 800269a:	2338      	movs	r3, #56	@ 0x38
 800269c:	400b      	ands	r3, r1
 800269e:	68d1      	ldr	r1, [r2, #12]
 80026a0:	2203      	movs	r2, #3
 80026a2:	400a      	ands	r2, r1
 80026a4:	2b10      	cmp	r3, #16
 80026a6:	d06a      	beq.n	800277e <HAL_RCC_OscConfig+0x172>
 80026a8:	2b00      	cmp	r3, #0
 80026aa:	d16b      	bne.n	8002784 <HAL_RCC_OscConfig+0x178>
 80026ac:	4a9d      	ldr	r2, [pc, #628]	@ (8002924 <HAL_RCC_OscConfig+0x318>)
 80026ae:	6812      	ldr	r2, [r2, #0]
 80026b0:	0552      	lsls	r2, r2, #21
 80026b2:	d503      	bpl.n	80026bc <HAL_RCC_OscConfig+0xb0>
 80026b4:	68e2      	ldr	r2, [r4, #12]
 80026b6:	2a00      	cmp	r2, #0
 80026b8:	d100      	bne.n	80026bc <HAL_RCC_OscConfig+0xb0>
 80026ba:	e1e3      	b.n	8002a84 <HAL_RCC_OscConfig+0x478>
 80026bc:	4899      	ldr	r0, [pc, #612]	@ (8002924 <HAL_RCC_OscConfig+0x318>)
 80026be:	6842      	ldr	r2, [r0, #4]
 80026c0:	499b      	ldr	r1, [pc, #620]	@ (8002930 <HAL_RCC_OscConfig+0x324>)
 80026c2:	400a      	ands	r2, r1
 80026c4:	6961      	ldr	r1, [r4, #20]
 80026c6:	0209      	lsls	r1, r1, #8
 80026c8:	430a      	orrs	r2, r1
 80026ca:	6042      	str	r2, [r0, #4]
 80026cc:	2b00      	cmp	r3, #0
 80026ce:	d10d      	bne.n	80026ec <HAL_RCC_OscConfig+0xe0>
 80026d0:	6803      	ldr	r3, [r0, #0]
 80026d2:	4998      	ldr	r1, [pc, #608]	@ (8002934 <HAL_RCC_OscConfig+0x328>)
 80026d4:	400b      	ands	r3, r1
 80026d6:	6921      	ldr	r1, [r4, #16]
 80026d8:	430b      	orrs	r3, r1
 80026da:	6003      	str	r3, [r0, #0]
 80026dc:	6803      	ldr	r3, [r0, #0]
 80026de:	0adb      	lsrs	r3, r3, #11
 80026e0:	2207      	movs	r2, #7
 80026e2:	401a      	ands	r2, r3
 80026e4:	4b94      	ldr	r3, [pc, #592]	@ (8002938 <HAL_RCC_OscConfig+0x32c>)
 80026e6:	40d3      	lsrs	r3, r2
 80026e8:	4a94      	ldr	r2, [pc, #592]	@ (800293c <HAL_RCC_OscConfig+0x330>)
 80026ea:	6013      	str	r3, [r2, #0]
 80026ec:	4b94      	ldr	r3, [pc, #592]	@ (8002940 <HAL_RCC_OscConfig+0x334>)
 80026ee:	6818      	ldr	r0, [r3, #0]
 80026f0:	f7fe ffa0 	bl	8001634 <HAL_InitTick>
 80026f4:	2800      	cmp	r0, #0
 80026f6:	d000      	beq.n	80026fa <HAL_RCC_OscConfig+0xee>
 80026f8:	e1c6      	b.n	8002a88 <HAL_RCC_OscConfig+0x47c>
 80026fa:	6823      	ldr	r3, [r4, #0]
 80026fc:	071b      	lsls	r3, r3, #28
 80026fe:	d400      	bmi.n	8002702 <HAL_RCC_OscConfig+0xf6>
 8002700:	e081      	b.n	8002806 <HAL_RCC_OscConfig+0x1fa>
 8002702:	4b88      	ldr	r3, [pc, #544]	@ (8002924 <HAL_RCC_OscConfig+0x318>)
 8002704:	689a      	ldr	r2, [r3, #8]
 8002706:	2338      	movs	r3, #56	@ 0x38
 8002708:	4013      	ands	r3, r2
 800270a:	2b18      	cmp	r3, #24
 800270c:	d073      	beq.n	80027f6 <HAL_RCC_OscConfig+0x1ea>
 800270e:	69a3      	ldr	r3, [r4, #24]
 8002710:	2b00      	cmp	r3, #0
 8002712:	d100      	bne.n	8002716 <HAL_RCC_OscConfig+0x10a>
 8002714:	e0b4      	b.n	8002880 <HAL_RCC_OscConfig+0x274>
 8002716:	4a83      	ldr	r2, [pc, #524]	@ (8002924 <HAL_RCC_OscConfig+0x318>)
 8002718:	6e13      	ldr	r3, [r2, #96]	@ 0x60
 800271a:	2101      	movs	r1, #1
 800271c:	430b      	orrs	r3, r1
 800271e:	6613      	str	r3, [r2, #96]	@ 0x60
 8002720:	f7fe ffd4 	bl	80016cc <HAL_GetTick>
 8002724:	0005      	movs	r5, r0
 8002726:	4b7f      	ldr	r3, [pc, #508]	@ (8002924 <HAL_RCC_OscConfig+0x318>)
 8002728:	6e1b      	ldr	r3, [r3, #96]	@ 0x60
 800272a:	079b      	lsls	r3, r3, #30
 800272c:	d46b      	bmi.n	8002806 <HAL_RCC_OscConfig+0x1fa>
 800272e:	f7fe ffcd 	bl	80016cc <HAL_GetTick>
 8002732:	1b40      	subs	r0, r0, r5
 8002734:	2802      	cmp	r0, #2
 8002736:	d9f6      	bls.n	8002726 <HAL_RCC_OscConfig+0x11a>
 8002738:	2003      	movs	r0, #3
 800273a:	e19f      	b.n	8002a7c <HAL_RCC_OscConfig+0x470>
 800273c:	4a79      	ldr	r2, [pc, #484]	@ (8002924 <HAL_RCC_OscConfig+0x318>)
 800273e:	6811      	ldr	r1, [r2, #0]
 8002740:	2380      	movs	r3, #128	@ 0x80
 8002742:	025b      	lsls	r3, r3, #9
 8002744:	430b      	orrs	r3, r1
 8002746:	6013      	str	r3, [r2, #0]
 8002748:	e786      	b.n	8002658 <HAL_RCC_OscConfig+0x4c>
 800274a:	4b76      	ldr	r3, [pc, #472]	@ (8002924 <HAL_RCC_OscConfig+0x318>)
 800274c:	6819      	ldr	r1, [r3, #0]
 800274e:	2280      	movs	r2, #128	@ 0x80
 8002750:	02d2      	lsls	r2, r2, #11
 8002752:	430a      	orrs	r2, r1
 8002754:	601a      	str	r2, [r3, #0]
 8002756:	6819      	ldr	r1, [r3, #0]
 8002758:	2280      	movs	r2, #128	@ 0x80
 800275a:	0252      	lsls	r2, r2, #9
 800275c:	430a      	orrs	r2, r1
 800275e:	601a      	str	r2, [r3, #0]
 8002760:	e77a      	b.n	8002658 <HAL_RCC_OscConfig+0x4c>
 8002762:	f7fe ffb3 	bl	80016cc <HAL_GetTick>
 8002766:	0005      	movs	r5, r0
 8002768:	4b6e      	ldr	r3, [pc, #440]	@ (8002924 <HAL_RCC_OscConfig+0x318>)
 800276a:	681b      	ldr	r3, [r3, #0]
 800276c:	039b      	lsls	r3, r3, #14
 800276e:	d58f      	bpl.n	8002690 <HAL_RCC_OscConfig+0x84>
 8002770:	f7fe ffac 	bl	80016cc <HAL_GetTick>
 8002774:	1b40      	subs	r0, r0, r5
 8002776:	2864      	cmp	r0, #100	@ 0x64
 8002778:	d9f6      	bls.n	8002768 <HAL_RCC_OscConfig+0x15c>
 800277a:	2003      	movs	r0, #3
 800277c:	e17e      	b.n	8002a7c <HAL_RCC_OscConfig+0x470>
 800277e:	2a02      	cmp	r2, #2
 8002780:	d192      	bne.n	80026a8 <HAL_RCC_OscConfig+0x9c>
 8002782:	e793      	b.n	80026ac <HAL_RCC_OscConfig+0xa0>
 8002784:	68e3      	ldr	r3, [r4, #12]
 8002786:	2b00      	cmp	r3, #0
 8002788:	d022      	beq.n	80027d0 <HAL_RCC_OscConfig+0x1c4>
 800278a:	4a66      	ldr	r2, [pc, #408]	@ (8002924 <HAL_RCC_OscConfig+0x318>)
 800278c:	6813      	ldr	r3, [r2, #0]
 800278e:	4969      	ldr	r1, [pc, #420]	@ (8002934 <HAL_RCC_OscConfig+0x328>)
 8002790:	400b      	ands	r3, r1
 8002792:	6921      	ldr	r1, [r4, #16]
 8002794:	430b      	orrs	r3, r1
 8002796:	6013      	str	r3, [r2, #0]
 8002798:	6811      	ldr	r1, [r2, #0]
 800279a:	2380      	movs	r3, #128	@ 0x80
 800279c:	005b      	lsls	r3, r3, #1
 800279e:	430b      	orrs	r3, r1
 80027a0:	6013      	str	r3, [r2, #0]
 80027a2:	f7fe ff93 	bl	80016cc <HAL_GetTick>
 80027a6:	0005      	movs	r5, r0
 80027a8:	4b5e      	ldr	r3, [pc, #376]	@ (8002924 <HAL_RCC_OscConfig+0x318>)
 80027aa:	681b      	ldr	r3, [r3, #0]
 80027ac:	055b      	lsls	r3, r3, #21
 80027ae:	d406      	bmi.n	80027be <HAL_RCC_OscConfig+0x1b2>
 80027b0:	f7fe ff8c 	bl	80016cc <HAL_GetTick>
 80027b4:	1b40      	subs	r0, r0, r5
 80027b6:	2802      	cmp	r0, #2
 80027b8:	d9f6      	bls.n	80027a8 <HAL_RCC_OscConfig+0x19c>
 80027ba:	2003      	movs	r0, #3
 80027bc:	e15e      	b.n	8002a7c <HAL_RCC_OscConfig+0x470>
 80027be:	4959      	ldr	r1, [pc, #356]	@ (8002924 <HAL_RCC_OscConfig+0x318>)
 80027c0:	684b      	ldr	r3, [r1, #4]
 80027c2:	4a5b      	ldr	r2, [pc, #364]	@ (8002930 <HAL_RCC_OscConfig+0x324>)
 80027c4:	4013      	ands	r3, r2
 80027c6:	6962      	ldr	r2, [r4, #20]
 80027c8:	0212      	lsls	r2, r2, #8
 80027ca:	4313      	orrs	r3, r2
 80027cc:	604b      	str	r3, [r1, #4]
 80027ce:	e794      	b.n	80026fa <HAL_RCC_OscConfig+0xee>
 80027d0:	4a54      	ldr	r2, [pc, #336]	@ (8002924 <HAL_RCC_OscConfig+0x318>)
 80027d2:	6813      	ldr	r3, [r2, #0]
 80027d4:	495b      	ldr	r1, [pc, #364]	@ (8002944 <HAL_RCC_OscConfig+0x338>)
 80027d6:	400b      	ands	r3, r1
 80027d8:	6013      	str	r3, [r2, #0]
 80027da:	f7fe ff77 	bl	80016cc <HAL_GetTick>
 80027de:	0005      	movs	r5, r0
 80027e0:	4b50      	ldr	r3, [pc, #320]	@ (8002924 <HAL_RCC_OscConfig+0x318>)
 80027e2:	681b      	ldr	r3, [r3, #0]
 80027e4:	055b      	lsls	r3, r3, #21
 80027e6:	d588      	bpl.n	80026fa <HAL_RCC_OscConfig+0xee>
 80027e8:	f7fe ff70 	bl	80016cc <HAL_GetTick>
 80027ec:	1b40      	subs	r0, r0, r5
 80027ee:	2802      	cmp	r0, #2
 80027f0:	d9f6      	bls.n	80027e0 <HAL_RCC_OscConfig+0x1d4>
 80027f2:	2003      	movs	r0, #3
 80027f4:	e142      	b.n	8002a7c <HAL_RCC_OscConfig+0x470>
 80027f6:	4b4b      	ldr	r3, [pc, #300]	@ (8002924 <HAL_RCC_OscConfig+0x318>)
 80027f8:	6e1b      	ldr	r3, [r3, #96]	@ 0x60
 80027fa:	079b      	lsls	r3, r3, #30
 80027fc:	d503      	bpl.n	8002806 <HAL_RCC_OscConfig+0x1fa>
 80027fe:	69a3      	ldr	r3, [r4, #24]
 8002800:	2b00      	cmp	r3, #0
 8002802:	d100      	bne.n	8002806 <HAL_RCC_OscConfig+0x1fa>
 8002804:	e142      	b.n	8002a8c <HAL_RCC_OscConfig+0x480>
 8002806:	6823      	ldr	r3, [r4, #0]
 8002808:	075b      	lsls	r3, r3, #29
 800280a:	d400      	bmi.n	800280e <HAL_RCC_OscConfig+0x202>
 800280c:	e0a2      	b.n	8002954 <HAL_RCC_OscConfig+0x348>
 800280e:	4b45      	ldr	r3, [pc, #276]	@ (8002924 <HAL_RCC_OscConfig+0x318>)
 8002810:	689a      	ldr	r2, [r3, #8]
 8002812:	2338      	movs	r3, #56	@ 0x38
 8002814:	4013      	ands	r3, r2
 8002816:	2b20      	cmp	r3, #32
 8002818:	d045      	beq.n	80028a6 <HAL_RCC_OscConfig+0x29a>
 800281a:	4b42      	ldr	r3, [pc, #264]	@ (8002924 <HAL_RCC_OscConfig+0x318>)
 800281c:	6bdb      	ldr	r3, [r3, #60]	@ 0x3c
 800281e:	00db      	lsls	r3, r3, #3
 8002820:	d44a      	bmi.n	80028b8 <HAL_RCC_OscConfig+0x2ac>
 8002822:	4b40      	ldr	r3, [pc, #256]	@ (8002924 <HAL_RCC_OscConfig+0x318>)
 8002824:	6bda      	ldr	r2, [r3, #60]	@ 0x3c
 8002826:	2180      	movs	r1, #128	@ 0x80
 8002828:	0549      	lsls	r1, r1, #21
 800282a:	430a      	orrs	r2, r1
 800282c:	63da      	str	r2, [r3, #60]	@ 0x3c
 800282e:	6bdb      	ldr	r3, [r3, #60]	@ 0x3c
 8002830:	400b      	ands	r3, r1
 8002832:	9301      	str	r3, [sp, #4]
 8002834:	9b01      	ldr	r3, [sp, #4]
 8002836:	2501      	movs	r5, #1
 8002838:	4b43      	ldr	r3, [pc, #268]	@ (8002948 <HAL_RCC_OscConfig+0x33c>)
 800283a:	681b      	ldr	r3, [r3, #0]
 800283c:	05db      	lsls	r3, r3, #23
 800283e:	d53d      	bpl.n	80028bc <HAL_RCC_OscConfig+0x2b0>
 8002840:	68a3      	ldr	r3, [r4, #8]
 8002842:	2b01      	cmp	r3, #1
 8002844:	d04e      	beq.n	80028e4 <HAL_RCC_OscConfig+0x2d8>
 8002846:	2b05      	cmp	r3, #5
 8002848:	d052      	beq.n	80028f0 <HAL_RCC_OscConfig+0x2e4>
 800284a:	4b36      	ldr	r3, [pc, #216]	@ (8002924 <HAL_RCC_OscConfig+0x318>)
 800284c:	6dda      	ldr	r2, [r3, #92]	@ 0x5c
 800284e:	2101      	movs	r1, #1
 8002850:	438a      	bics	r2, r1
 8002852:	65da      	str	r2, [r3, #92]	@ 0x5c
 8002854:	6dda      	ldr	r2, [r3, #92]	@ 0x5c
 8002856:	3103      	adds	r1, #3
 8002858:	438a      	bics	r2, r1
 800285a:	65da      	str	r2, [r3, #92]	@ 0x5c
 800285c:	68a3      	ldr	r3, [r4, #8]
 800285e:	2b00      	cmp	r3, #0
 8002860:	d050      	beq.n	8002904 <HAL_RCC_OscConfig+0x2f8>
 8002862:	f7fe ff33 	bl	80016cc <HAL_GetTick>
 8002866:	0006      	movs	r6, r0
 8002868:	4b2e      	ldr	r3, [pc, #184]	@ (8002924 <HAL_RCC_OscConfig+0x318>)
 800286a:	6ddb      	ldr	r3, [r3, #92]	@ 0x5c
 800286c:	079b      	lsls	r3, r3, #30
 800286e:	d46f      	bmi.n	8002950 <HAL_RCC_OscConfig+0x344>
 8002870:	f7fe ff2c 	bl	80016cc <HAL_GetTick>
 8002874:	1b80      	subs	r0, r0, r6
 8002876:	4b35      	ldr	r3, [pc, #212]	@ (800294c <HAL_RCC_OscConfig+0x340>)
 8002878:	4298      	cmp	r0, r3
 800287a:	d9f5      	bls.n	8002868 <HAL_RCC_OscConfig+0x25c>
 800287c:	2003      	movs	r0, #3
 800287e:	e0fd      	b.n	8002a7c <HAL_RCC_OscConfig+0x470>
 8002880:	4a28      	ldr	r2, [pc, #160]	@ (8002924 <HAL_RCC_OscConfig+0x318>)
 8002882:	6e13      	ldr	r3, [r2, #96]	@ 0x60
 8002884:	2101      	movs	r1, #1
 8002886:	438b      	bics	r3, r1
 8002888:	6613      	str	r3, [r2, #96]	@ 0x60
 800288a:	f7fe ff1f 	bl	80016cc <HAL_GetTick>
 800288e:	0005      	movs	r5, r0
 8002890:	4b24      	ldr	r3, [pc, #144]	@ (8002924 <HAL_RCC_OscConfig+0x318>)
 8002892:	6e1b      	ldr	r3, [r3, #96]	@ 0x60
 8002894:	079b      	lsls	r3, r3, #30
 8002896:	d5b6      	bpl.n	8002806 <HAL_RCC_OscConfig+0x1fa>
 8002898:	f7fe ff18 	bl	80016cc <HAL_GetTick>
 800289c:	1b40      	subs	r0, r0, r5
 800289e:	2802      	cmp	r0, #2
 80028a0:	d9f6      	bls.n	8002890 <HAL_RCC_OscConfig+0x284>
 80028a2:	2003      	movs	r0, #3
 80028a4:	e0ea      	b.n	8002a7c <HAL_RCC_OscConfig+0x470>
 80028a6:	4b1f      	ldr	r3, [pc, #124]	@ (8002924 <HAL_RCC_OscConfig+0x318>)
 80028a8:	6ddb      	ldr	r3, [r3, #92]	@ 0x5c
 80028aa:	079b      	lsls	r3, r3, #30
 80028ac:	d552      	bpl.n	8002954 <HAL_RCC_OscConfig+0x348>
 80028ae:	68a3      	ldr	r3, [r4, #8]
 80028b0:	2b00      	cmp	r3, #0
 80028b2:	d14f      	bne.n	8002954 <HAL_RCC_OscConfig+0x348>
 80028b4:	2001      	movs	r0, #1
 80028b6:	e0e1      	b.n	8002a7c <HAL_RCC_OscConfig+0x470>
 80028b8:	2500      	movs	r5, #0
 80028ba:	e7bd      	b.n	8002838 <HAL_RCC_OscConfig+0x22c>
 80028bc:	4a22      	ldr	r2, [pc, #136]	@ (8002948 <HAL_RCC_OscConfig+0x33c>)
 80028be:	6811      	ldr	r1, [r2, #0]
 80028c0:	2380      	movs	r3, #128	@ 0x80
 80028c2:	005b      	lsls	r3, r3, #1
 80028c4:	430b      	orrs	r3, r1
 80028c6:	6013      	str	r3, [r2, #0]
 80028c8:	f7fe ff00 	bl	80016cc <HAL_GetTick>
 80028cc:	0006      	movs	r6, r0
 80028ce:	4b1e      	ldr	r3, [pc, #120]	@ (8002948 <HAL_RCC_OscConfig+0x33c>)
 80028d0:	681b      	ldr	r3, [r3, #0]
 80028d2:	05db      	lsls	r3, r3, #23
 80028d4:	d4b4      	bmi.n	8002840 <HAL_RCC_OscConfig+0x234>
 80028d6:	f7fe fef9 	bl	80016cc <HAL_GetTick>
 80028da:	1b80      	subs	r0, r0, r6
 80028dc:	2802      	cmp	r0, #2
 80028de:	d9f6      	bls.n	80028ce <HAL_RCC_OscConfig+0x2c2>
 80028e0:	2003      	movs	r0, #3
 80028e2:	e0cb      	b.n	8002a7c <HAL_RCC_OscConfig+0x470>
 80028e4:	4a0f      	ldr	r2, [pc, #60]	@ (8002924 <HAL_RCC_OscConfig+0x318>)
 80028e6:	6dd3      	ldr	r3, [r2, #92]	@ 0x5c
 80028e8:	2101      	movs	r1, #1
 80028ea:	430b      	orrs	r3, r1
 80028ec:	65d3      	str	r3, [r2, #92]	@ 0x5c
 80028ee:	e7b5      	b.n	800285c <HAL_RCC_OscConfig+0x250>
 80028f0:	4b0c      	ldr	r3, [pc, #48]	@ (8002924 <HAL_RCC_OscConfig+0x318>)
 80028f2:	6dda      	ldr	r2, [r3, #92]	@ 0x5c
 80028f4:	2104      	movs	r1, #4
 80028f6:	430a      	orrs	r2, r1
 80028f8:	65da      	str	r2, [r3, #92]	@ 0x5c
 80028fa:	6dda      	ldr	r2, [r3, #92]	@ 0x5c
 80028fc:	3903      	subs	r1, #3
 80028fe:	430a      	orrs	r2, r1
 8002900:	65da      	str	r2, [r3, #92]	@ 0x5c
 8002902:	e7ab      	b.n	800285c <HAL_RCC_OscConfig+0x250>
 8002904:	f7fe fee2 	bl	80016cc <HAL_GetTick>
 8002908:	0006      	movs	r6, r0
 800290a:	4b06      	ldr	r3, [pc, #24]	@ (8002924 <HAL_RCC_OscConfig+0x318>)
 800290c:	6ddb      	ldr	r3, [r3, #92]	@ 0x5c
 800290e:	079b      	lsls	r3, r3, #30
 8002910:	d51e      	bpl.n	8002950 <HAL_RCC_OscConfig+0x344>
 8002912:	f7fe fedb 	bl	80016cc <HAL_GetTick>
 8002916:	1b80      	subs	r0, r0, r6
 8002918:	4b0c      	ldr	r3, [pc, #48]	@ (800294c <HAL_RCC_OscConfig+0x340>)
 800291a:	4298      	cmp	r0, r3
 800291c:	d9f5      	bls.n	800290a <HAL_RCC_OscConfig+0x2fe>
 800291e:	2003      	movs	r0, #3
 8002920:	e0ac      	b.n	8002a7c <HAL_RCC_OscConfig+0x470>
 8002922:	46c0      	nop			@ (mov r8, r8)
 8002924:	40021000 	.word	0x40021000
 8002928:	fffeffff 	.word	0xfffeffff
 800292c:	fffbffff 	.word	0xfffbffff
 8002930:	ffff80ff 	.word	0xffff80ff
 8002934:	ffffc7ff 	.word	0xffffc7ff
 8002938:	00f42400 	.word	0x00f42400
 800293c:	2000001c 	.word	0x2000001c
 8002940:	20000024 	.word	0x20000024
 8002944:	fffffeff 	.word	0xfffffeff
 8002948:	40007000 	.word	0x40007000
 800294c:	00001388 	.word	0x00001388
 8002950:	2d01      	cmp	r5, #1
 8002952:	d01e      	beq.n	8002992 <HAL_RCC_OscConfig+0x386>
 8002954:	69e3      	ldr	r3, [r4, #28]
 8002956:	2b00      	cmp	r3, #0
 8002958:	d100      	bne.n	800295c <HAL_RCC_OscConfig+0x350>
 800295a:	e099      	b.n	8002a90 <HAL_RCC_OscConfig+0x484>
 800295c:	4a54      	ldr	r2, [pc, #336]	@ (8002ab0 <HAL_RCC_OscConfig+0x4a4>)
 800295e:	6891      	ldr	r1, [r2, #8]
 8002960:	2238      	movs	r2, #56	@ 0x38
 8002962:	400a      	ands	r2, r1
 8002964:	2a10      	cmp	r2, #16
 8002966:	d060      	beq.n	8002a2a <HAL_RCC_OscConfig+0x41e>
 8002968:	2b02      	cmp	r3, #2
 800296a:	d018      	beq.n	800299e <HAL_RCC_OscConfig+0x392>
 800296c:	4a50      	ldr	r2, [pc, #320]	@ (8002ab0 <HAL_RCC_OscConfig+0x4a4>)
 800296e:	6813      	ldr	r3, [r2, #0]
 8002970:	4950      	ldr	r1, [pc, #320]	@ (8002ab4 <HAL_RCC_OscConfig+0x4a8>)
 8002972:	400b      	ands	r3, r1
 8002974:	6013      	str	r3, [r2, #0]
 8002976:	f7fe fea9 	bl	80016cc <HAL_GetTick>
 800297a:	0004      	movs	r4, r0
 800297c:	4b4c      	ldr	r3, [pc, #304]	@ (8002ab0 <HAL_RCC_OscConfig+0x4a4>)
 800297e:	681b      	ldr	r3, [r3, #0]
 8002980:	019b      	lsls	r3, r3, #6
 8002982:	d54b      	bpl.n	8002a1c <HAL_RCC_OscConfig+0x410>
 8002984:	f7fe fea2 	bl	80016cc <HAL_GetTick>
 8002988:	1b00      	subs	r0, r0, r4
 800298a:	2802      	cmp	r0, #2
 800298c:	d9f6      	bls.n	800297c <HAL_RCC_OscConfig+0x370>
 800298e:	2003      	movs	r0, #3
 8002990:	e074      	b.n	8002a7c <HAL_RCC_OscConfig+0x470>
 8002992:	4a47      	ldr	r2, [pc, #284]	@ (8002ab0 <HAL_RCC_OscConfig+0x4a4>)
 8002994:	6bd3      	ldr	r3, [r2, #60]	@ 0x3c
 8002996:	4948      	ldr	r1, [pc, #288]	@ (8002ab8 <HAL_RCC_OscConfig+0x4ac>)
 8002998:	400b      	ands	r3, r1
 800299a:	63d3      	str	r3, [r2, #60]	@ 0x3c
 800299c:	e7da      	b.n	8002954 <HAL_RCC_OscConfig+0x348>
 800299e:	4a44      	ldr	r2, [pc, #272]	@ (8002ab0 <HAL_RCC_OscConfig+0x4a4>)
 80029a0:	6813      	ldr	r3, [r2, #0]
 80029a2:	4944      	ldr	r1, [pc, #272]	@ (8002ab4 <HAL_RCC_OscConfig+0x4a8>)
 80029a4:	400b      	ands	r3, r1
 80029a6:	6013      	str	r3, [r2, #0]
 80029a8:	f7fe fe90 	bl	80016cc <HAL_GetTick>
 80029ac:	0005      	movs	r5, r0
 80029ae:	4b40      	ldr	r3, [pc, #256]	@ (8002ab0 <HAL_RCC_OscConfig+0x4a4>)
 80029b0:	681b      	ldr	r3, [r3, #0]
 80029b2:	019b      	lsls	r3, r3, #6
 80029b4:	d506      	bpl.n	80029c4 <HAL_RCC_OscConfig+0x3b8>
 80029b6:	f7fe fe89 	bl	80016cc <HAL_GetTick>
 80029ba:	1b40      	subs	r0, r0, r5
 80029bc:	2802      	cmp	r0, #2
 80029be:	d9f6      	bls.n	80029ae <HAL_RCC_OscConfig+0x3a2>
 80029c0:	2003      	movs	r0, #3
 80029c2:	e05b      	b.n	8002a7c <HAL_RCC_OscConfig+0x470>
 80029c4:	4a3a      	ldr	r2, [pc, #232]	@ (8002ab0 <HAL_RCC_OscConfig+0x4a4>)
 80029c6:	68d3      	ldr	r3, [r2, #12]
 80029c8:	493c      	ldr	r1, [pc, #240]	@ (8002abc <HAL_RCC_OscConfig+0x4b0>)
 80029ca:	4019      	ands	r1, r3
 80029cc:	6a23      	ldr	r3, [r4, #32]
 80029ce:	6a60      	ldr	r0, [r4, #36]	@ 0x24
 80029d0:	4303      	orrs	r3, r0
 80029d2:	6aa0      	ldr	r0, [r4, #40]	@ 0x28
 80029d4:	0200      	lsls	r0, r0, #8
 80029d6:	4303      	orrs	r3, r0
 80029d8:	6ae0      	ldr	r0, [r4, #44]	@ 0x2c
 80029da:	4303      	orrs	r3, r0
 80029dc:	6b20      	ldr	r0, [r4, #48]	@ 0x30
 80029de:	4303      	orrs	r3, r0
 80029e0:	6b60      	ldr	r0, [r4, #52]	@ 0x34
 80029e2:	4303      	orrs	r3, r0
 80029e4:	430b      	orrs	r3, r1
 80029e6:	60d3      	str	r3, [r2, #12]
 80029e8:	6811      	ldr	r1, [r2, #0]
 80029ea:	2380      	movs	r3, #128	@ 0x80
 80029ec:	045b      	lsls	r3, r3, #17
 80029ee:	430b      	orrs	r3, r1
 80029f0:	6013      	str	r3, [r2, #0]
 80029f2:	68d1      	ldr	r1, [r2, #12]
 80029f4:	2380      	movs	r3, #128	@ 0x80
 80029f6:	055b      	lsls	r3, r3, #21
 80029f8:	430b      	orrs	r3, r1
 80029fa:	60d3      	str	r3, [r2, #12]
 80029fc:	f7fe fe66 	bl	80016cc <HAL_GetTick>
 8002a00:	0004      	movs	r4, r0
 8002a02:	4b2b      	ldr	r3, [pc, #172]	@ (8002ab0 <HAL_RCC_OscConfig+0x4a4>)
 8002a04:	681b      	ldr	r3, [r3, #0]
 8002a06:	019b      	lsls	r3, r3, #6
 8002a08:	d406      	bmi.n	8002a18 <HAL_RCC_OscConfig+0x40c>
 8002a0a:	f7fe fe5f 	bl	80016cc <HAL_GetTick>
 8002a0e:	1b00      	subs	r0, r0, r4
 8002a10:	2802      	cmp	r0, #2
 8002a12:	d9f6      	bls.n	8002a02 <HAL_RCC_OscConfig+0x3f6>
 8002a14:	2003      	movs	r0, #3
 8002a16:	e031      	b.n	8002a7c <HAL_RCC_OscConfig+0x470>
 8002a18:	2000      	movs	r0, #0
 8002a1a:	e02f      	b.n	8002a7c <HAL_RCC_OscConfig+0x470>
 8002a1c:	4a24      	ldr	r2, [pc, #144]	@ (8002ab0 <HAL_RCC_OscConfig+0x4a4>)
 8002a1e:	68d3      	ldr	r3, [r2, #12]
 8002a20:	4927      	ldr	r1, [pc, #156]	@ (8002ac0 <HAL_RCC_OscConfig+0x4b4>)
 8002a22:	400b      	ands	r3, r1
 8002a24:	60d3      	str	r3, [r2, #12]
 8002a26:	2000      	movs	r0, #0
 8002a28:	e028      	b.n	8002a7c <HAL_RCC_OscConfig+0x470>
 8002a2a:	2b01      	cmp	r3, #1
 8002a2c:	d032      	beq.n	8002a94 <HAL_RCC_OscConfig+0x488>
 8002a2e:	4b20      	ldr	r3, [pc, #128]	@ (8002ab0 <HAL_RCC_OscConfig+0x4a4>)
 8002a30:	68da      	ldr	r2, [r3, #12]
 8002a32:	2303      	movs	r3, #3
 8002a34:	4013      	ands	r3, r2
 8002a36:	6a21      	ldr	r1, [r4, #32]
 8002a38:	428b      	cmp	r3, r1
 8002a3a:	d12d      	bne.n	8002a98 <HAL_RCC_OscConfig+0x48c>
 8002a3c:	2370      	movs	r3, #112	@ 0x70
 8002a3e:	4013      	ands	r3, r2
 8002a40:	6a61      	ldr	r1, [r4, #36]	@ 0x24
 8002a42:	428b      	cmp	r3, r1
 8002a44:	d12a      	bne.n	8002a9c <HAL_RCC_OscConfig+0x490>
 8002a46:	21fe      	movs	r1, #254	@ 0xfe
 8002a48:	01c9      	lsls	r1, r1, #7
 8002a4a:	4011      	ands	r1, r2
 8002a4c:	6aa3      	ldr	r3, [r4, #40]	@ 0x28
 8002a4e:	021b      	lsls	r3, r3, #8
 8002a50:	4299      	cmp	r1, r3
 8002a52:	d125      	bne.n	8002aa0 <HAL_RCC_OscConfig+0x494>
 8002a54:	23f8      	movs	r3, #248	@ 0xf8
 8002a56:	039b      	lsls	r3, r3, #14
 8002a58:	4013      	ands	r3, r2
 8002a5a:	6ae1      	ldr	r1, [r4, #44]	@ 0x2c
 8002a5c:	428b      	cmp	r3, r1
 8002a5e:	d121      	bne.n	8002aa4 <HAL_RCC_OscConfig+0x498>
 8002a60:	23e0      	movs	r3, #224	@ 0xe0
 8002a62:	051b      	lsls	r3, r3, #20
 8002a64:	4013      	ands	r3, r2
 8002a66:	6b21      	ldr	r1, [r4, #48]	@ 0x30
 8002a68:	428b      	cmp	r3, r1
 8002a6a:	d11d      	bne.n	8002aa8 <HAL_RCC_OscConfig+0x49c>
 8002a6c:	0f52      	lsrs	r2, r2, #29
 8002a6e:	0752      	lsls	r2, r2, #29
 8002a70:	6b63      	ldr	r3, [r4, #52]	@ 0x34
 8002a72:	429a      	cmp	r2, r3
 8002a74:	d11a      	bne.n	8002aac <HAL_RCC_OscConfig+0x4a0>
 8002a76:	2000      	movs	r0, #0
 8002a78:	e000      	b.n	8002a7c <HAL_RCC_OscConfig+0x470>
 8002a7a:	2001      	movs	r0, #1
 8002a7c:	b002      	add	sp, #8
 8002a7e:	bd70      	pop	{r4, r5, r6, pc}
 8002a80:	2001      	movs	r0, #1
 8002a82:	e7fb      	b.n	8002a7c <HAL_RCC_OscConfig+0x470>
 8002a84:	2001      	movs	r0, #1
 8002a86:	e7f9      	b.n	8002a7c <HAL_RCC_OscConfig+0x470>
 8002a88:	2001      	movs	r0, #1
 8002a8a:	e7f7      	b.n	8002a7c <HAL_RCC_OscConfig+0x470>
 8002a8c:	2001      	movs	r0, #1
 8002a8e:	e7f5      	b.n	8002a7c <HAL_RCC_OscConfig+0x470>
 8002a90:	2000      	movs	r0, #0
 8002a92:	e7f3      	b.n	8002a7c <HAL_RCC_OscConfig+0x470>
 8002a94:	2001      	movs	r0, #1
 8002a96:	e7f1      	b.n	8002a7c <HAL_RCC_OscConfig+0x470>
 8002a98:	2001      	movs	r0, #1
 8002a9a:	e7ef      	b.n	8002a7c <HAL_RCC_OscConfig+0x470>
 8002a9c:	2001      	movs	r0, #1
 8002a9e:	e7ed      	b.n	8002a7c <HAL_RCC_OscConfig+0x470>
 8002aa0:	2001      	movs	r0, #1
 8002aa2:	e7eb      	b.n	8002a7c <HAL_RCC_OscConfig+0x470>
 8002aa4:	2001      	movs	r0, #1
 8002aa6:	e7e9      	b.n	8002a7c <HAL_RCC_OscConfig+0x470>
 8002aa8:	2001      	movs	r0, #1
 8002aaa:	e7e7      	b.n	8002a7c <HAL_RCC_OscConfig+0x470>
 8002aac:	2001      	movs	r0, #1
 8002aae:	e7e5      	b.n	8002a7c <HAL_RCC_OscConfig+0x470>
 8002ab0:	40021000 	.word	0x40021000
 8002ab4:	feffffff 	.word	0xfeffffff
 8002ab8:	efffffff 	.word	0xefffffff
 8002abc:	11c1808c 	.word	0x11c1808c
 8002ac0:	eefefffc 	.word	0xeefefffc

08002ac4 <HAL_RCC_GetSysClockFreq>:
 8002ac4:	b510      	push	{r4, lr}
 8002ac6:	4b2a      	ldr	r3, [pc, #168]	@ (8002b70 <HAL_RCC_GetSysClockFreq+0xac>)
 8002ac8:	689b      	ldr	r3, [r3, #8]
 8002aca:	2238      	movs	r2, #56	@ 0x38
 8002acc:	421a      	tst	r2, r3
 8002ace:	d107      	bne.n	8002ae0 <HAL_RCC_GetSysClockFreq+0x1c>
 8002ad0:	4b27      	ldr	r3, [pc, #156]	@ (8002b70 <HAL_RCC_GetSysClockFreq+0xac>)
 8002ad2:	681a      	ldr	r2, [r3, #0]
 8002ad4:	0ad2      	lsrs	r2, r2, #11
 8002ad6:	2307      	movs	r3, #7
 8002ad8:	4013      	ands	r3, r2
 8002ada:	4826      	ldr	r0, [pc, #152]	@ (8002b74 <HAL_RCC_GetSysClockFreq+0xb0>)
 8002adc:	40d8      	lsrs	r0, r3
 8002ade:	bd10      	pop	{r4, pc}
 8002ae0:	4b23      	ldr	r3, [pc, #140]	@ (8002b70 <HAL_RCC_GetSysClockFreq+0xac>)
 8002ae2:	689a      	ldr	r2, [r3, #8]
 8002ae4:	2338      	movs	r3, #56	@ 0x38
 8002ae6:	4013      	ands	r3, r2
 8002ae8:	2b08      	cmp	r3, #8
 8002aea:	d03b      	beq.n	8002b64 <HAL_RCC_GetSysClockFreq+0xa0>
 8002aec:	4b20      	ldr	r3, [pc, #128]	@ (8002b70 <HAL_RCC_GetSysClockFreq+0xac>)
 8002aee:	689a      	ldr	r2, [r3, #8]
 8002af0:	2338      	movs	r3, #56	@ 0x38
 8002af2:	4013      	ands	r3, r2
 8002af4:	2b10      	cmp	r3, #16
 8002af6:	d00d      	beq.n	8002b14 <HAL_RCC_GetSysClockFreq+0x50>
 8002af8:	4b1d      	ldr	r3, [pc, #116]	@ (8002b70 <HAL_RCC_GetSysClockFreq+0xac>)
 8002afa:	689a      	ldr	r2, [r3, #8]
 8002afc:	2338      	movs	r3, #56	@ 0x38
 8002afe:	4013      	ands	r3, r2
 8002b00:	2b20      	cmp	r3, #32
 8002b02:	d031      	beq.n	8002b68 <HAL_RCC_GetSysClockFreq+0xa4>
 8002b04:	4b1a      	ldr	r3, [pc, #104]	@ (8002b70 <HAL_RCC_GetSysClockFreq+0xac>)
 8002b06:	689a      	ldr	r2, [r3, #8]
 8002b08:	2338      	movs	r3, #56	@ 0x38
 8002b0a:	4013      	ands	r3, r2
 8002b0c:	2b18      	cmp	r3, #24
 8002b0e:	d026      	beq.n	8002b5e <HAL_RCC_GetSysClockFreq+0x9a>
 8002b10:	2000      	movs	r0, #0
 8002b12:	e7e4      	b.n	8002ade <HAL_RCC_GetSysClockFreq+0x1a>
 8002b14:	4a16      	ldr	r2, [pc, #88]	@ (8002b70 <HAL_RCC_GetSysClockFreq+0xac>)
 8002b16:	68d1      	ldr	r1, [r2, #12]
 8002b18:	3b0d      	subs	r3, #13
 8002b1a:	400b      	ands	r3, r1
 8002b1c:	68d2      	ldr	r2, [r2, #12]
 8002b1e:	0912      	lsrs	r2, r2, #4
 8002b20:	2107      	movs	r1, #7
 8002b22:	4011      	ands	r1, r2
 8002b24:	3101      	adds	r1, #1
 8002b26:	2b03      	cmp	r3, #3
 8002b28:	d00f      	beq.n	8002b4a <HAL_RCC_GetSysClockFreq+0x86>
 8002b2a:	4812      	ldr	r0, [pc, #72]	@ (8002b74 <HAL_RCC_GetSysClockFreq+0xb0>)
 8002b2c:	f7fd fafe 	bl	800012c <__udivsi3>
 8002b30:	4b0f      	ldr	r3, [pc, #60]	@ (8002b70 <HAL_RCC_GetSysClockFreq+0xac>)
 8002b32:	68da      	ldr	r2, [r3, #12]
 8002b34:	0a12      	lsrs	r2, r2, #8
 8002b36:	237f      	movs	r3, #127	@ 0x7f
 8002b38:	4013      	ands	r3, r2
 8002b3a:	4358      	muls	r0, r3
 8002b3c:	4b0c      	ldr	r3, [pc, #48]	@ (8002b70 <HAL_RCC_GetSysClockFreq+0xac>)
 8002b3e:	68d9      	ldr	r1, [r3, #12]
 8002b40:	0f49      	lsrs	r1, r1, #29
 8002b42:	3101      	adds	r1, #1
 8002b44:	f7fd faf2 	bl	800012c <__udivsi3>
 8002b48:	e7c9      	b.n	8002ade <HAL_RCC_GetSysClockFreq+0x1a>
 8002b4a:	480b      	ldr	r0, [pc, #44]	@ (8002b78 <HAL_RCC_GetSysClockFreq+0xb4>)
 8002b4c:	f7fd faee 	bl	800012c <__udivsi3>
 8002b50:	4b07      	ldr	r3, [pc, #28]	@ (8002b70 <HAL_RCC_GetSysClockFreq+0xac>)
 8002b52:	68da      	ldr	r2, [r3, #12]
 8002b54:	0a12      	lsrs	r2, r2, #8
 8002b56:	237f      	movs	r3, #127	@ 0x7f
 8002b58:	4013      	ands	r3, r2
 8002b5a:	4358      	muls	r0, r3
 8002b5c:	e7ee      	b.n	8002b3c <HAL_RCC_GetSysClockFreq+0x78>
 8002b5e:	20fa      	movs	r0, #250	@ 0xfa
 8002b60:	01c0      	lsls	r0, r0, #7
 8002b62:	e7bc      	b.n	8002ade <HAL_RCC_GetSysClockFreq+0x1a>
 8002b64:	4804      	ldr	r0, [pc, #16]	@ (8002b78 <HAL_RCC_GetSysClockFreq+0xb4>)
 8002b66:	e7ba      	b.n	8002ade <HAL_RCC_GetSysClockFreq+0x1a>
 8002b68:	2080      	movs	r0, #128	@ 0x80
 8002b6a:	0200      	lsls	r0, r0, #8
 8002b6c:	e7b7      	b.n	8002ade <HAL_RCC_GetSysClockFreq+0x1a>
 8002b6e:	46c0      	nop			@ (mov r8, r8)
 8002b70:	40021000 	.word	0x40021000
 8002b74:	00f42400 	.word	0x00f42400
 8002b78:	007a1200 	.word	0x007a1200

08002b7c <HAL_RCC_ClockConfig>:
 8002b7c:	b570      	push	{r4, r5, r6, lr}
 8002b7e:	0004      	movs	r4, r0
 8002b80:	000d      	movs	r5, r1
 8002b82:	2800      	cmp	r0, #0
 8002b84:	d100      	bne.n	8002b88 <HAL_RCC_ClockConfig+0xc>
 8002b86:	e0aa      	b.n	8002cde <HAL_RCC_ClockConfig+0x162>
 8002b88:	4b57      	ldr	r3, [pc, #348]	@ (8002ce8 <HAL_RCC_ClockConfig+0x16c>)
 8002b8a:	681a      	ldr	r2, [r3, #0]
 8002b8c:	2307      	movs	r3, #7
 8002b8e:	4013      	ands	r3, r2
 8002b90:	428b      	cmp	r3, r1
 8002b92:	d321      	bcc.n	8002bd8 <HAL_RCC_ClockConfig+0x5c>
 8002b94:	6823      	ldr	r3, [r4, #0]
 8002b96:	079a      	lsls	r2, r3, #30
 8002b98:	d50e      	bpl.n	8002bb8 <HAL_RCC_ClockConfig+0x3c>
 8002b9a:	075b      	lsls	r3, r3, #29
 8002b9c:	d505      	bpl.n	8002baa <HAL_RCC_ClockConfig+0x2e>
 8002b9e:	4a53      	ldr	r2, [pc, #332]	@ (8002cec <HAL_RCC_ClockConfig+0x170>)
 8002ba0:	6891      	ldr	r1, [r2, #8]
 8002ba2:	23e0      	movs	r3, #224	@ 0xe0
 8002ba4:	01db      	lsls	r3, r3, #7
 8002ba6:	430b      	orrs	r3, r1
 8002ba8:	6093      	str	r3, [r2, #8]
 8002baa:	4a50      	ldr	r2, [pc, #320]	@ (8002cec <HAL_RCC_ClockConfig+0x170>)
 8002bac:	6893      	ldr	r3, [r2, #8]
 8002bae:	4950      	ldr	r1, [pc, #320]	@ (8002cf0 <HAL_RCC_ClockConfig+0x174>)
 8002bb0:	400b      	ands	r3, r1
 8002bb2:	68a1      	ldr	r1, [r4, #8]
 8002bb4:	430b      	orrs	r3, r1
 8002bb6:	6093      	str	r3, [r2, #8]
 8002bb8:	6823      	ldr	r3, [r4, #0]
 8002bba:	07db      	lsls	r3, r3, #31
 8002bbc:	d554      	bpl.n	8002c68 <HAL_RCC_ClockConfig+0xec>
 8002bbe:	6863      	ldr	r3, [r4, #4]
 8002bc0:	2b01      	cmp	r3, #1
 8002bc2:	d020      	beq.n	8002c06 <HAL_RCC_ClockConfig+0x8a>
 8002bc4:	2b02      	cmp	r3, #2
 8002bc6:	d03b      	beq.n	8002c40 <HAL_RCC_ClockConfig+0xc4>
 8002bc8:	2b00      	cmp	r3, #0
 8002bca:	d13f      	bne.n	8002c4c <HAL_RCC_ClockConfig+0xd0>
 8002bcc:	4a47      	ldr	r2, [pc, #284]	@ (8002cec <HAL_RCC_ClockConfig+0x170>)
 8002bce:	6812      	ldr	r2, [r2, #0]
 8002bd0:	0552      	lsls	r2, r2, #21
 8002bd2:	d41c      	bmi.n	8002c0e <HAL_RCC_ClockConfig+0x92>
 8002bd4:	2001      	movs	r0, #1
 8002bd6:	e06a      	b.n	8002cae <HAL_RCC_ClockConfig+0x132>
 8002bd8:	4a43      	ldr	r2, [pc, #268]	@ (8002ce8 <HAL_RCC_ClockConfig+0x16c>)
 8002bda:	6813      	ldr	r3, [r2, #0]
 8002bdc:	2107      	movs	r1, #7
 8002bde:	438b      	bics	r3, r1
 8002be0:	432b      	orrs	r3, r5
 8002be2:	6013      	str	r3, [r2, #0]
 8002be4:	f7fe fd72 	bl	80016cc <HAL_GetTick>
 8002be8:	0006      	movs	r6, r0
 8002bea:	4b3f      	ldr	r3, [pc, #252]	@ (8002ce8 <HAL_RCC_ClockConfig+0x16c>)
 8002bec:	681a      	ldr	r2, [r3, #0]
 8002bee:	2307      	movs	r3, #7
 8002bf0:	4013      	ands	r3, r2
 8002bf2:	42ab      	cmp	r3, r5
 8002bf4:	d0ce      	beq.n	8002b94 <HAL_RCC_ClockConfig+0x18>
 8002bf6:	f7fe fd69 	bl	80016cc <HAL_GetTick>
 8002bfa:	1b80      	subs	r0, r0, r6
 8002bfc:	4a3d      	ldr	r2, [pc, #244]	@ (8002cf4 <HAL_RCC_ClockConfig+0x178>)
 8002bfe:	4290      	cmp	r0, r2
 8002c00:	d9f3      	bls.n	8002bea <HAL_RCC_ClockConfig+0x6e>
 8002c02:	2003      	movs	r0, #3
 8002c04:	e053      	b.n	8002cae <HAL_RCC_ClockConfig+0x132>
 8002c06:	4a39      	ldr	r2, [pc, #228]	@ (8002cec <HAL_RCC_ClockConfig+0x170>)
 8002c08:	6812      	ldr	r2, [r2, #0]
 8002c0a:	0392      	lsls	r2, r2, #14
 8002c0c:	d569      	bpl.n	8002ce2 <HAL_RCC_ClockConfig+0x166>
 8002c0e:	4937      	ldr	r1, [pc, #220]	@ (8002cec <HAL_RCC_ClockConfig+0x170>)
 8002c10:	688a      	ldr	r2, [r1, #8]
 8002c12:	2007      	movs	r0, #7
 8002c14:	4382      	bics	r2, r0
 8002c16:	4313      	orrs	r3, r2
 8002c18:	608b      	str	r3, [r1, #8]
 8002c1a:	f7fe fd57 	bl	80016cc <HAL_GetTick>
 8002c1e:	0006      	movs	r6, r0
 8002c20:	4b32      	ldr	r3, [pc, #200]	@ (8002cec <HAL_RCC_ClockConfig+0x170>)
 8002c22:	689b      	ldr	r3, [r3, #8]
 8002c24:	2238      	movs	r2, #56	@ 0x38
 8002c26:	401a      	ands	r2, r3
 8002c28:	6863      	ldr	r3, [r4, #4]
 8002c2a:	00db      	lsls	r3, r3, #3
 8002c2c:	429a      	cmp	r2, r3
 8002c2e:	d01b      	beq.n	8002c68 <HAL_RCC_ClockConfig+0xec>
 8002c30:	f7fe fd4c 	bl	80016cc <HAL_GetTick>
 8002c34:	1b80      	subs	r0, r0, r6
 8002c36:	4b2f      	ldr	r3, [pc, #188]	@ (8002cf4 <HAL_RCC_ClockConfig+0x178>)
 8002c38:	4298      	cmp	r0, r3
 8002c3a:	d9f1      	bls.n	8002c20 <HAL_RCC_ClockConfig+0xa4>
 8002c3c:	2003      	movs	r0, #3
 8002c3e:	e036      	b.n	8002cae <HAL_RCC_ClockConfig+0x132>
 8002c40:	4a2a      	ldr	r2, [pc, #168]	@ (8002cec <HAL_RCC_ClockConfig+0x170>)
 8002c42:	6812      	ldr	r2, [r2, #0]
 8002c44:	0192      	lsls	r2, r2, #6
 8002c46:	d4e2      	bmi.n	8002c0e <HAL_RCC_ClockConfig+0x92>
 8002c48:	2001      	movs	r0, #1
 8002c4a:	e030      	b.n	8002cae <HAL_RCC_ClockConfig+0x132>
 8002c4c:	2b03      	cmp	r3, #3
 8002c4e:	d005      	beq.n	8002c5c <HAL_RCC_ClockConfig+0xe0>
 8002c50:	4a26      	ldr	r2, [pc, #152]	@ (8002cec <HAL_RCC_ClockConfig+0x170>)
 8002c52:	6dd2      	ldr	r2, [r2, #92]	@ 0x5c
 8002c54:	0792      	lsls	r2, r2, #30
 8002c56:	d4da      	bmi.n	8002c0e <HAL_RCC_ClockConfig+0x92>
 8002c58:	2001      	movs	r0, #1
 8002c5a:	e028      	b.n	8002cae <HAL_RCC_ClockConfig+0x132>
 8002c5c:	4a23      	ldr	r2, [pc, #140]	@ (8002cec <HAL_RCC_ClockConfig+0x170>)
 8002c5e:	6e12      	ldr	r2, [r2, #96]	@ 0x60
 8002c60:	0792      	lsls	r2, r2, #30
 8002c62:	d4d4      	bmi.n	8002c0e <HAL_RCC_ClockConfig+0x92>
 8002c64:	2001      	movs	r0, #1
 8002c66:	e022      	b.n	8002cae <HAL_RCC_ClockConfig+0x132>
 8002c68:	4b1f      	ldr	r3, [pc, #124]	@ (8002ce8 <HAL_RCC_ClockConfig+0x16c>)
 8002c6a:	681a      	ldr	r2, [r3, #0]
 8002c6c:	2307      	movs	r3, #7
 8002c6e:	4013      	ands	r3, r2
 8002c70:	42ab      	cmp	r3, r5
 8002c72:	d81d      	bhi.n	8002cb0 <HAL_RCC_ClockConfig+0x134>
 8002c74:	6823      	ldr	r3, [r4, #0]
 8002c76:	075b      	lsls	r3, r3, #29
 8002c78:	d506      	bpl.n	8002c88 <HAL_RCC_ClockConfig+0x10c>
 8002c7a:	4a1c      	ldr	r2, [pc, #112]	@ (8002cec <HAL_RCC_ClockConfig+0x170>)
 8002c7c:	6893      	ldr	r3, [r2, #8]
 8002c7e:	491e      	ldr	r1, [pc, #120]	@ (8002cf8 <HAL_RCC_ClockConfig+0x17c>)
 8002c80:	400b      	ands	r3, r1
 8002c82:	68e1      	ldr	r1, [r4, #12]
 8002c84:	430b      	orrs	r3, r1
 8002c86:	6093      	str	r3, [r2, #8]
 8002c88:	f7ff ff1c 	bl	8002ac4 <HAL_RCC_GetSysClockFreq>
 8002c8c:	4b17      	ldr	r3, [pc, #92]	@ (8002cec <HAL_RCC_ClockConfig+0x170>)
 8002c8e:	689a      	ldr	r2, [r3, #8]
 8002c90:	0a12      	lsrs	r2, r2, #8
 8002c92:	230f      	movs	r3, #15
 8002c94:	4013      	ands	r3, r2
 8002c96:	4a19      	ldr	r2, [pc, #100]	@ (8002cfc <HAL_RCC_ClockConfig+0x180>)
 8002c98:	009b      	lsls	r3, r3, #2
 8002c9a:	589a      	ldr	r2, [r3, r2]
 8002c9c:	231f      	movs	r3, #31
 8002c9e:	4013      	ands	r3, r2
 8002ca0:	40d8      	lsrs	r0, r3
 8002ca2:	4b17      	ldr	r3, [pc, #92]	@ (8002d00 <HAL_RCC_ClockConfig+0x184>)
 8002ca4:	6018      	str	r0, [r3, #0]
 8002ca6:	4b17      	ldr	r3, [pc, #92]	@ (8002d04 <HAL_RCC_ClockConfig+0x188>)
 8002ca8:	6818      	ldr	r0, [r3, #0]
 8002caa:	f7fe fcc3 	bl	8001634 <HAL_InitTick>
 8002cae:	bd70      	pop	{r4, r5, r6, pc}
 8002cb0:	4a0d      	ldr	r2, [pc, #52]	@ (8002ce8 <HAL_RCC_ClockConfig+0x16c>)
 8002cb2:	6813      	ldr	r3, [r2, #0]
 8002cb4:	2107      	movs	r1, #7
 8002cb6:	438b      	bics	r3, r1
 8002cb8:	432b      	orrs	r3, r5
 8002cba:	6013      	str	r3, [r2, #0]
 8002cbc:	f7fe fd06 	bl	80016cc <HAL_GetTick>
 8002cc0:	0006      	movs	r6, r0
 8002cc2:	4b09      	ldr	r3, [pc, #36]	@ (8002ce8 <HAL_RCC_ClockConfig+0x16c>)
 8002cc4:	681a      	ldr	r2, [r3, #0]
 8002cc6:	2307      	movs	r3, #7
 8002cc8:	4013      	ands	r3, r2
 8002cca:	42ab      	cmp	r3, r5
 8002ccc:	d0d2      	beq.n	8002c74 <HAL_RCC_ClockConfig+0xf8>
 8002cce:	f7fe fcfd 	bl	80016cc <HAL_GetTick>
 8002cd2:	1b80      	subs	r0, r0, r6
 8002cd4:	4b07      	ldr	r3, [pc, #28]	@ (8002cf4 <HAL_RCC_ClockConfig+0x178>)
 8002cd6:	4298      	cmp	r0, r3
 8002cd8:	d9f3      	bls.n	8002cc2 <HAL_RCC_ClockConfig+0x146>
 8002cda:	2003      	movs	r0, #3
 8002cdc:	e7e7      	b.n	8002cae <HAL_RCC_ClockConfig+0x132>
 8002cde:	2001      	movs	r0, #1
 8002ce0:	e7e5      	b.n	8002cae <HAL_RCC_ClockConfig+0x132>
 8002ce2:	2001      	movs	r0, #1
 8002ce4:	e7e3      	b.n	8002cae <HAL_RCC_ClockConfig+0x132>
 8002ce6:	46c0      	nop			@ (mov r8, r8)
 8002ce8:	40022000 	.word	0x40022000
 8002cec:	40021000 	.word	0x40021000
 8002cf0:	fffff0ff 	.word	0xfffff0ff
 8002cf4:	00001388 	.word	0x00001388
 8002cf8:	ffff8fff 	.word	0xffff8fff
 8002cfc:	08003ce8 	.word	0x08003ce8
 8002d00:	2000001c 	.word	0x2000001c
 8002d04:	20000024 	.word	0x20000024

08002d08 <HAL_RCCEx_PeriphCLKConfig>:
 8002d08:	b5f0      	push	{r4, r5, r6, r7, lr}
 8002d0a:	b083      	sub	sp, #12
 8002d0c:	0004      	movs	r4, r0
 8002d0e:	6803      	ldr	r3, [r0, #0]
 8002d10:	039b      	lsls	r3, r3, #14
 8002d12:	d562      	bpl.n	8002dda <HAL_RCCEx_PeriphCLKConfig+0xd2>
 8002d14:	4b6d      	ldr	r3, [pc, #436]	@ (8002ecc <HAL_RCCEx_PeriphCLKConfig+0x1c4>)
 8002d16:	6bdb      	ldr	r3, [r3, #60]	@ 0x3c
 8002d18:	00db      	lsls	r3, r3, #3
 8002d1a:	d41e      	bmi.n	8002d5a <HAL_RCCEx_PeriphCLKConfig+0x52>
 8002d1c:	4b6b      	ldr	r3, [pc, #428]	@ (8002ecc <HAL_RCCEx_PeriphCLKConfig+0x1c4>)
 8002d1e:	6bda      	ldr	r2, [r3, #60]	@ 0x3c
 8002d20:	2180      	movs	r1, #128	@ 0x80
 8002d22:	0549      	lsls	r1, r1, #21
 8002d24:	430a      	orrs	r2, r1
 8002d26:	63da      	str	r2, [r3, #60]	@ 0x3c
 8002d28:	6bdb      	ldr	r3, [r3, #60]	@ 0x3c
 8002d2a:	400b      	ands	r3, r1
 8002d2c:	9301      	str	r3, [sp, #4]
 8002d2e:	9b01      	ldr	r3, [sp, #4]
 8002d30:	2601      	movs	r6, #1
 8002d32:	4a67      	ldr	r2, [pc, #412]	@ (8002ed0 <HAL_RCCEx_PeriphCLKConfig+0x1c8>)
 8002d34:	6811      	ldr	r1, [r2, #0]
 8002d36:	2380      	movs	r3, #128	@ 0x80
 8002d38:	005b      	lsls	r3, r3, #1
 8002d3a:	430b      	orrs	r3, r1
 8002d3c:	6013      	str	r3, [r2, #0]
 8002d3e:	f7fe fcc5 	bl	80016cc <HAL_GetTick>
 8002d42:	0005      	movs	r5, r0
 8002d44:	4b62      	ldr	r3, [pc, #392]	@ (8002ed0 <HAL_RCCEx_PeriphCLKConfig+0x1c8>)
 8002d46:	681b      	ldr	r3, [r3, #0]
 8002d48:	05db      	lsls	r3, r3, #23
 8002d4a:	d408      	bmi.n	8002d5e <HAL_RCCEx_PeriphCLKConfig+0x56>
 8002d4c:	f7fe fcbe 	bl	80016cc <HAL_GetTick>
 8002d50:	1b40      	subs	r0, r0, r5
 8002d52:	2802      	cmp	r0, #2
 8002d54:	d9f6      	bls.n	8002d44 <HAL_RCCEx_PeriphCLKConfig+0x3c>
 8002d56:	2503      	movs	r5, #3
 8002d58:	e002      	b.n	8002d60 <HAL_RCCEx_PeriphCLKConfig+0x58>
 8002d5a:	2600      	movs	r6, #0
 8002d5c:	e7e9      	b.n	8002d32 <HAL_RCCEx_PeriphCLKConfig+0x2a>
 8002d5e:	2500      	movs	r5, #0
 8002d60:	2d00      	cmp	r5, #0
 8002d62:	d123      	bne.n	8002dac <HAL_RCCEx_PeriphCLKConfig+0xa4>
 8002d64:	4b59      	ldr	r3, [pc, #356]	@ (8002ecc <HAL_RCCEx_PeriphCLKConfig+0x1c4>)
 8002d66:	6dd9      	ldr	r1, [r3, #92]	@ 0x5c
 8002d68:	22c0      	movs	r2, #192	@ 0xc0
 8002d6a:	0092      	lsls	r2, r2, #2
 8002d6c:	000b      	movs	r3, r1
 8002d6e:	4013      	ands	r3, r2
 8002d70:	4211      	tst	r1, r2
 8002d72:	d010      	beq.n	8002d96 <HAL_RCCEx_PeriphCLKConfig+0x8e>
 8002d74:	6a62      	ldr	r2, [r4, #36]	@ 0x24
 8002d76:	429a      	cmp	r2, r3
 8002d78:	d00d      	beq.n	8002d96 <HAL_RCCEx_PeriphCLKConfig+0x8e>
 8002d7a:	4a54      	ldr	r2, [pc, #336]	@ (8002ecc <HAL_RCCEx_PeriphCLKConfig+0x1c4>)
 8002d7c:	6dd3      	ldr	r3, [r2, #92]	@ 0x5c
 8002d7e:	4955      	ldr	r1, [pc, #340]	@ (8002ed4 <HAL_RCCEx_PeriphCLKConfig+0x1cc>)
 8002d80:	400b      	ands	r3, r1
 8002d82:	6dd0      	ldr	r0, [r2, #92]	@ 0x5c
 8002d84:	2180      	movs	r1, #128	@ 0x80
 8002d86:	0249      	lsls	r1, r1, #9
 8002d88:	4301      	orrs	r1, r0
 8002d8a:	65d1      	str	r1, [r2, #92]	@ 0x5c
 8002d8c:	6dd1      	ldr	r1, [r2, #92]	@ 0x5c
 8002d8e:	4852      	ldr	r0, [pc, #328]	@ (8002ed8 <HAL_RCCEx_PeriphCLKConfig+0x1d0>)
 8002d90:	4001      	ands	r1, r0
 8002d92:	65d1      	str	r1, [r2, #92]	@ 0x5c
 8002d94:	65d3      	str	r3, [r2, #92]	@ 0x5c
 8002d96:	07db      	lsls	r3, r3, #31
 8002d98:	d410      	bmi.n	8002dbc <HAL_RCCEx_PeriphCLKConfig+0xb4>
 8002d9a:	2d00      	cmp	r5, #0
 8002d9c:	d106      	bne.n	8002dac <HAL_RCCEx_PeriphCLKConfig+0xa4>
 8002d9e:	4a4b      	ldr	r2, [pc, #300]	@ (8002ecc <HAL_RCCEx_PeriphCLKConfig+0x1c4>)
 8002da0:	6dd3      	ldr	r3, [r2, #92]	@ 0x5c
 8002da2:	494c      	ldr	r1, [pc, #304]	@ (8002ed4 <HAL_RCCEx_PeriphCLKConfig+0x1cc>)
 8002da4:	400b      	ands	r3, r1
 8002da6:	6a61      	ldr	r1, [r4, #36]	@ 0x24
 8002da8:	430b      	orrs	r3, r1
 8002daa:	65d3      	str	r3, [r2, #92]	@ 0x5c
 8002dac:	2e01      	cmp	r6, #1
 8002dae:	d115      	bne.n	8002ddc <HAL_RCCEx_PeriphCLKConfig+0xd4>
 8002db0:	4a46      	ldr	r2, [pc, #280]	@ (8002ecc <HAL_RCCEx_PeriphCLKConfig+0x1c4>)
 8002db2:	6bd3      	ldr	r3, [r2, #60]	@ 0x3c
 8002db4:	4949      	ldr	r1, [pc, #292]	@ (8002edc <HAL_RCCEx_PeriphCLKConfig+0x1d4>)
 8002db6:	400b      	ands	r3, r1
 8002db8:	63d3      	str	r3, [r2, #60]	@ 0x3c
 8002dba:	e00f      	b.n	8002ddc <HAL_RCCEx_PeriphCLKConfig+0xd4>
 8002dbc:	f7fe fc86 	bl	80016cc <HAL_GetTick>
 8002dc0:	0007      	movs	r7, r0
 8002dc2:	4b42      	ldr	r3, [pc, #264]	@ (8002ecc <HAL_RCCEx_PeriphCLKConfig+0x1c4>)
 8002dc4:	6ddb      	ldr	r3, [r3, #92]	@ 0x5c
 8002dc6:	079b      	lsls	r3, r3, #30
 8002dc8:	d4e7      	bmi.n	8002d9a <HAL_RCCEx_PeriphCLKConfig+0x92>
 8002dca:	f7fe fc7f 	bl	80016cc <HAL_GetTick>
 8002dce:	1bc0      	subs	r0, r0, r7
 8002dd0:	4b43      	ldr	r3, [pc, #268]	@ (8002ee0 <HAL_RCCEx_PeriphCLKConfig+0x1d8>)
 8002dd2:	4298      	cmp	r0, r3
 8002dd4:	d9f5      	bls.n	8002dc2 <HAL_RCCEx_PeriphCLKConfig+0xba>
 8002dd6:	2503      	movs	r5, #3
 8002dd8:	e7df      	b.n	8002d9a <HAL_RCCEx_PeriphCLKConfig+0x92>
 8002dda:	2500      	movs	r5, #0
 8002ddc:	6823      	ldr	r3, [r4, #0]
 8002dde:	07db      	lsls	r3, r3, #31
 8002de0:	d506      	bpl.n	8002df0 <HAL_RCCEx_PeriphCLKConfig+0xe8>
 8002de2:	4a3a      	ldr	r2, [pc, #232]	@ (8002ecc <HAL_RCCEx_PeriphCLKConfig+0x1c4>)
 8002de4:	6d53      	ldr	r3, [r2, #84]	@ 0x54
 8002de6:	2103      	movs	r1, #3
 8002de8:	438b      	bics	r3, r1
 8002dea:	6861      	ldr	r1, [r4, #4]
 8002dec:	430b      	orrs	r3, r1
 8002dee:	6553      	str	r3, [r2, #84]	@ 0x54
 8002df0:	6823      	ldr	r3, [r4, #0]
 8002df2:	06db      	lsls	r3, r3, #27
 8002df4:	d506      	bpl.n	8002e04 <HAL_RCCEx_PeriphCLKConfig+0xfc>
 8002df6:	4a35      	ldr	r2, [pc, #212]	@ (8002ecc <HAL_RCCEx_PeriphCLKConfig+0x1c4>)
 8002df8:	6d53      	ldr	r3, [r2, #84]	@ 0x54
 8002dfa:	493a      	ldr	r1, [pc, #232]	@ (8002ee4 <HAL_RCCEx_PeriphCLKConfig+0x1dc>)
 8002dfc:	400b      	ands	r3, r1
 8002dfe:	68a1      	ldr	r1, [r4, #8]
 8002e00:	430b      	orrs	r3, r1
 8002e02:	6553      	str	r3, [r2, #84]	@ 0x54
 8002e04:	6823      	ldr	r3, [r4, #0]
 8002e06:	059b      	lsls	r3, r3, #22
 8002e08:	d506      	bpl.n	8002e18 <HAL_RCCEx_PeriphCLKConfig+0x110>
 8002e0a:	4a30      	ldr	r2, [pc, #192]	@ (8002ecc <HAL_RCCEx_PeriphCLKConfig+0x1c4>)
 8002e0c:	6d53      	ldr	r3, [r2, #84]	@ 0x54
 8002e0e:	4936      	ldr	r1, [pc, #216]	@ (8002ee8 <HAL_RCCEx_PeriphCLKConfig+0x1e0>)
 8002e10:	400b      	ands	r3, r1
 8002e12:	6961      	ldr	r1, [r4, #20]
 8002e14:	430b      	orrs	r3, r1
 8002e16:	6553      	str	r3, [r2, #84]	@ 0x54
 8002e18:	6823      	ldr	r3, [r4, #0]
 8002e1a:	055b      	lsls	r3, r3, #21
 8002e1c:	d506      	bpl.n	8002e2c <HAL_RCCEx_PeriphCLKConfig+0x124>
 8002e1e:	4a2b      	ldr	r2, [pc, #172]	@ (8002ecc <HAL_RCCEx_PeriphCLKConfig+0x1c4>)
 8002e20:	6d53      	ldr	r3, [r2, #84]	@ 0x54
 8002e22:	4932      	ldr	r1, [pc, #200]	@ (8002eec <HAL_RCCEx_PeriphCLKConfig+0x1e4>)
 8002e24:	400b      	ands	r3, r1
 8002e26:	69a1      	ldr	r1, [r4, #24]
 8002e28:	430b      	orrs	r3, r1
 8002e2a:	6553      	str	r3, [r2, #84]	@ 0x54
 8002e2c:	6823      	ldr	r3, [r4, #0]
 8002e2e:	069b      	lsls	r3, r3, #26
 8002e30:	d506      	bpl.n	8002e40 <HAL_RCCEx_PeriphCLKConfig+0x138>
 8002e32:	4a26      	ldr	r2, [pc, #152]	@ (8002ecc <HAL_RCCEx_PeriphCLKConfig+0x1c4>)
 8002e34:	6d53      	ldr	r3, [r2, #84]	@ 0x54
 8002e36:	492e      	ldr	r1, [pc, #184]	@ (8002ef0 <HAL_RCCEx_PeriphCLKConfig+0x1e8>)
 8002e38:	400b      	ands	r3, r1
 8002e3a:	68e1      	ldr	r1, [r4, #12]
 8002e3c:	430b      	orrs	r3, r1
 8002e3e:	6553      	str	r3, [r2, #84]	@ 0x54
 8002e40:	6823      	ldr	r3, [r4, #0]
 8002e42:	045b      	lsls	r3, r3, #17
 8002e44:	d50b      	bpl.n	8002e5e <HAL_RCCEx_PeriphCLKConfig+0x156>
 8002e46:	4a21      	ldr	r2, [pc, #132]	@ (8002ecc <HAL_RCCEx_PeriphCLKConfig+0x1c4>)
 8002e48:	6d53      	ldr	r3, [r2, #84]	@ 0x54
 8002e4a:	009b      	lsls	r3, r3, #2
 8002e4c:	089b      	lsrs	r3, r3, #2
 8002e4e:	69e1      	ldr	r1, [r4, #28]
 8002e50:	430b      	orrs	r3, r1
 8002e52:	6553      	str	r3, [r2, #84]	@ 0x54
 8002e54:	69e2      	ldr	r2, [r4, #28]
 8002e56:	2380      	movs	r3, #128	@ 0x80
 8002e58:	05db      	lsls	r3, r3, #23
 8002e5a:	429a      	cmp	r2, r3
 8002e5c:	d020      	beq.n	8002ea0 <HAL_RCCEx_PeriphCLKConfig+0x198>
 8002e5e:	6823      	ldr	r3, [r4, #0]
 8002e60:	029b      	lsls	r3, r3, #10
 8002e62:	d50b      	bpl.n	8002e7c <HAL_RCCEx_PeriphCLKConfig+0x174>
 8002e64:	4a19      	ldr	r2, [pc, #100]	@ (8002ecc <HAL_RCCEx_PeriphCLKConfig+0x1c4>)
 8002e66:	6d53      	ldr	r3, [r2, #84]	@ 0x54
 8002e68:	4922      	ldr	r1, [pc, #136]	@ (8002ef4 <HAL_RCCEx_PeriphCLKConfig+0x1ec>)
 8002e6a:	400b      	ands	r3, r1
 8002e6c:	6a21      	ldr	r1, [r4, #32]
 8002e6e:	430b      	orrs	r3, r1
 8002e70:	6553      	str	r3, [r2, #84]	@ 0x54
 8002e72:	6a22      	ldr	r2, [r4, #32]
 8002e74:	2380      	movs	r3, #128	@ 0x80
 8002e76:	03db      	lsls	r3, r3, #15
 8002e78:	429a      	cmp	r2, r3
 8002e7a:	d018      	beq.n	8002eae <HAL_RCCEx_PeriphCLKConfig+0x1a6>
 8002e7c:	6823      	ldr	r3, [r4, #0]
 8002e7e:	051b      	lsls	r3, r3, #20
 8002e80:	d50b      	bpl.n	8002e9a <HAL_RCCEx_PeriphCLKConfig+0x192>
 8002e82:	4a12      	ldr	r2, [pc, #72]	@ (8002ecc <HAL_RCCEx_PeriphCLKConfig+0x1c4>)
 8002e84:	6d53      	ldr	r3, [r2, #84]	@ 0x54
 8002e86:	491c      	ldr	r1, [pc, #112]	@ (8002ef8 <HAL_RCCEx_PeriphCLKConfig+0x1f0>)
 8002e88:	400b      	ands	r3, r1
 8002e8a:	6921      	ldr	r1, [r4, #16]
 8002e8c:	430b      	orrs	r3, r1
 8002e8e:	6553      	str	r3, [r2, #84]	@ 0x54
 8002e90:	6922      	ldr	r2, [r4, #16]
 8002e92:	2380      	movs	r3, #128	@ 0x80
 8002e94:	01db      	lsls	r3, r3, #7
 8002e96:	429a      	cmp	r2, r3
 8002e98:	d010      	beq.n	8002ebc <HAL_RCCEx_PeriphCLKConfig+0x1b4>
 8002e9a:	0028      	movs	r0, r5
 8002e9c:	b003      	add	sp, #12
 8002e9e:	bdf0      	pop	{r4, r5, r6, r7, pc}
 8002ea0:	4a0a      	ldr	r2, [pc, #40]	@ (8002ecc <HAL_RCCEx_PeriphCLKConfig+0x1c4>)
 8002ea2:	68d1      	ldr	r1, [r2, #12]
 8002ea4:	2380      	movs	r3, #128	@ 0x80
 8002ea6:	025b      	lsls	r3, r3, #9
 8002ea8:	430b      	orrs	r3, r1
 8002eaa:	60d3      	str	r3, [r2, #12]
 8002eac:	e7d7      	b.n	8002e5e <HAL_RCCEx_PeriphCLKConfig+0x156>
 8002eae:	4a07      	ldr	r2, [pc, #28]	@ (8002ecc <HAL_RCCEx_PeriphCLKConfig+0x1c4>)
 8002eb0:	68d1      	ldr	r1, [r2, #12]
 8002eb2:	2380      	movs	r3, #128	@ 0x80
 8002eb4:	045b      	lsls	r3, r3, #17
 8002eb6:	430b      	orrs	r3, r1
 8002eb8:	60d3      	str	r3, [r2, #12]
 8002eba:	e7df      	b.n	8002e7c <HAL_RCCEx_PeriphCLKConfig+0x174>
 8002ebc:	4a03      	ldr	r2, [pc, #12]	@ (8002ecc <HAL_RCCEx_PeriphCLKConfig+0x1c4>)
 8002ebe:	68d1      	ldr	r1, [r2, #12]
 8002ec0:	2380      	movs	r3, #128	@ 0x80
 8002ec2:	025b      	lsls	r3, r3, #9
 8002ec4:	430b      	orrs	r3, r1
 8002ec6:	60d3      	str	r3, [r2, #12]
 8002ec8:	e7e7      	b.n	8002e9a <HAL_RCCEx_PeriphCLKConfig+0x192>
 8002eca:	46c0      	nop			@ (mov r8, r8)
 8002ecc:	40021000 	.word	0x40021000
 8002ed0:	40007000 	.word	0x40007000
 8002ed4:	fffffcff 	.word	0xfffffcff
 8002ed8:	fffeffff 	.word	0xfffeffff
 8002edc:	efffffff 	.word	0xefffffff
 8002ee0:	00001388 	.word	0x00001388
 8002ee4:	fffff3ff 	.word	0xfffff3ff
 8002ee8:	fff3ffff 	.word	0xfff3ffff
 8002eec:	ffcfffff 	.word	0xffcfffff
 8002ef0:	ffffcfff 	.word	0xffffcfff
 8002ef4:	ffbfffff 	.word	0xffbfffff
 8002ef8:	ffff3fff 	.word	0xffff3fff

08002efc <LL_GPIO_Init>:
 8002efc:	b5f0      	push	{r4, r5, r6, r7, lr}
 8002efe:	2200      	movs	r2, #0
 8002f00:	e016      	b.n	8002f30 <LL_GPIO_Init+0x34>
 8002f02:	690b      	ldr	r3, [r1, #16]
 8002f04:	469c      	mov	ip, r3
 8002f06:	68c4      	ldr	r4, [r0, #12]
 8002f08:	002b      	movs	r3, r5
 8002f0a:	436b      	muls	r3, r5
 8002f0c:	005e      	lsls	r6, r3, #1
 8002f0e:	18f6      	adds	r6, r6, r3
 8002f10:	43f7      	mvns	r7, r6
 8002f12:	43b4      	bics	r4, r6
 8002f14:	4666      	mov	r6, ip
 8002f16:	435e      	muls	r6, r3
 8002f18:	4334      	orrs	r4, r6
 8002f1a:	60c4      	str	r4, [r0, #12]
 8002f1c:	684c      	ldr	r4, [r1, #4]
 8002f1e:	2c02      	cmp	r4, #2
 8002f20:	d025      	beq.n	8002f6e <LL_GPIO_Init+0x72>
 8002f22:	684d      	ldr	r5, [r1, #4]
 8002f24:	6804      	ldr	r4, [r0, #0]
 8002f26:	403c      	ands	r4, r7
 8002f28:	436b      	muls	r3, r5
 8002f2a:	4323      	orrs	r3, r4
 8002f2c:	6003      	str	r3, [r0, #0]
 8002f2e:	3201      	adds	r2, #1
 8002f30:	680c      	ldr	r4, [r1, #0]
 8002f32:	0023      	movs	r3, r4
 8002f34:	40d3      	lsrs	r3, r2
 8002f36:	d03a      	beq.n	8002fae <LL_GPIO_Init+0xb2>
 8002f38:	2301      	movs	r3, #1
 8002f3a:	4093      	lsls	r3, r2
 8002f3c:	0025      	movs	r5, r4
 8002f3e:	401d      	ands	r5, r3
 8002f40:	421c      	tst	r4, r3
 8002f42:	d0f4      	beq.n	8002f2e <LL_GPIO_Init+0x32>
 8002f44:	684b      	ldr	r3, [r1, #4]
 8002f46:	3b01      	subs	r3, #1
 8002f48:	2b01      	cmp	r3, #1
 8002f4a:	d8da      	bhi.n	8002f02 <LL_GPIO_Init+0x6>
 8002f4c:	688f      	ldr	r7, [r1, #8]
 8002f4e:	6883      	ldr	r3, [r0, #8]
 8002f50:	002c      	movs	r4, r5
 8002f52:	436c      	muls	r4, r5
 8002f54:	0066      	lsls	r6, r4, #1
 8002f56:	1936      	adds	r6, r6, r4
 8002f58:	43b3      	bics	r3, r6
 8002f5a:	437c      	muls	r4, r7
 8002f5c:	4323      	orrs	r3, r4
 8002f5e:	6083      	str	r3, [r0, #8]
 8002f60:	68cc      	ldr	r4, [r1, #12]
 8002f62:	6843      	ldr	r3, [r0, #4]
 8002f64:	43ab      	bics	r3, r5
 8002f66:	436c      	muls	r4, r5
 8002f68:	4323      	orrs	r3, r4
 8002f6a:	6043      	str	r3, [r0, #4]
 8002f6c:	e7c9      	b.n	8002f02 <LL_GPIO_Init+0x6>
 8002f6e:	2dff      	cmp	r5, #255	@ 0xff
 8002f70:	d80d      	bhi.n	8002f8e <LL_GPIO_Init+0x92>
 8002f72:	694c      	ldr	r4, [r1, #20]
 8002f74:	46a4      	mov	ip, r4
 8002f76:	6a06      	ldr	r6, [r0, #32]
 8002f78:	001c      	movs	r4, r3
 8002f7a:	436c      	muls	r4, r5
 8002f7c:	436c      	muls	r4, r5
 8002f7e:	0125      	lsls	r5, r4, #4
 8002f80:	1b2d      	subs	r5, r5, r4
 8002f82:	43ae      	bics	r6, r5
 8002f84:	4665      	mov	r5, ip
 8002f86:	436c      	muls	r4, r5
 8002f88:	4334      	orrs	r4, r6
 8002f8a:	6204      	str	r4, [r0, #32]
 8002f8c:	e7c9      	b.n	8002f22 <LL_GPIO_Init+0x26>
 8002f8e:	694c      	ldr	r4, [r1, #20]
 8002f90:	46a4      	mov	ip, r4
 8002f92:	6a46      	ldr	r6, [r0, #36]	@ 0x24
 8002f94:	0a2d      	lsrs	r5, r5, #8
 8002f96:	002c      	movs	r4, r5
 8002f98:	436c      	muls	r4, r5
 8002f9a:	436c      	muls	r4, r5
 8002f9c:	436c      	muls	r4, r5
 8002f9e:	0125      	lsls	r5, r4, #4
 8002fa0:	1b2d      	subs	r5, r5, r4
 8002fa2:	43ae      	bics	r6, r5
 8002fa4:	4665      	mov	r5, ip
 8002fa6:	436c      	muls	r4, r5
 8002fa8:	4334      	orrs	r4, r6
 8002faa:	6244      	str	r4, [r0, #36]	@ 0x24
 8002fac:	e7b9      	b.n	8002f22 <LL_GPIO_Init+0x26>
 8002fae:	2000      	movs	r0, #0
 8002fb0:	bdf0      	pop	{r4, r5, r6, r7, pc}
	...

08002fb4 <RCC_GetHCLKClockFreq>:
 8002fb4:	4b05      	ldr	r3, [pc, #20]	@ (8002fcc <RCC_GetHCLKClockFreq+0x18>)
 8002fb6:	689a      	ldr	r2, [r3, #8]
 8002fb8:	0a12      	lsrs	r2, r2, #8
 8002fba:	230f      	movs	r3, #15
 8002fbc:	4013      	ands	r3, r2
 8002fbe:	4a04      	ldr	r2, [pc, #16]	@ (8002fd0 <RCC_GetHCLKClockFreq+0x1c>)
 8002fc0:	009b      	lsls	r3, r3, #2
 8002fc2:	589a      	ldr	r2, [r3, r2]
 8002fc4:	231f      	movs	r3, #31
 8002fc6:	4013      	ands	r3, r2
 8002fc8:	40d8      	lsrs	r0, r3
 8002fca:	4770      	bx	lr
 8002fcc:	40021000 	.word	0x40021000
 8002fd0:	08003ce8 	.word	0x08003ce8

08002fd4 <RCC_GetPCLK1ClockFreq>:
 8002fd4:	4b05      	ldr	r3, [pc, #20]	@ (8002fec <RCC_GetPCLK1ClockFreq+0x18>)
 8002fd6:	689a      	ldr	r2, [r3, #8]
 8002fd8:	0b12      	lsrs	r2, r2, #12
 8002fda:	2307      	movs	r3, #7
 8002fdc:	4013      	ands	r3, r2
 8002fde:	4a04      	ldr	r2, [pc, #16]	@ (8002ff0 <RCC_GetPCLK1ClockFreq+0x1c>)
 8002fe0:	009b      	lsls	r3, r3, #2
 8002fe2:	589a      	ldr	r2, [r3, r2]
 8002fe4:	231f      	movs	r3, #31
 8002fe6:	4013      	ands	r3, r2
 8002fe8:	40d8      	lsrs	r0, r3
 8002fea:	4770      	bx	lr
 8002fec:	40021000 	.word	0x40021000
 8002ff0:	08003cc8 	.word	0x08003cc8

08002ff4 <RCC_PLL_GetFreqDomain_SYS>:
 8002ff4:	b510      	push	{r4, lr}
 8002ff6:	4b0e      	ldr	r3, [pc, #56]	@ (8003030 <RCC_PLL_GetFreqDomain_SYS+0x3c>)
 8002ff8:	68da      	ldr	r2, [r3, #12]
 8002ffa:	2303      	movs	r3, #3
 8002ffc:	4013      	ands	r3, r2
 8002ffe:	2b03      	cmp	r3, #3
 8003000:	d013      	beq.n	800302a <RCC_PLL_GetFreqDomain_SYS+0x36>
 8003002:	4a0c      	ldr	r2, [pc, #48]	@ (8003034 <RCC_PLL_GetFreqDomain_SYS+0x40>)
 8003004:	4c0a      	ldr	r4, [pc, #40]	@ (8003030 <RCC_PLL_GetFreqDomain_SYS+0x3c>)
 8003006:	68e3      	ldr	r3, [r4, #12]
 8003008:	0a1b      	lsrs	r3, r3, #8
 800300a:	207f      	movs	r0, #127	@ 0x7f
 800300c:	4018      	ands	r0, r3
 800300e:	4350      	muls	r0, r2
 8003010:	68e3      	ldr	r3, [r4, #12]
 8003012:	091b      	lsrs	r3, r3, #4
 8003014:	2107      	movs	r1, #7
 8003016:	4019      	ands	r1, r3
 8003018:	3101      	adds	r1, #1
 800301a:	f7fd f887 	bl	800012c <__udivsi3>
 800301e:	68e1      	ldr	r1, [r4, #12]
 8003020:	0f49      	lsrs	r1, r1, #29
 8003022:	3101      	adds	r1, #1
 8003024:	f7fd f882 	bl	800012c <__udivsi3>
 8003028:	bd10      	pop	{r4, pc}
 800302a:	4a03      	ldr	r2, [pc, #12]	@ (8003038 <RCC_PLL_GetFreqDomain_SYS+0x44>)
 800302c:	e7ea      	b.n	8003004 <RCC_PLL_GetFreqDomain_SYS+0x10>
 800302e:	46c0      	nop			@ (mov r8, r8)
 8003030:	40021000 	.word	0x40021000
 8003034:	00f42400 	.word	0x00f42400
 8003038:	007a1200 	.word	0x007a1200

0800303c <RCC_GetSystemClockFreq>:
 800303c:	b510      	push	{r4, lr}
 800303e:	4b0a      	ldr	r3, [pc, #40]	@ (8003068 <RCC_GetSystemClockFreq+0x2c>)
 8003040:	689a      	ldr	r2, [r3, #8]
 8003042:	2338      	movs	r3, #56	@ 0x38
 8003044:	4013      	ands	r3, r2
 8003046:	2b08      	cmp	r3, #8
 8003048:	d00c      	beq.n	8003064 <RCC_GetSystemClockFreq+0x28>
 800304a:	2b10      	cmp	r3, #16
 800304c:	d102      	bne.n	8003054 <RCC_GetSystemClockFreq+0x18>
 800304e:	f7ff ffd1 	bl	8002ff4 <RCC_PLL_GetFreqDomain_SYS>
 8003052:	bd10      	pop	{r4, pc}
 8003054:	4b04      	ldr	r3, [pc, #16]	@ (8003068 <RCC_GetSystemClockFreq+0x2c>)
 8003056:	681a      	ldr	r2, [r3, #0]
 8003058:	0ad2      	lsrs	r2, r2, #11
 800305a:	2307      	movs	r3, #7
 800305c:	4013      	ands	r3, r2
 800305e:	4803      	ldr	r0, [pc, #12]	@ (800306c <RCC_GetSystemClockFreq+0x30>)
 8003060:	40d8      	lsrs	r0, r3
 8003062:	e7f6      	b.n	8003052 <RCC_GetSystemClockFreq+0x16>
 8003064:	4802      	ldr	r0, [pc, #8]	@ (8003070 <RCC_GetSystemClockFreq+0x34>)
 8003066:	e7f4      	b.n	8003052 <RCC_GetSystemClockFreq+0x16>
 8003068:	40021000 	.word	0x40021000
 800306c:	00f42400 	.word	0x00f42400
 8003070:	007a1200 	.word	0x007a1200

08003074 <LL_RCC_GetSystemClocksFreq>:
 8003074:	b510      	push	{r4, lr}
 8003076:	0004      	movs	r4, r0
 8003078:	f7ff ffe0 	bl	800303c <RCC_GetSystemClockFreq>
 800307c:	6020      	str	r0, [r4, #0]
 800307e:	f7ff ff99 	bl	8002fb4 <RCC_GetHCLKClockFreq>
 8003082:	6060      	str	r0, [r4, #4]
 8003084:	f7ff ffa6 	bl	8002fd4 <RCC_GetPCLK1ClockFreq>
 8003088:	60a0      	str	r0, [r4, #8]
 800308a:	bd10      	pop	{r4, pc}

0800308c <LL_RCC_GetUSARTClockFreq>:
 800308c:	b510      	push	{r4, lr}
 800308e:	2803      	cmp	r0, #3
 8003090:	d001      	beq.n	8003096 <LL_RCC_GetUSARTClockFreq+0xa>
 8003092:	2000      	movs	r0, #0
 8003094:	bd10      	pop	{r4, pc}
 8003096:	4b16      	ldr	r3, [pc, #88]	@ (80030f0 <LL_RCC_GetUSARTClockFreq+0x64>)
 8003098:	6d5b      	ldr	r3, [r3, #84]	@ 0x54
 800309a:	4003      	ands	r3, r0
 800309c:	0400      	lsls	r0, r0, #16
 800309e:	4303      	orrs	r3, r0
 80030a0:	4a14      	ldr	r2, [pc, #80]	@ (80030f4 <LL_RCC_GetUSARTClockFreq+0x68>)
 80030a2:	4293      	cmp	r3, r2
 80030a4:	d00f      	beq.n	80030c6 <LL_RCC_GetUSARTClockFreq+0x3a>
 80030a6:	4a14      	ldr	r2, [pc, #80]	@ (80030f8 <LL_RCC_GetUSARTClockFreq+0x6c>)
 80030a8:	4293      	cmp	r3, r2
 80030aa:	d016      	beq.n	80030da <LL_RCC_GetUSARTClockFreq+0x4e>
 80030ac:	4a13      	ldr	r2, [pc, #76]	@ (80030fc <LL_RCC_GetUSARTClockFreq+0x70>)
 80030ae:	4293      	cmp	r3, r2
 80030b0:	d006      	beq.n	80030c0 <LL_RCC_GetUSARTClockFreq+0x34>
 80030b2:	f7ff ffc3 	bl	800303c <RCC_GetSystemClockFreq>
 80030b6:	f7ff ff7d 	bl	8002fb4 <RCC_GetHCLKClockFreq>
 80030ba:	f7ff ff8b 	bl	8002fd4 <RCC_GetPCLK1ClockFreq>
 80030be:	e7e9      	b.n	8003094 <LL_RCC_GetUSARTClockFreq+0x8>
 80030c0:	f7ff ffbc 	bl	800303c <RCC_GetSystemClockFreq>
 80030c4:	e7e6      	b.n	8003094 <LL_RCC_GetUSARTClockFreq+0x8>
 80030c6:	4b0a      	ldr	r3, [pc, #40]	@ (80030f0 <LL_RCC_GetUSARTClockFreq+0x64>)
 80030c8:	681a      	ldr	r2, [r3, #0]
 80030ca:	2380      	movs	r3, #128	@ 0x80
 80030cc:	00db      	lsls	r3, r3, #3
 80030ce:	0010      	movs	r0, r2
 80030d0:	4018      	ands	r0, r3
 80030d2:	421a      	tst	r2, r3
 80030d4:	d0de      	beq.n	8003094 <LL_RCC_GetUSARTClockFreq+0x8>
 80030d6:	480a      	ldr	r0, [pc, #40]	@ (8003100 <LL_RCC_GetUSARTClockFreq+0x74>)
 80030d8:	e7dc      	b.n	8003094 <LL_RCC_GetUSARTClockFreq+0x8>
 80030da:	4b05      	ldr	r3, [pc, #20]	@ (80030f0 <LL_RCC_GetUSARTClockFreq+0x64>)
 80030dc:	6ddb      	ldr	r3, [r3, #92]	@ 0x5c
 80030de:	2202      	movs	r2, #2
 80030e0:	0010      	movs	r0, r2
 80030e2:	4018      	ands	r0, r3
 80030e4:	421a      	tst	r2, r3
 80030e6:	d0d5      	beq.n	8003094 <LL_RCC_GetUSARTClockFreq+0x8>
 80030e8:	2080      	movs	r0, #128	@ 0x80
 80030ea:	0200      	lsls	r0, r0, #8
 80030ec:	e7d2      	b.n	8003094 <LL_RCC_GetUSARTClockFreq+0x8>
 80030ee:	46c0      	nop			@ (mov r8, r8)
 80030f0:	40021000 	.word	0x40021000
 80030f4:	00030002 	.word	0x00030002
 80030f8:	00030003 	.word	0x00030003
 80030fc:	00030001 	.word	0x00030001
 8003100:	00f42400 	.word	0x00f42400

08003104 <LL_TIM_Init>:
 8003104:	6803      	ldr	r3, [r0, #0]
 8003106:	4a1d      	ldr	r2, [pc, #116]	@ (800317c <LL_TIM_Init+0x78>)
 8003108:	4290      	cmp	r0, r2
 800310a:	d006      	beq.n	800311a <LL_TIM_Init+0x16>
 800310c:	2280      	movs	r2, #128	@ 0x80
 800310e:	05d2      	lsls	r2, r2, #23
 8003110:	4290      	cmp	r0, r2
 8003112:	d002      	beq.n	800311a <LL_TIM_Init+0x16>
 8003114:	4a1a      	ldr	r2, [pc, #104]	@ (8003180 <LL_TIM_Init+0x7c>)
 8003116:	4290      	cmp	r0, r2
 8003118:	d103      	bne.n	8003122 <LL_TIM_Init+0x1e>
 800311a:	2270      	movs	r2, #112	@ 0x70
 800311c:	4393      	bics	r3, r2
 800311e:	684a      	ldr	r2, [r1, #4]
 8003120:	4313      	orrs	r3, r2
 8003122:	4a16      	ldr	r2, [pc, #88]	@ (800317c <LL_TIM_Init+0x78>)
 8003124:	4290      	cmp	r0, r2
 8003126:	d00f      	beq.n	8003148 <LL_TIM_Init+0x44>
 8003128:	2280      	movs	r2, #128	@ 0x80
 800312a:	05d2      	lsls	r2, r2, #23
 800312c:	4290      	cmp	r0, r2
 800312e:	d00b      	beq.n	8003148 <LL_TIM_Init+0x44>
 8003130:	4a13      	ldr	r2, [pc, #76]	@ (8003180 <LL_TIM_Init+0x7c>)
 8003132:	4290      	cmp	r0, r2
 8003134:	d008      	beq.n	8003148 <LL_TIM_Init+0x44>
 8003136:	4a13      	ldr	r2, [pc, #76]	@ (8003184 <LL_TIM_Init+0x80>)
 8003138:	4290      	cmp	r0, r2
 800313a:	d005      	beq.n	8003148 <LL_TIM_Init+0x44>
 800313c:	4a12      	ldr	r2, [pc, #72]	@ (8003188 <LL_TIM_Init+0x84>)
 800313e:	4290      	cmp	r0, r2
 8003140:	d002      	beq.n	8003148 <LL_TIM_Init+0x44>
 8003142:	4a12      	ldr	r2, [pc, #72]	@ (800318c <LL_TIM_Init+0x88>)
 8003144:	4290      	cmp	r0, r2
 8003146:	d103      	bne.n	8003150 <LL_TIM_Init+0x4c>
 8003148:	4a11      	ldr	r2, [pc, #68]	@ (8003190 <LL_TIM_Init+0x8c>)
 800314a:	401a      	ands	r2, r3
 800314c:	68cb      	ldr	r3, [r1, #12]
 800314e:	4313      	orrs	r3, r2
 8003150:	6003      	str	r3, [r0, #0]
 8003152:	688b      	ldr	r3, [r1, #8]
 8003154:	62c3      	str	r3, [r0, #44]	@ 0x2c
 8003156:	880b      	ldrh	r3, [r1, #0]
 8003158:	6283      	str	r3, [r0, #40]	@ 0x28
 800315a:	4b08      	ldr	r3, [pc, #32]	@ (800317c <LL_TIM_Init+0x78>)
 800315c:	4298      	cmp	r0, r3
 800315e:	d005      	beq.n	800316c <LL_TIM_Init+0x68>
 8003160:	4b09      	ldr	r3, [pc, #36]	@ (8003188 <LL_TIM_Init+0x84>)
 8003162:	4298      	cmp	r0, r3
 8003164:	d002      	beq.n	800316c <LL_TIM_Init+0x68>
 8003166:	4b09      	ldr	r3, [pc, #36]	@ (800318c <LL_TIM_Init+0x88>)
 8003168:	4298      	cmp	r0, r3
 800316a:	d101      	bne.n	8003170 <LL_TIM_Init+0x6c>
 800316c:	690b      	ldr	r3, [r1, #16]
 800316e:	6303      	str	r3, [r0, #48]	@ 0x30
 8003170:	6943      	ldr	r3, [r0, #20]
 8003172:	2201      	movs	r2, #1
 8003174:	4313      	orrs	r3, r2
 8003176:	6143      	str	r3, [r0, #20]
 8003178:	2000      	movs	r0, #0
 800317a:	4770      	bx	lr
 800317c:	40012c00 	.word	0x40012c00
 8003180:	40000400 	.word	0x40000400
 8003184:	40002000 	.word	0x40002000
 8003188:	40014400 	.word	0x40014400
 800318c:	40014800 	.word	0x40014800
 8003190:	fffffcff 	.word	0xfffffcff

08003194 <LL_USART_SetBaudRate>:
 8003194:	b510      	push	{r4, lr}
 8003196:	0004      	movs	r4, r0
 8003198:	0008      	movs	r0, r1
 800319a:	2a0b      	cmp	r2, #11
 800319c:	d816      	bhi.n	80031cc <LL_USART_SetBaudRate+0x38>
 800319e:	9902      	ldr	r1, [sp, #8]
 80031a0:	2900      	cmp	r1, #0
 80031a2:	d013      	beq.n	80031cc <LL_USART_SetBaudRate+0x38>
 80031a4:	2180      	movs	r1, #128	@ 0x80
 80031a6:	0209      	lsls	r1, r1, #8
 80031a8:	428b      	cmp	r3, r1
 80031aa:	d010      	beq.n	80031ce <LL_USART_SetBaudRate+0x3a>
 80031ac:	23ff      	movs	r3, #255	@ 0xff
 80031ae:	4013      	ands	r3, r2
 80031b0:	4a12      	ldr	r2, [pc, #72]	@ (80031fc <LL_USART_SetBaudRate+0x68>)
 80031b2:	009b      	lsls	r3, r3, #2
 80031b4:	5899      	ldr	r1, [r3, r2]
 80031b6:	f7fc ffb9 	bl	800012c <__udivsi3>
 80031ba:	9b02      	ldr	r3, [sp, #8]
 80031bc:	085b      	lsrs	r3, r3, #1
 80031be:	18c0      	adds	r0, r0, r3
 80031c0:	9902      	ldr	r1, [sp, #8]
 80031c2:	f7fc ffb3 	bl	800012c <__udivsi3>
 80031c6:	0400      	lsls	r0, r0, #16
 80031c8:	0c00      	lsrs	r0, r0, #16
 80031ca:	60e0      	str	r0, [r4, #12]
 80031cc:	bd10      	pop	{r4, pc}
 80031ce:	23ff      	movs	r3, #255	@ 0xff
 80031d0:	4013      	ands	r3, r2
 80031d2:	4a0a      	ldr	r2, [pc, #40]	@ (80031fc <LL_USART_SetBaudRate+0x68>)
 80031d4:	009b      	lsls	r3, r3, #2
 80031d6:	5899      	ldr	r1, [r3, r2]
 80031d8:	f7fc ffa8 	bl	800012c <__udivsi3>
 80031dc:	0040      	lsls	r0, r0, #1
 80031de:	9b02      	ldr	r3, [sp, #8]
 80031e0:	085b      	lsrs	r3, r3, #1
 80031e2:	18c0      	adds	r0, r0, r3
 80031e4:	9902      	ldr	r1, [sp, #8]
 80031e6:	f7fc ffa1 	bl	800012c <__udivsi3>
 80031ea:	4a05      	ldr	r2, [pc, #20]	@ (8003200 <LL_USART_SetBaudRate+0x6c>)
 80031ec:	4002      	ands	r2, r0
 80031ee:	0400      	lsls	r0, r0, #16
 80031f0:	0c40      	lsrs	r0, r0, #17
 80031f2:	2307      	movs	r3, #7
 80031f4:	4003      	ands	r3, r0
 80031f6:	4313      	orrs	r3, r2
 80031f8:	60e3      	str	r3, [r4, #12]
 80031fa:	e7e7      	b.n	80031cc <LL_USART_SetBaudRate+0x38>
 80031fc:	08003d28 	.word	0x08003d28
 8003200:	0000fff0 	.word	0x0000fff0

08003204 <LL_USART_Init>:
 8003204:	b530      	push	{r4, r5, lr}
 8003206:	b087      	sub	sp, #28
 8003208:	0004      	movs	r4, r0
 800320a:	000d      	movs	r5, r1
 800320c:	6803      	ldr	r3, [r0, #0]
 800320e:	07db      	lsls	r3, r3, #31
 8003210:	d442      	bmi.n	8003298 <LL_USART_Init+0x94>
 8003212:	6803      	ldr	r3, [r0, #0]
 8003214:	4a21      	ldr	r2, [pc, #132]	@ (800329c <LL_USART_Init+0x98>)
 8003216:	401a      	ands	r2, r3
 8003218:	688b      	ldr	r3, [r1, #8]
 800321a:	6909      	ldr	r1, [r1, #16]
 800321c:	430b      	orrs	r3, r1
 800321e:	6969      	ldr	r1, [r5, #20]
 8003220:	430b      	orrs	r3, r1
 8003222:	69e9      	ldr	r1, [r5, #28]
 8003224:	430b      	orrs	r3, r1
 8003226:	4313      	orrs	r3, r2
 8003228:	6003      	str	r3, [r0, #0]
 800322a:	68eb      	ldr	r3, [r5, #12]
 800322c:	6842      	ldr	r2, [r0, #4]
 800322e:	491c      	ldr	r1, [pc, #112]	@ (80032a0 <LL_USART_Init+0x9c>)
 8003230:	400a      	ands	r2, r1
 8003232:	4313      	orrs	r3, r2
 8003234:	6043      	str	r3, [r0, #4]
 8003236:	69ab      	ldr	r3, [r5, #24]
 8003238:	6882      	ldr	r2, [r0, #8]
 800323a:	491a      	ldr	r1, [pc, #104]	@ (80032a4 <LL_USART_Init+0xa0>)
 800323c:	400a      	ands	r2, r1
 800323e:	4313      	orrs	r3, r2
 8003240:	6083      	str	r3, [r0, #8]
 8003242:	4b19      	ldr	r3, [pc, #100]	@ (80032a8 <LL_USART_Init+0xa4>)
 8003244:	4298      	cmp	r0, r3
 8003246:	d00d      	beq.n	8003264 <LL_USART_Init+0x60>
 8003248:	4b18      	ldr	r3, [pc, #96]	@ (80032ac <LL_USART_Init+0xa8>)
 800324a:	4298      	cmp	r0, r3
 800324c:	d015      	beq.n	800327a <LL_USART_Init+0x76>
 800324e:	2001      	movs	r0, #1
 8003250:	682b      	ldr	r3, [r5, #0]
 8003252:	6ae2      	ldr	r2, [r4, #44]	@ 0x2c
 8003254:	210f      	movs	r1, #15
 8003256:	438a      	bics	r2, r1
 8003258:	041b      	lsls	r3, r3, #16
 800325a:	0c1b      	lsrs	r3, r3, #16
 800325c:	4313      	orrs	r3, r2
 800325e:	62e3      	str	r3, [r4, #44]	@ 0x2c
 8003260:	b007      	add	sp, #28
 8003262:	bd30      	pop	{r4, r5, pc}
 8003264:	2003      	movs	r0, #3
 8003266:	f7ff ff11 	bl	800308c <LL_RCC_GetUSARTClockFreq>
 800326a:	0001      	movs	r1, r0
 800326c:	2900      	cmp	r1, #0
 800326e:	d011      	beq.n	8003294 <LL_USART_Init+0x90>
 8003270:	6868      	ldr	r0, [r5, #4]
 8003272:	2800      	cmp	r0, #0
 8003274:	d106      	bne.n	8003284 <LL_USART_Init+0x80>
 8003276:	2001      	movs	r0, #1
 8003278:	e7ea      	b.n	8003250 <LL_USART_Init+0x4c>
 800327a:	a803      	add	r0, sp, #12
 800327c:	f7ff fefa 	bl	8003074 <LL_RCC_GetSystemClocksFreq>
 8003280:	9905      	ldr	r1, [sp, #20]
 8003282:	e7f3      	b.n	800326c <LL_USART_Init+0x68>
 8003284:	682a      	ldr	r2, [r5, #0]
 8003286:	69eb      	ldr	r3, [r5, #28]
 8003288:	9000      	str	r0, [sp, #0]
 800328a:	0020      	movs	r0, r4
 800328c:	f7ff ff82 	bl	8003194 <LL_USART_SetBaudRate>
 8003290:	2000      	movs	r0, #0
 8003292:	e7dd      	b.n	8003250 <LL_USART_Init+0x4c>
 8003294:	2001      	movs	r0, #1
 8003296:	e7db      	b.n	8003250 <LL_USART_Init+0x4c>
 8003298:	2001      	movs	r0, #1
 800329a:	e7e1      	b.n	8003260 <LL_USART_Init+0x5c>
 800329c:	efff69f3 	.word	0xefff69f3
 80032a0:	ffffcfff 	.word	0xffffcfff
 80032a4:	fffffcff 	.word	0xfffffcff
 80032a8:	40013800 	.word	0x40013800
 80032ac:	40004400 	.word	0x40004400

080032b0 <calloc>:
 80032b0:	b510      	push	{r4, lr}
 80032b2:	4b03      	ldr	r3, [pc, #12]	@ (80032c0 <calloc+0x10>)
 80032b4:	000a      	movs	r2, r1
 80032b6:	0001      	movs	r1, r0
 80032b8:	6818      	ldr	r0, [r3, #0]
 80032ba:	f000 f803 	bl	80032c4 <_calloc_r>
 80032be:	bd10      	pop	{r4, pc}
 80032c0:	20000028 	.word	0x20000028

080032c4 <_calloc_r>:
 80032c4:	b570      	push	{r4, r5, r6, lr}
 80032c6:	0c0b      	lsrs	r3, r1, #16
 80032c8:	0c15      	lsrs	r5, r2, #16
 80032ca:	2b00      	cmp	r3, #0
 80032cc:	d11e      	bne.n	800330c <_calloc_r+0x48>
 80032ce:	2d00      	cmp	r5, #0
 80032d0:	d10c      	bne.n	80032ec <_calloc_r+0x28>
 80032d2:	b289      	uxth	r1, r1
 80032d4:	b294      	uxth	r4, r2
 80032d6:	434c      	muls	r4, r1
 80032d8:	0021      	movs	r1, r4
 80032da:	f000 f843 	bl	8003364 <_malloc_r>
 80032de:	1e05      	subs	r5, r0, #0
 80032e0:	d01a      	beq.n	8003318 <_calloc_r+0x54>
 80032e2:	0022      	movs	r2, r4
 80032e4:	2100      	movs	r1, #0
 80032e6:	f000 f8ed 	bl	80034c4 <memset>
 80032ea:	e016      	b.n	800331a <_calloc_r+0x56>
 80032ec:	1c2b      	adds	r3, r5, #0
 80032ee:	1c0c      	adds	r4, r1, #0
 80032f0:	b289      	uxth	r1, r1
 80032f2:	b292      	uxth	r2, r2
 80032f4:	434a      	muls	r2, r1
 80032f6:	b29b      	uxth	r3, r3
 80032f8:	b2a1      	uxth	r1, r4
 80032fa:	4359      	muls	r1, r3
 80032fc:	0c14      	lsrs	r4, r2, #16
 80032fe:	190c      	adds	r4, r1, r4
 8003300:	0c23      	lsrs	r3, r4, #16
 8003302:	d107      	bne.n	8003314 <_calloc_r+0x50>
 8003304:	0424      	lsls	r4, r4, #16
 8003306:	b292      	uxth	r2, r2
 8003308:	4314      	orrs	r4, r2
 800330a:	e7e5      	b.n	80032d8 <_calloc_r+0x14>
 800330c:	2d00      	cmp	r5, #0
 800330e:	d101      	bne.n	8003314 <_calloc_r+0x50>
 8003310:	1c14      	adds	r4, r2, #0
 8003312:	e7ed      	b.n	80032f0 <_calloc_r+0x2c>
 8003314:	230c      	movs	r3, #12
 8003316:	6003      	str	r3, [r0, #0]
 8003318:	2500      	movs	r5, #0
 800331a:	0028      	movs	r0, r5
 800331c:	bd70      	pop	{r4, r5, r6, pc}
	...

08003320 <sbrk_aligned>:
 8003320:	b570      	push	{r4, r5, r6, lr}
 8003322:	4e0f      	ldr	r6, [pc, #60]	@ (8003360 <sbrk_aligned+0x40>)
 8003324:	000d      	movs	r5, r1
 8003326:	6831      	ldr	r1, [r6, #0]
 8003328:	0004      	movs	r4, r0
 800332a:	2900      	cmp	r1, #0
 800332c:	d102      	bne.n	8003334 <sbrk_aligned+0x14>
 800332e:	f000 f8d1 	bl	80034d4 <_sbrk_r>
 8003332:	6030      	str	r0, [r6, #0]
 8003334:	0029      	movs	r1, r5
 8003336:	0020      	movs	r0, r4
 8003338:	f000 f8cc 	bl	80034d4 <_sbrk_r>
 800333c:	1c43      	adds	r3, r0, #1
 800333e:	d103      	bne.n	8003348 <sbrk_aligned+0x28>
 8003340:	2501      	movs	r5, #1
 8003342:	426d      	negs	r5, r5
 8003344:	0028      	movs	r0, r5
 8003346:	bd70      	pop	{r4, r5, r6, pc}
 8003348:	2303      	movs	r3, #3
 800334a:	1cc5      	adds	r5, r0, #3
 800334c:	439d      	bics	r5, r3
 800334e:	42a8      	cmp	r0, r5
 8003350:	d0f8      	beq.n	8003344 <sbrk_aligned+0x24>
 8003352:	1a29      	subs	r1, r5, r0
 8003354:	0020      	movs	r0, r4
 8003356:	f000 f8bd 	bl	80034d4 <_sbrk_r>
 800335a:	3001      	adds	r0, #1
 800335c:	d1f2      	bne.n	8003344 <sbrk_aligned+0x24>
 800335e:	e7ef      	b.n	8003340 <sbrk_aligned+0x20>
 8003360:	20000b98 	.word	0x20000b98

08003364 <_malloc_r>:
 8003364:	b5f7      	push	{r0, r1, r2, r4, r5, r6, r7, lr}
 8003366:	2203      	movs	r2, #3
 8003368:	1ccb      	adds	r3, r1, #3
 800336a:	4393      	bics	r3, r2
 800336c:	3308      	adds	r3, #8
 800336e:	0005      	movs	r5, r0
 8003370:	001f      	movs	r7, r3
 8003372:	2b0c      	cmp	r3, #12
 8003374:	d234      	bcs.n	80033e0 <_malloc_r+0x7c>
 8003376:	270c      	movs	r7, #12
 8003378:	42b9      	cmp	r1, r7
 800337a:	d833      	bhi.n	80033e4 <_malloc_r+0x80>
 800337c:	0028      	movs	r0, r5
 800337e:	f000 f871 	bl	8003464 <__malloc_lock>
 8003382:	4e37      	ldr	r6, [pc, #220]	@ (8003460 <_malloc_r+0xfc>)
 8003384:	6833      	ldr	r3, [r6, #0]
 8003386:	001c      	movs	r4, r3
 8003388:	2c00      	cmp	r4, #0
 800338a:	d12f      	bne.n	80033ec <_malloc_r+0x88>
 800338c:	0039      	movs	r1, r7
 800338e:	0028      	movs	r0, r5
 8003390:	f7ff ffc6 	bl	8003320 <sbrk_aligned>
 8003394:	0004      	movs	r4, r0
 8003396:	1c43      	adds	r3, r0, #1
 8003398:	d15f      	bne.n	800345a <_malloc_r+0xf6>
 800339a:	6834      	ldr	r4, [r6, #0]
 800339c:	9400      	str	r4, [sp, #0]
 800339e:	9b00      	ldr	r3, [sp, #0]
 80033a0:	2b00      	cmp	r3, #0
 80033a2:	d14a      	bne.n	800343a <_malloc_r+0xd6>
 80033a4:	2c00      	cmp	r4, #0
 80033a6:	d052      	beq.n	800344e <_malloc_r+0xea>
 80033a8:	6823      	ldr	r3, [r4, #0]
 80033aa:	0028      	movs	r0, r5
 80033ac:	18e3      	adds	r3, r4, r3
 80033ae:	9900      	ldr	r1, [sp, #0]
 80033b0:	9301      	str	r3, [sp, #4]
 80033b2:	f000 f88f 	bl	80034d4 <_sbrk_r>
 80033b6:	9b01      	ldr	r3, [sp, #4]
 80033b8:	4283      	cmp	r3, r0
 80033ba:	d148      	bne.n	800344e <_malloc_r+0xea>
 80033bc:	6823      	ldr	r3, [r4, #0]
 80033be:	0028      	movs	r0, r5
 80033c0:	1aff      	subs	r7, r7, r3
 80033c2:	0039      	movs	r1, r7
 80033c4:	f7ff ffac 	bl	8003320 <sbrk_aligned>
 80033c8:	3001      	adds	r0, #1
 80033ca:	d040      	beq.n	800344e <_malloc_r+0xea>
 80033cc:	6823      	ldr	r3, [r4, #0]
 80033ce:	19db      	adds	r3, r3, r7
 80033d0:	6023      	str	r3, [r4, #0]
 80033d2:	6833      	ldr	r3, [r6, #0]
 80033d4:	685a      	ldr	r2, [r3, #4]
 80033d6:	2a00      	cmp	r2, #0
 80033d8:	d133      	bne.n	8003442 <_malloc_r+0xde>
 80033da:	9b00      	ldr	r3, [sp, #0]
 80033dc:	6033      	str	r3, [r6, #0]
 80033de:	e019      	b.n	8003414 <_malloc_r+0xb0>
 80033e0:	2b00      	cmp	r3, #0
 80033e2:	dac9      	bge.n	8003378 <_malloc_r+0x14>
 80033e4:	230c      	movs	r3, #12
 80033e6:	602b      	str	r3, [r5, #0]
 80033e8:	2000      	movs	r0, #0
 80033ea:	bdfe      	pop	{r1, r2, r3, r4, r5, r6, r7, pc}
 80033ec:	6821      	ldr	r1, [r4, #0]
 80033ee:	1bc9      	subs	r1, r1, r7
 80033f0:	d420      	bmi.n	8003434 <_malloc_r+0xd0>
 80033f2:	290b      	cmp	r1, #11
 80033f4:	d90a      	bls.n	800340c <_malloc_r+0xa8>
 80033f6:	19e2      	adds	r2, r4, r7
 80033f8:	6027      	str	r7, [r4, #0]
 80033fa:	42a3      	cmp	r3, r4
 80033fc:	d104      	bne.n	8003408 <_malloc_r+0xa4>
 80033fe:	6032      	str	r2, [r6, #0]
 8003400:	6863      	ldr	r3, [r4, #4]
 8003402:	6011      	str	r1, [r2, #0]
 8003404:	6053      	str	r3, [r2, #4]
 8003406:	e005      	b.n	8003414 <_malloc_r+0xb0>
 8003408:	605a      	str	r2, [r3, #4]
 800340a:	e7f9      	b.n	8003400 <_malloc_r+0x9c>
 800340c:	6862      	ldr	r2, [r4, #4]
 800340e:	42a3      	cmp	r3, r4
 8003410:	d10e      	bne.n	8003430 <_malloc_r+0xcc>
 8003412:	6032      	str	r2, [r6, #0]
 8003414:	0028      	movs	r0, r5
 8003416:	f000 f82d 	bl	8003474 <__malloc_unlock>
 800341a:	0020      	movs	r0, r4
 800341c:	2207      	movs	r2, #7
 800341e:	300b      	adds	r0, #11
 8003420:	1d23      	adds	r3, r4, #4
 8003422:	4390      	bics	r0, r2
 8003424:	1ac2      	subs	r2, r0, r3
 8003426:	4298      	cmp	r0, r3
 8003428:	d0df      	beq.n	80033ea <_malloc_r+0x86>
 800342a:	1a1b      	subs	r3, r3, r0
 800342c:	50a3      	str	r3, [r4, r2]
 800342e:	e7dc      	b.n	80033ea <_malloc_r+0x86>
 8003430:	605a      	str	r2, [r3, #4]
 8003432:	e7ef      	b.n	8003414 <_malloc_r+0xb0>
 8003434:	0023      	movs	r3, r4
 8003436:	6864      	ldr	r4, [r4, #4]
 8003438:	e7a6      	b.n	8003388 <_malloc_r+0x24>
 800343a:	9c00      	ldr	r4, [sp, #0]
 800343c:	6863      	ldr	r3, [r4, #4]
 800343e:	9300      	str	r3, [sp, #0]
 8003440:	e7ad      	b.n	800339e <_malloc_r+0x3a>
 8003442:	001a      	movs	r2, r3
 8003444:	685b      	ldr	r3, [r3, #4]
 8003446:	42a3      	cmp	r3, r4
 8003448:	d1fb      	bne.n	8003442 <_malloc_r+0xde>
 800344a:	2300      	movs	r3, #0
 800344c:	e7da      	b.n	8003404 <_malloc_r+0xa0>
 800344e:	230c      	movs	r3, #12
 8003450:	0028      	movs	r0, r5
 8003452:	602b      	str	r3, [r5, #0]
 8003454:	f000 f80e 	bl	8003474 <__malloc_unlock>
 8003458:	e7c6      	b.n	80033e8 <_malloc_r+0x84>
 800345a:	6007      	str	r7, [r0, #0]
 800345c:	e7da      	b.n	8003414 <_malloc_r+0xb0>
 800345e:	46c0      	nop			@ (mov r8, r8)
 8003460:	20000b9c 	.word	0x20000b9c

08003464 <__malloc_lock>:
 8003464:	b510      	push	{r4, lr}
 8003466:	4802      	ldr	r0, [pc, #8]	@ (8003470 <__malloc_lock+0xc>)
 8003468:	f000 f870 	bl	800354c <__retarget_lock_acquire_recursive>
 800346c:	bd10      	pop	{r4, pc}
 800346e:	46c0      	nop			@ (mov r8, r8)
 8003470:	20000cdc 	.word	0x20000cdc

08003474 <__malloc_unlock>:
 8003474:	b510      	push	{r4, lr}
 8003476:	4802      	ldr	r0, [pc, #8]	@ (8003480 <__malloc_unlock+0xc>)
 8003478:	f000 f869 	bl	800354e <__retarget_lock_release_recursive>
 800347c:	bd10      	pop	{r4, pc}
 800347e:	46c0      	nop			@ (mov r8, r8)
 8003480:	20000cdc 	.word	0x20000cdc

08003484 <siprintf>:
 8003484:	b40e      	push	{r1, r2, r3}
 8003486:	b500      	push	{lr}
 8003488:	490b      	ldr	r1, [pc, #44]	@ (80034b8 <siprintf+0x34>)
 800348a:	b09c      	sub	sp, #112	@ 0x70
 800348c:	ab1d      	add	r3, sp, #116	@ 0x74
 800348e:	9002      	str	r0, [sp, #8]
 8003490:	9006      	str	r0, [sp, #24]
 8003492:	9107      	str	r1, [sp, #28]
 8003494:	9104      	str	r1, [sp, #16]
 8003496:	4809      	ldr	r0, [pc, #36]	@ (80034bc <siprintf+0x38>)
 8003498:	4909      	ldr	r1, [pc, #36]	@ (80034c0 <siprintf+0x3c>)
 800349a:	cb04      	ldmia	r3!, {r2}
 800349c:	9105      	str	r1, [sp, #20]
 800349e:	6800      	ldr	r0, [r0, #0]
 80034a0:	a902      	add	r1, sp, #8
 80034a2:	9301      	str	r3, [sp, #4]
 80034a4:	f000 f8fe 	bl	80036a4 <_svfiprintf_r>
 80034a8:	2200      	movs	r2, #0
 80034aa:	9b02      	ldr	r3, [sp, #8]
 80034ac:	701a      	strb	r2, [r3, #0]
 80034ae:	b01c      	add	sp, #112	@ 0x70
 80034b0:	bc08      	pop	{r3}
 80034b2:	b003      	add	sp, #12
 80034b4:	4718      	bx	r3
 80034b6:	46c0      	nop			@ (mov r8, r8)
 80034b8:	7fffffff 	.word	0x7fffffff
 80034bc:	20000028 	.word	0x20000028
 80034c0:	ffff0208 	.word	0xffff0208

080034c4 <memset>:
 80034c4:	0003      	movs	r3, r0
 80034c6:	1882      	adds	r2, r0, r2
 80034c8:	4293      	cmp	r3, r2
 80034ca:	d100      	bne.n	80034ce <memset+0xa>
 80034cc:	4770      	bx	lr
 80034ce:	7019      	strb	r1, [r3, #0]
 80034d0:	3301      	adds	r3, #1
 80034d2:	e7f9      	b.n	80034c8 <memset+0x4>

080034d4 <_sbrk_r>:
 80034d4:	2300      	movs	r3, #0
 80034d6:	b570      	push	{r4, r5, r6, lr}
 80034d8:	4d06      	ldr	r5, [pc, #24]	@ (80034f4 <_sbrk_r+0x20>)
 80034da:	0004      	movs	r4, r0
 80034dc:	0008      	movs	r0, r1
 80034de:	602b      	str	r3, [r5, #0]
 80034e0:	f7fd fc8c 	bl	8000dfc <_sbrk>
 80034e4:	1c43      	adds	r3, r0, #1
 80034e6:	d103      	bne.n	80034f0 <_sbrk_r+0x1c>
 80034e8:	682b      	ldr	r3, [r5, #0]
 80034ea:	2b00      	cmp	r3, #0
 80034ec:	d000      	beq.n	80034f0 <_sbrk_r+0x1c>
 80034ee:	6023      	str	r3, [r4, #0]
 80034f0:	bd70      	pop	{r4, r5, r6, pc}
 80034f2:	46c0      	nop			@ (mov r8, r8)
 80034f4:	20000cd8 	.word	0x20000cd8

080034f8 <__errno>:
 80034f8:	4b01      	ldr	r3, [pc, #4]	@ (8003500 <__errno+0x8>)
 80034fa:	6818      	ldr	r0, [r3, #0]
 80034fc:	4770      	bx	lr
 80034fe:	46c0      	nop			@ (mov r8, r8)
 8003500:	20000028 	.word	0x20000028

08003504 <__libc_init_array>:
 8003504:	b570      	push	{r4, r5, r6, lr}
 8003506:	2600      	movs	r6, #0
 8003508:	4c0c      	ldr	r4, [pc, #48]	@ (800353c <__libc_init_array+0x38>)
 800350a:	4d0d      	ldr	r5, [pc, #52]	@ (8003540 <__libc_init_array+0x3c>)
 800350c:	1b64      	subs	r4, r4, r5
 800350e:	10a4      	asrs	r4, r4, #2
 8003510:	42a6      	cmp	r6, r4
 8003512:	d109      	bne.n	8003528 <__libc_init_array+0x24>
 8003514:	2600      	movs	r6, #0
 8003516:	f000 fb9f 	bl	8003c58 <_init>
 800351a:	4c0a      	ldr	r4, [pc, #40]	@ (8003544 <__libc_init_array+0x40>)
 800351c:	4d0a      	ldr	r5, [pc, #40]	@ (8003548 <__libc_init_array+0x44>)
 800351e:	1b64      	subs	r4, r4, r5
 8003520:	10a4      	asrs	r4, r4, #2
 8003522:	42a6      	cmp	r6, r4
 8003524:	d105      	bne.n	8003532 <__libc_init_array+0x2e>
 8003526:	bd70      	pop	{r4, r5, r6, pc}
 8003528:	00b3      	lsls	r3, r6, #2
 800352a:	58eb      	ldr	r3, [r5, r3]
 800352c:	4798      	blx	r3
 800352e:	3601      	adds	r6, #1
 8003530:	e7ee      	b.n	8003510 <__libc_init_array+0xc>
 8003532:	00b3      	lsls	r3, r6, #2
 8003534:	58eb      	ldr	r3, [r5, r3]
 8003536:	4798      	blx	r3
 8003538:	3601      	adds	r6, #1
 800353a:	e7f2      	b.n	8003522 <__libc_init_array+0x1e>
 800353c:	08003d8c 	.word	0x08003d8c
 8003540:	08003d8c 	.word	0x08003d8c
 8003544:	08003d90 	.word	0x08003d90
 8003548:	08003d8c 	.word	0x08003d8c

0800354c <__retarget_lock_acquire_recursive>:
 800354c:	4770      	bx	lr

0800354e <__retarget_lock_release_recursive>:
 800354e:	4770      	bx	lr

08003550 <_free_r>:
 8003550:	b570      	push	{r4, r5, r6, lr}
 8003552:	0005      	movs	r5, r0
 8003554:	1e0c      	subs	r4, r1, #0
 8003556:	d010      	beq.n	800357a <_free_r+0x2a>
 8003558:	3c04      	subs	r4, #4
 800355a:	6823      	ldr	r3, [r4, #0]
 800355c:	2b00      	cmp	r3, #0
 800355e:	da00      	bge.n	8003562 <_free_r+0x12>
 8003560:	18e4      	adds	r4, r4, r3
 8003562:	0028      	movs	r0, r5
 8003564:	f7ff ff7e 	bl	8003464 <__malloc_lock>
 8003568:	4a1d      	ldr	r2, [pc, #116]	@ (80035e0 <_free_r+0x90>)
 800356a:	6813      	ldr	r3, [r2, #0]
 800356c:	2b00      	cmp	r3, #0
 800356e:	d105      	bne.n	800357c <_free_r+0x2c>
 8003570:	6063      	str	r3, [r4, #4]
 8003572:	6014      	str	r4, [r2, #0]
 8003574:	0028      	movs	r0, r5
 8003576:	f7ff ff7d 	bl	8003474 <__malloc_unlock>
 800357a:	bd70      	pop	{r4, r5, r6, pc}
 800357c:	42a3      	cmp	r3, r4
 800357e:	d908      	bls.n	8003592 <_free_r+0x42>
 8003580:	6820      	ldr	r0, [r4, #0]
 8003582:	1821      	adds	r1, r4, r0
 8003584:	428b      	cmp	r3, r1
 8003586:	d1f3      	bne.n	8003570 <_free_r+0x20>
 8003588:	6819      	ldr	r1, [r3, #0]
 800358a:	685b      	ldr	r3, [r3, #4]
 800358c:	1809      	adds	r1, r1, r0
 800358e:	6021      	str	r1, [r4, #0]
 8003590:	e7ee      	b.n	8003570 <_free_r+0x20>
 8003592:	001a      	movs	r2, r3
 8003594:	685b      	ldr	r3, [r3, #4]
 8003596:	2b00      	cmp	r3, #0
 8003598:	d001      	beq.n	800359e <_free_r+0x4e>
 800359a:	42a3      	cmp	r3, r4
 800359c:	d9f9      	bls.n	8003592 <_free_r+0x42>
 800359e:	6811      	ldr	r1, [r2, #0]
 80035a0:	1850      	adds	r0, r2, r1
 80035a2:	42a0      	cmp	r0, r4
 80035a4:	d10b      	bne.n	80035be <_free_r+0x6e>
 80035a6:	6820      	ldr	r0, [r4, #0]
 80035a8:	1809      	adds	r1, r1, r0
 80035aa:	1850      	adds	r0, r2, r1
 80035ac:	6011      	str	r1, [r2, #0]
 80035ae:	4283      	cmp	r3, r0
 80035b0:	d1e0      	bne.n	8003574 <_free_r+0x24>
 80035b2:	6818      	ldr	r0, [r3, #0]
 80035b4:	685b      	ldr	r3, [r3, #4]
 80035b6:	1841      	adds	r1, r0, r1
 80035b8:	6011      	str	r1, [r2, #0]
 80035ba:	6053      	str	r3, [r2, #4]
 80035bc:	e7da      	b.n	8003574 <_free_r+0x24>
 80035be:	42a0      	cmp	r0, r4
 80035c0:	d902      	bls.n	80035c8 <_free_r+0x78>
 80035c2:	230c      	movs	r3, #12
 80035c4:	602b      	str	r3, [r5, #0]
 80035c6:	e7d5      	b.n	8003574 <_free_r+0x24>
 80035c8:	6820      	ldr	r0, [r4, #0]
 80035ca:	1821      	adds	r1, r4, r0
 80035cc:	428b      	cmp	r3, r1
 80035ce:	d103      	bne.n	80035d8 <_free_r+0x88>
 80035d0:	6819      	ldr	r1, [r3, #0]
 80035d2:	685b      	ldr	r3, [r3, #4]
 80035d4:	1809      	adds	r1, r1, r0
 80035d6:	6021      	str	r1, [r4, #0]
 80035d8:	6063      	str	r3, [r4, #4]
 80035da:	6054      	str	r4, [r2, #4]
 80035dc:	e7ca      	b.n	8003574 <_free_r+0x24>
 80035de:	46c0      	nop			@ (mov r8, r8)
 80035e0:	20000b9c 	.word	0x20000b9c

080035e4 <__ssputs_r>:
 80035e4:	b5f0      	push	{r4, r5, r6, r7, lr}
 80035e6:	688e      	ldr	r6, [r1, #8]
 80035e8:	b085      	sub	sp, #20
 80035ea:	001f      	movs	r7, r3
 80035ec:	000c      	movs	r4, r1
 80035ee:	680b      	ldr	r3, [r1, #0]
 80035f0:	9002      	str	r0, [sp, #8]
 80035f2:	9203      	str	r2, [sp, #12]
 80035f4:	42be      	cmp	r6, r7
 80035f6:	d830      	bhi.n	800365a <__ssputs_r+0x76>
 80035f8:	210c      	movs	r1, #12
 80035fa:	5e62      	ldrsh	r2, [r4, r1]
 80035fc:	2190      	movs	r1, #144	@ 0x90
 80035fe:	00c9      	lsls	r1, r1, #3
 8003600:	420a      	tst	r2, r1
 8003602:	d028      	beq.n	8003656 <__ssputs_r+0x72>
 8003604:	2003      	movs	r0, #3
 8003606:	6921      	ldr	r1, [r4, #16]
 8003608:	1a5b      	subs	r3, r3, r1
 800360a:	9301      	str	r3, [sp, #4]
 800360c:	6963      	ldr	r3, [r4, #20]
 800360e:	4343      	muls	r3, r0
 8003610:	9801      	ldr	r0, [sp, #4]
 8003612:	0fdd      	lsrs	r5, r3, #31
 8003614:	18ed      	adds	r5, r5, r3
 8003616:	1c7b      	adds	r3, r7, #1
 8003618:	181b      	adds	r3, r3, r0
 800361a:	106d      	asrs	r5, r5, #1
 800361c:	42ab      	cmp	r3, r5
 800361e:	d900      	bls.n	8003622 <__ssputs_r+0x3e>
 8003620:	001d      	movs	r5, r3
 8003622:	0552      	lsls	r2, r2, #21
 8003624:	d528      	bpl.n	8003678 <__ssputs_r+0x94>
 8003626:	0029      	movs	r1, r5
 8003628:	9802      	ldr	r0, [sp, #8]
 800362a:	f7ff fe9b 	bl	8003364 <_malloc_r>
 800362e:	1e06      	subs	r6, r0, #0
 8003630:	d02c      	beq.n	800368c <__ssputs_r+0xa8>
 8003632:	9a01      	ldr	r2, [sp, #4]
 8003634:	6921      	ldr	r1, [r4, #16]
 8003636:	f000 facf 	bl	8003bd8 <memcpy>
 800363a:	89a2      	ldrh	r2, [r4, #12]
 800363c:	4b18      	ldr	r3, [pc, #96]	@ (80036a0 <__ssputs_r+0xbc>)
 800363e:	401a      	ands	r2, r3
 8003640:	2380      	movs	r3, #128	@ 0x80
 8003642:	4313      	orrs	r3, r2
 8003644:	81a3      	strh	r3, [r4, #12]
 8003646:	9b01      	ldr	r3, [sp, #4]
 8003648:	6126      	str	r6, [r4, #16]
 800364a:	18f6      	adds	r6, r6, r3
 800364c:	6026      	str	r6, [r4, #0]
 800364e:	003e      	movs	r6, r7
 8003650:	6165      	str	r5, [r4, #20]
 8003652:	1aed      	subs	r5, r5, r3
 8003654:	60a5      	str	r5, [r4, #8]
 8003656:	42be      	cmp	r6, r7
 8003658:	d900      	bls.n	800365c <__ssputs_r+0x78>
 800365a:	003e      	movs	r6, r7
 800365c:	0032      	movs	r2, r6
 800365e:	9903      	ldr	r1, [sp, #12]
 8003660:	6820      	ldr	r0, [r4, #0]
 8003662:	f000 fa9b 	bl	8003b9c <memmove>
 8003666:	2000      	movs	r0, #0
 8003668:	68a3      	ldr	r3, [r4, #8]
 800366a:	1b9b      	subs	r3, r3, r6
 800366c:	60a3      	str	r3, [r4, #8]
 800366e:	6823      	ldr	r3, [r4, #0]
 8003670:	199b      	adds	r3, r3, r6
 8003672:	6023      	str	r3, [r4, #0]
 8003674:	b005      	add	sp, #20
 8003676:	bdf0      	pop	{r4, r5, r6, r7, pc}
 8003678:	002a      	movs	r2, r5
 800367a:	9802      	ldr	r0, [sp, #8]
 800367c:	f000 fab5 	bl	8003bea <_realloc_r>
 8003680:	1e06      	subs	r6, r0, #0
 8003682:	d1e0      	bne.n	8003646 <__ssputs_r+0x62>
 8003684:	6921      	ldr	r1, [r4, #16]
 8003686:	9802      	ldr	r0, [sp, #8]
 8003688:	f7ff ff62 	bl	8003550 <_free_r>
 800368c:	230c      	movs	r3, #12
 800368e:	2001      	movs	r0, #1
 8003690:	9a02      	ldr	r2, [sp, #8]
 8003692:	4240      	negs	r0, r0
 8003694:	6013      	str	r3, [r2, #0]
 8003696:	89a2      	ldrh	r2, [r4, #12]
 8003698:	3334      	adds	r3, #52	@ 0x34
 800369a:	4313      	orrs	r3, r2
 800369c:	81a3      	strh	r3, [r4, #12]
 800369e:	e7e9      	b.n	8003674 <__ssputs_r+0x90>
 80036a0:	fffffb7f 	.word	0xfffffb7f

080036a4 <_svfiprintf_r>:
 80036a4:	b5f0      	push	{r4, r5, r6, r7, lr}
 80036a6:	b0a1      	sub	sp, #132	@ 0x84
 80036a8:	9003      	str	r0, [sp, #12]
 80036aa:	001d      	movs	r5, r3
 80036ac:	898b      	ldrh	r3, [r1, #12]
 80036ae:	000f      	movs	r7, r1
 80036b0:	0016      	movs	r6, r2
 80036b2:	061b      	lsls	r3, r3, #24
 80036b4:	d511      	bpl.n	80036da <_svfiprintf_r+0x36>
 80036b6:	690b      	ldr	r3, [r1, #16]
 80036b8:	2b00      	cmp	r3, #0
 80036ba:	d10e      	bne.n	80036da <_svfiprintf_r+0x36>
 80036bc:	2140      	movs	r1, #64	@ 0x40
 80036be:	f7ff fe51 	bl	8003364 <_malloc_r>
 80036c2:	6038      	str	r0, [r7, #0]
 80036c4:	6138      	str	r0, [r7, #16]
 80036c6:	2800      	cmp	r0, #0
 80036c8:	d105      	bne.n	80036d6 <_svfiprintf_r+0x32>
 80036ca:	230c      	movs	r3, #12
 80036cc:	9a03      	ldr	r2, [sp, #12]
 80036ce:	6013      	str	r3, [r2, #0]
 80036d0:	2001      	movs	r0, #1
 80036d2:	4240      	negs	r0, r0
 80036d4:	e0cf      	b.n	8003876 <_svfiprintf_r+0x1d2>
 80036d6:	2340      	movs	r3, #64	@ 0x40
 80036d8:	617b      	str	r3, [r7, #20]
 80036da:	2300      	movs	r3, #0
 80036dc:	ac08      	add	r4, sp, #32
 80036de:	6163      	str	r3, [r4, #20]
 80036e0:	3320      	adds	r3, #32
 80036e2:	7663      	strb	r3, [r4, #25]
 80036e4:	3310      	adds	r3, #16
 80036e6:	76a3      	strb	r3, [r4, #26]
 80036e8:	9507      	str	r5, [sp, #28]
 80036ea:	0035      	movs	r5, r6
 80036ec:	782b      	ldrb	r3, [r5, #0]
 80036ee:	2b00      	cmp	r3, #0
 80036f0:	d001      	beq.n	80036f6 <_svfiprintf_r+0x52>
 80036f2:	2b25      	cmp	r3, #37	@ 0x25
 80036f4:	d148      	bne.n	8003788 <_svfiprintf_r+0xe4>
 80036f6:	1bab      	subs	r3, r5, r6
 80036f8:	9305      	str	r3, [sp, #20]
 80036fa:	42b5      	cmp	r5, r6
 80036fc:	d00b      	beq.n	8003716 <_svfiprintf_r+0x72>
 80036fe:	0032      	movs	r2, r6
 8003700:	0039      	movs	r1, r7
 8003702:	9803      	ldr	r0, [sp, #12]
 8003704:	f7ff ff6e 	bl	80035e4 <__ssputs_r>
 8003708:	3001      	adds	r0, #1
 800370a:	d100      	bne.n	800370e <_svfiprintf_r+0x6a>
 800370c:	e0ae      	b.n	800386c <_svfiprintf_r+0x1c8>
 800370e:	6963      	ldr	r3, [r4, #20]
 8003710:	9a05      	ldr	r2, [sp, #20]
 8003712:	189b      	adds	r3, r3, r2
 8003714:	6163      	str	r3, [r4, #20]
 8003716:	782b      	ldrb	r3, [r5, #0]
 8003718:	2b00      	cmp	r3, #0
 800371a:	d100      	bne.n	800371e <_svfiprintf_r+0x7a>
 800371c:	e0a6      	b.n	800386c <_svfiprintf_r+0x1c8>
 800371e:	2201      	movs	r2, #1
 8003720:	2300      	movs	r3, #0
 8003722:	4252      	negs	r2, r2
 8003724:	6062      	str	r2, [r4, #4]
 8003726:	a904      	add	r1, sp, #16
 8003728:	3254      	adds	r2, #84	@ 0x54
 800372a:	1852      	adds	r2, r2, r1
 800372c:	1c6e      	adds	r6, r5, #1
 800372e:	6023      	str	r3, [r4, #0]
 8003730:	60e3      	str	r3, [r4, #12]
 8003732:	60a3      	str	r3, [r4, #8]
 8003734:	7013      	strb	r3, [r2, #0]
 8003736:	65a3      	str	r3, [r4, #88]	@ 0x58
 8003738:	4b54      	ldr	r3, [pc, #336]	@ (800388c <_svfiprintf_r+0x1e8>)
 800373a:	2205      	movs	r2, #5
 800373c:	0018      	movs	r0, r3
 800373e:	7831      	ldrb	r1, [r6, #0]
 8003740:	9305      	str	r3, [sp, #20]
 8003742:	f000 fa3e 	bl	8003bc2 <memchr>
 8003746:	1c75      	adds	r5, r6, #1
 8003748:	2800      	cmp	r0, #0
 800374a:	d11f      	bne.n	800378c <_svfiprintf_r+0xe8>
 800374c:	6822      	ldr	r2, [r4, #0]
 800374e:	06d3      	lsls	r3, r2, #27
 8003750:	d504      	bpl.n	800375c <_svfiprintf_r+0xb8>
 8003752:	2353      	movs	r3, #83	@ 0x53
 8003754:	a904      	add	r1, sp, #16
 8003756:	185b      	adds	r3, r3, r1
 8003758:	2120      	movs	r1, #32
 800375a:	7019      	strb	r1, [r3, #0]
 800375c:	0713      	lsls	r3, r2, #28
 800375e:	d504      	bpl.n	800376a <_svfiprintf_r+0xc6>
 8003760:	2353      	movs	r3, #83	@ 0x53
 8003762:	a904      	add	r1, sp, #16
 8003764:	185b      	adds	r3, r3, r1
 8003766:	212b      	movs	r1, #43	@ 0x2b
 8003768:	7019      	strb	r1, [r3, #0]
 800376a:	7833      	ldrb	r3, [r6, #0]
 800376c:	2b2a      	cmp	r3, #42	@ 0x2a
 800376e:	d016      	beq.n	800379e <_svfiprintf_r+0xfa>
 8003770:	0035      	movs	r5, r6
 8003772:	2100      	movs	r1, #0
 8003774:	200a      	movs	r0, #10
 8003776:	68e3      	ldr	r3, [r4, #12]
 8003778:	782a      	ldrb	r2, [r5, #0]
 800377a:	1c6e      	adds	r6, r5, #1
 800377c:	3a30      	subs	r2, #48	@ 0x30
 800377e:	2a09      	cmp	r2, #9
 8003780:	d950      	bls.n	8003824 <_svfiprintf_r+0x180>
 8003782:	2900      	cmp	r1, #0
 8003784:	d111      	bne.n	80037aa <_svfiprintf_r+0x106>
 8003786:	e017      	b.n	80037b8 <_svfiprintf_r+0x114>
 8003788:	3501      	adds	r5, #1
 800378a:	e7af      	b.n	80036ec <_svfiprintf_r+0x48>
 800378c:	9b05      	ldr	r3, [sp, #20]
 800378e:	6822      	ldr	r2, [r4, #0]
 8003790:	1ac0      	subs	r0, r0, r3
 8003792:	2301      	movs	r3, #1
 8003794:	4083      	lsls	r3, r0
 8003796:	4313      	orrs	r3, r2
 8003798:	002e      	movs	r6, r5
 800379a:	6023      	str	r3, [r4, #0]
 800379c:	e7cc      	b.n	8003738 <_svfiprintf_r+0x94>
 800379e:	9b07      	ldr	r3, [sp, #28]
 80037a0:	1d19      	adds	r1, r3, #4
 80037a2:	681b      	ldr	r3, [r3, #0]
 80037a4:	9107      	str	r1, [sp, #28]
 80037a6:	2b00      	cmp	r3, #0
 80037a8:	db01      	blt.n	80037ae <_svfiprintf_r+0x10a>
 80037aa:	930b      	str	r3, [sp, #44]	@ 0x2c
 80037ac:	e004      	b.n	80037b8 <_svfiprintf_r+0x114>
 80037ae:	425b      	negs	r3, r3
 80037b0:	60e3      	str	r3, [r4, #12]
 80037b2:	2302      	movs	r3, #2
 80037b4:	4313      	orrs	r3, r2
 80037b6:	6023      	str	r3, [r4, #0]
 80037b8:	782b      	ldrb	r3, [r5, #0]
 80037ba:	2b2e      	cmp	r3, #46	@ 0x2e
 80037bc:	d10c      	bne.n	80037d8 <_svfiprintf_r+0x134>
 80037be:	786b      	ldrb	r3, [r5, #1]
 80037c0:	2b2a      	cmp	r3, #42	@ 0x2a
 80037c2:	d134      	bne.n	800382e <_svfiprintf_r+0x18a>
 80037c4:	9b07      	ldr	r3, [sp, #28]
 80037c6:	3502      	adds	r5, #2
 80037c8:	1d1a      	adds	r2, r3, #4
 80037ca:	681b      	ldr	r3, [r3, #0]
 80037cc:	9207      	str	r2, [sp, #28]
 80037ce:	2b00      	cmp	r3, #0
 80037d0:	da01      	bge.n	80037d6 <_svfiprintf_r+0x132>
 80037d2:	2301      	movs	r3, #1
 80037d4:	425b      	negs	r3, r3
 80037d6:	9309      	str	r3, [sp, #36]	@ 0x24
 80037d8:	4e2d      	ldr	r6, [pc, #180]	@ (8003890 <_svfiprintf_r+0x1ec>)
 80037da:	2203      	movs	r2, #3
 80037dc:	0030      	movs	r0, r6
 80037de:	7829      	ldrb	r1, [r5, #0]
 80037e0:	f000 f9ef 	bl	8003bc2 <memchr>
 80037e4:	2800      	cmp	r0, #0
 80037e6:	d006      	beq.n	80037f6 <_svfiprintf_r+0x152>
 80037e8:	2340      	movs	r3, #64	@ 0x40
 80037ea:	1b80      	subs	r0, r0, r6
 80037ec:	4083      	lsls	r3, r0
 80037ee:	6822      	ldr	r2, [r4, #0]
 80037f0:	3501      	adds	r5, #1
 80037f2:	4313      	orrs	r3, r2
 80037f4:	6023      	str	r3, [r4, #0]
 80037f6:	7829      	ldrb	r1, [r5, #0]
 80037f8:	2206      	movs	r2, #6
 80037fa:	4826      	ldr	r0, [pc, #152]	@ (8003894 <_svfiprintf_r+0x1f0>)
 80037fc:	1c6e      	adds	r6, r5, #1
 80037fe:	7621      	strb	r1, [r4, #24]
 8003800:	f000 f9df 	bl	8003bc2 <memchr>
 8003804:	2800      	cmp	r0, #0
 8003806:	d038      	beq.n	800387a <_svfiprintf_r+0x1d6>
 8003808:	4b23      	ldr	r3, [pc, #140]	@ (8003898 <_svfiprintf_r+0x1f4>)
 800380a:	2b00      	cmp	r3, #0
 800380c:	d122      	bne.n	8003854 <_svfiprintf_r+0x1b0>
 800380e:	2207      	movs	r2, #7
 8003810:	9b07      	ldr	r3, [sp, #28]
 8003812:	3307      	adds	r3, #7
 8003814:	4393      	bics	r3, r2
 8003816:	3308      	adds	r3, #8
 8003818:	9307      	str	r3, [sp, #28]
 800381a:	6963      	ldr	r3, [r4, #20]
 800381c:	9a04      	ldr	r2, [sp, #16]
 800381e:	189b      	adds	r3, r3, r2
 8003820:	6163      	str	r3, [r4, #20]
 8003822:	e762      	b.n	80036ea <_svfiprintf_r+0x46>
 8003824:	4343      	muls	r3, r0
 8003826:	0035      	movs	r5, r6
 8003828:	2101      	movs	r1, #1
 800382a:	189b      	adds	r3, r3, r2
 800382c:	e7a4      	b.n	8003778 <_svfiprintf_r+0xd4>
 800382e:	2300      	movs	r3, #0
 8003830:	200a      	movs	r0, #10
 8003832:	0019      	movs	r1, r3
 8003834:	3501      	adds	r5, #1
 8003836:	6063      	str	r3, [r4, #4]
 8003838:	782a      	ldrb	r2, [r5, #0]
 800383a:	1c6e      	adds	r6, r5, #1
 800383c:	3a30      	subs	r2, #48	@ 0x30
 800383e:	2a09      	cmp	r2, #9
 8003840:	d903      	bls.n	800384a <_svfiprintf_r+0x1a6>
 8003842:	2b00      	cmp	r3, #0
 8003844:	d0c8      	beq.n	80037d8 <_svfiprintf_r+0x134>
 8003846:	9109      	str	r1, [sp, #36]	@ 0x24
 8003848:	e7c6      	b.n	80037d8 <_svfiprintf_r+0x134>
 800384a:	4341      	muls	r1, r0
 800384c:	0035      	movs	r5, r6
 800384e:	2301      	movs	r3, #1
 8003850:	1889      	adds	r1, r1, r2
 8003852:	e7f1      	b.n	8003838 <_svfiprintf_r+0x194>
 8003854:	aa07      	add	r2, sp, #28
 8003856:	9200      	str	r2, [sp, #0]
 8003858:	0021      	movs	r1, r4
 800385a:	003a      	movs	r2, r7
 800385c:	4b0f      	ldr	r3, [pc, #60]	@ (800389c <_svfiprintf_r+0x1f8>)
 800385e:	9803      	ldr	r0, [sp, #12]
 8003860:	e000      	b.n	8003864 <_svfiprintf_r+0x1c0>
 8003862:	bf00      	nop
 8003864:	9004      	str	r0, [sp, #16]
 8003866:	9b04      	ldr	r3, [sp, #16]
 8003868:	3301      	adds	r3, #1
 800386a:	d1d6      	bne.n	800381a <_svfiprintf_r+0x176>
 800386c:	89bb      	ldrh	r3, [r7, #12]
 800386e:	980d      	ldr	r0, [sp, #52]	@ 0x34
 8003870:	065b      	lsls	r3, r3, #25
 8003872:	d500      	bpl.n	8003876 <_svfiprintf_r+0x1d2>
 8003874:	e72c      	b.n	80036d0 <_svfiprintf_r+0x2c>
 8003876:	b021      	add	sp, #132	@ 0x84
 8003878:	bdf0      	pop	{r4, r5, r6, r7, pc}
 800387a:	aa07      	add	r2, sp, #28
 800387c:	9200      	str	r2, [sp, #0]
 800387e:	0021      	movs	r1, r4
 8003880:	003a      	movs	r2, r7
 8003882:	4b06      	ldr	r3, [pc, #24]	@ (800389c <_svfiprintf_r+0x1f8>)
 8003884:	9803      	ldr	r0, [sp, #12]
 8003886:	f000 f87b 	bl	8003980 <_printf_i>
 800388a:	e7eb      	b.n	8003864 <_svfiprintf_r+0x1c0>
 800388c:	08003d58 	.word	0x08003d58
 8003890:	08003d5e 	.word	0x08003d5e
 8003894:	08003d62 	.word	0x08003d62
 8003898:	00000000 	.word	0x00000000
 800389c:	080035e5 	.word	0x080035e5

080038a0 <_printf_common>:
 80038a0:	b5f7      	push	{r0, r1, r2, r4, r5, r6, r7, lr}
 80038a2:	0016      	movs	r6, r2
 80038a4:	9301      	str	r3, [sp, #4]
 80038a6:	688a      	ldr	r2, [r1, #8]
 80038a8:	690b      	ldr	r3, [r1, #16]
 80038aa:	000c      	movs	r4, r1
 80038ac:	9000      	str	r0, [sp, #0]
 80038ae:	4293      	cmp	r3, r2
 80038b0:	da00      	bge.n	80038b4 <_printf_common+0x14>
 80038b2:	0013      	movs	r3, r2
 80038b4:	0022      	movs	r2, r4
 80038b6:	6033      	str	r3, [r6, #0]
 80038b8:	3243      	adds	r2, #67	@ 0x43
 80038ba:	7812      	ldrb	r2, [r2, #0]
 80038bc:	2a00      	cmp	r2, #0
 80038be:	d001      	beq.n	80038c4 <_printf_common+0x24>
 80038c0:	3301      	adds	r3, #1
 80038c2:	6033      	str	r3, [r6, #0]
 80038c4:	6823      	ldr	r3, [r4, #0]
 80038c6:	069b      	lsls	r3, r3, #26
 80038c8:	d502      	bpl.n	80038d0 <_printf_common+0x30>
 80038ca:	6833      	ldr	r3, [r6, #0]
 80038cc:	3302      	adds	r3, #2
 80038ce:	6033      	str	r3, [r6, #0]
 80038d0:	6822      	ldr	r2, [r4, #0]
 80038d2:	2306      	movs	r3, #6
 80038d4:	0015      	movs	r5, r2
 80038d6:	401d      	ands	r5, r3
 80038d8:	421a      	tst	r2, r3
 80038da:	d027      	beq.n	800392c <_printf_common+0x8c>
 80038dc:	0023      	movs	r3, r4
 80038de:	3343      	adds	r3, #67	@ 0x43
 80038e0:	781b      	ldrb	r3, [r3, #0]
 80038e2:	1e5a      	subs	r2, r3, #1
 80038e4:	4193      	sbcs	r3, r2
 80038e6:	6822      	ldr	r2, [r4, #0]
 80038e8:	0692      	lsls	r2, r2, #26
 80038ea:	d430      	bmi.n	800394e <_printf_common+0xae>
 80038ec:	0022      	movs	r2, r4
 80038ee:	9901      	ldr	r1, [sp, #4]
 80038f0:	9800      	ldr	r0, [sp, #0]
 80038f2:	9d08      	ldr	r5, [sp, #32]
 80038f4:	3243      	adds	r2, #67	@ 0x43
 80038f6:	47a8      	blx	r5
 80038f8:	3001      	adds	r0, #1
 80038fa:	d025      	beq.n	8003948 <_printf_common+0xa8>
 80038fc:	2206      	movs	r2, #6
 80038fe:	6823      	ldr	r3, [r4, #0]
 8003900:	2500      	movs	r5, #0
 8003902:	4013      	ands	r3, r2
 8003904:	2b04      	cmp	r3, #4
 8003906:	d105      	bne.n	8003914 <_printf_common+0x74>
 8003908:	6833      	ldr	r3, [r6, #0]
 800390a:	68e5      	ldr	r5, [r4, #12]
 800390c:	1aed      	subs	r5, r5, r3
 800390e:	43eb      	mvns	r3, r5
 8003910:	17db      	asrs	r3, r3, #31
 8003912:	401d      	ands	r5, r3
 8003914:	68a3      	ldr	r3, [r4, #8]
 8003916:	6922      	ldr	r2, [r4, #16]
 8003918:	4293      	cmp	r3, r2
 800391a:	dd01      	ble.n	8003920 <_printf_common+0x80>
 800391c:	1a9b      	subs	r3, r3, r2
 800391e:	18ed      	adds	r5, r5, r3
 8003920:	2600      	movs	r6, #0
 8003922:	42b5      	cmp	r5, r6
 8003924:	d120      	bne.n	8003968 <_printf_common+0xc8>
 8003926:	2000      	movs	r0, #0
 8003928:	e010      	b.n	800394c <_printf_common+0xac>
 800392a:	3501      	adds	r5, #1
 800392c:	68e3      	ldr	r3, [r4, #12]
 800392e:	6832      	ldr	r2, [r6, #0]
 8003930:	1a9b      	subs	r3, r3, r2
 8003932:	42ab      	cmp	r3, r5
 8003934:	ddd2      	ble.n	80038dc <_printf_common+0x3c>
 8003936:	0022      	movs	r2, r4
 8003938:	2301      	movs	r3, #1
 800393a:	9901      	ldr	r1, [sp, #4]
 800393c:	9800      	ldr	r0, [sp, #0]
 800393e:	9f08      	ldr	r7, [sp, #32]
 8003940:	3219      	adds	r2, #25
 8003942:	47b8      	blx	r7
 8003944:	3001      	adds	r0, #1
 8003946:	d1f0      	bne.n	800392a <_printf_common+0x8a>
 8003948:	2001      	movs	r0, #1
 800394a:	4240      	negs	r0, r0
 800394c:	bdfe      	pop	{r1, r2, r3, r4, r5, r6, r7, pc}
 800394e:	2030      	movs	r0, #48	@ 0x30
 8003950:	18e1      	adds	r1, r4, r3
 8003952:	3143      	adds	r1, #67	@ 0x43
 8003954:	7008      	strb	r0, [r1, #0]
 8003956:	0021      	movs	r1, r4
 8003958:	1c5a      	adds	r2, r3, #1
 800395a:	3145      	adds	r1, #69	@ 0x45
 800395c:	7809      	ldrb	r1, [r1, #0]
 800395e:	18a2      	adds	r2, r4, r2
 8003960:	3243      	adds	r2, #67	@ 0x43
 8003962:	3302      	adds	r3, #2
 8003964:	7011      	strb	r1, [r2, #0]
 8003966:	e7c1      	b.n	80038ec <_printf_common+0x4c>
 8003968:	0022      	movs	r2, r4
 800396a:	2301      	movs	r3, #1
 800396c:	9901      	ldr	r1, [sp, #4]
 800396e:	9800      	ldr	r0, [sp, #0]
 8003970:	9f08      	ldr	r7, [sp, #32]
 8003972:	321a      	adds	r2, #26
 8003974:	47b8      	blx	r7
 8003976:	3001      	adds	r0, #1
 8003978:	d0e6      	beq.n	8003948 <_printf_common+0xa8>
 800397a:	3601      	adds	r6, #1
 800397c:	e7d1      	b.n	8003922 <_printf_common+0x82>
	...

08003980 <_printf_i>:
 8003980:	b5f0      	push	{r4, r5, r6, r7, lr}
 8003982:	b08b      	sub	sp, #44	@ 0x2c
 8003984:	9206      	str	r2, [sp, #24]
 8003986:	000a      	movs	r2, r1
 8003988:	3243      	adds	r2, #67	@ 0x43
 800398a:	9307      	str	r3, [sp, #28]
 800398c:	9005      	str	r0, [sp, #20]
 800398e:	9203      	str	r2, [sp, #12]
 8003990:	7e0a      	ldrb	r2, [r1, #24]
 8003992:	000c      	movs	r4, r1
 8003994:	9b10      	ldr	r3, [sp, #64]	@ 0x40
 8003996:	2a78      	cmp	r2, #120	@ 0x78
 8003998:	d809      	bhi.n	80039ae <_printf_i+0x2e>
 800399a:	2a62      	cmp	r2, #98	@ 0x62
 800399c:	d80b      	bhi.n	80039b6 <_printf_i+0x36>
 800399e:	2a00      	cmp	r2, #0
 80039a0:	d100      	bne.n	80039a4 <_printf_i+0x24>
 80039a2:	e0bc      	b.n	8003b1e <_printf_i+0x19e>
 80039a4:	497b      	ldr	r1, [pc, #492]	@ (8003b94 <_printf_i+0x214>)
 80039a6:	9104      	str	r1, [sp, #16]
 80039a8:	2a58      	cmp	r2, #88	@ 0x58
 80039aa:	d100      	bne.n	80039ae <_printf_i+0x2e>
 80039ac:	e090      	b.n	8003ad0 <_printf_i+0x150>
 80039ae:	0025      	movs	r5, r4
 80039b0:	3542      	adds	r5, #66	@ 0x42
 80039b2:	702a      	strb	r2, [r5, #0]
 80039b4:	e022      	b.n	80039fc <_printf_i+0x7c>
 80039b6:	0010      	movs	r0, r2
 80039b8:	3863      	subs	r0, #99	@ 0x63
 80039ba:	2815      	cmp	r0, #21
 80039bc:	d8f7      	bhi.n	80039ae <_printf_i+0x2e>
 80039be:	f7fc fbab 	bl	8000118 <__gnu_thumb1_case_shi>
 80039c2:	0016      	.short	0x0016
 80039c4:	fff6001f 	.word	0xfff6001f
 80039c8:	fff6fff6 	.word	0xfff6fff6
 80039cc:	001ffff6 	.word	0x001ffff6
 80039d0:	fff6fff6 	.word	0xfff6fff6
 80039d4:	fff6fff6 	.word	0xfff6fff6
 80039d8:	003600a1 	.word	0x003600a1
 80039dc:	fff60080 	.word	0xfff60080
 80039e0:	00b2fff6 	.word	0x00b2fff6
 80039e4:	0036fff6 	.word	0x0036fff6
 80039e8:	fff6fff6 	.word	0xfff6fff6
 80039ec:	0084      	.short	0x0084
 80039ee:	0025      	movs	r5, r4
 80039f0:	681a      	ldr	r2, [r3, #0]
 80039f2:	3542      	adds	r5, #66	@ 0x42
 80039f4:	1d11      	adds	r1, r2, #4
 80039f6:	6019      	str	r1, [r3, #0]
 80039f8:	6813      	ldr	r3, [r2, #0]
 80039fa:	702b      	strb	r3, [r5, #0]
 80039fc:	2301      	movs	r3, #1
 80039fe:	e0a0      	b.n	8003b42 <_printf_i+0x1c2>
 8003a00:	6818      	ldr	r0, [r3, #0]
 8003a02:	6809      	ldr	r1, [r1, #0]
 8003a04:	1d02      	adds	r2, r0, #4
 8003a06:	060d      	lsls	r5, r1, #24
 8003a08:	d50b      	bpl.n	8003a22 <_printf_i+0xa2>
 8003a0a:	6806      	ldr	r6, [r0, #0]
 8003a0c:	601a      	str	r2, [r3, #0]
 8003a0e:	2e00      	cmp	r6, #0
 8003a10:	da03      	bge.n	8003a1a <_printf_i+0x9a>
 8003a12:	232d      	movs	r3, #45	@ 0x2d
 8003a14:	9a03      	ldr	r2, [sp, #12]
 8003a16:	4276      	negs	r6, r6
 8003a18:	7013      	strb	r3, [r2, #0]
 8003a1a:	4b5e      	ldr	r3, [pc, #376]	@ (8003b94 <_printf_i+0x214>)
 8003a1c:	270a      	movs	r7, #10
 8003a1e:	9304      	str	r3, [sp, #16]
 8003a20:	e018      	b.n	8003a54 <_printf_i+0xd4>
 8003a22:	6806      	ldr	r6, [r0, #0]
 8003a24:	601a      	str	r2, [r3, #0]
 8003a26:	0649      	lsls	r1, r1, #25
 8003a28:	d5f1      	bpl.n	8003a0e <_printf_i+0x8e>
 8003a2a:	b236      	sxth	r6, r6
 8003a2c:	e7ef      	b.n	8003a0e <_printf_i+0x8e>
 8003a2e:	6808      	ldr	r0, [r1, #0]
 8003a30:	6819      	ldr	r1, [r3, #0]
 8003a32:	c940      	ldmia	r1!, {r6}
 8003a34:	0605      	lsls	r5, r0, #24
 8003a36:	d402      	bmi.n	8003a3e <_printf_i+0xbe>
 8003a38:	0640      	lsls	r0, r0, #25
 8003a3a:	d500      	bpl.n	8003a3e <_printf_i+0xbe>
 8003a3c:	b2b6      	uxth	r6, r6
 8003a3e:	6019      	str	r1, [r3, #0]
 8003a40:	4b54      	ldr	r3, [pc, #336]	@ (8003b94 <_printf_i+0x214>)
 8003a42:	270a      	movs	r7, #10
 8003a44:	9304      	str	r3, [sp, #16]
 8003a46:	2a6f      	cmp	r2, #111	@ 0x6f
 8003a48:	d100      	bne.n	8003a4c <_printf_i+0xcc>
 8003a4a:	3f02      	subs	r7, #2
 8003a4c:	0023      	movs	r3, r4
 8003a4e:	2200      	movs	r2, #0
 8003a50:	3343      	adds	r3, #67	@ 0x43
 8003a52:	701a      	strb	r2, [r3, #0]
 8003a54:	6863      	ldr	r3, [r4, #4]
 8003a56:	60a3      	str	r3, [r4, #8]
 8003a58:	2b00      	cmp	r3, #0
 8003a5a:	db03      	blt.n	8003a64 <_printf_i+0xe4>
 8003a5c:	2104      	movs	r1, #4
 8003a5e:	6822      	ldr	r2, [r4, #0]
 8003a60:	438a      	bics	r2, r1
 8003a62:	6022      	str	r2, [r4, #0]
 8003a64:	2e00      	cmp	r6, #0
 8003a66:	d102      	bne.n	8003a6e <_printf_i+0xee>
 8003a68:	9d03      	ldr	r5, [sp, #12]
 8003a6a:	2b00      	cmp	r3, #0
 8003a6c:	d00c      	beq.n	8003a88 <_printf_i+0x108>
 8003a6e:	9d03      	ldr	r5, [sp, #12]
 8003a70:	0030      	movs	r0, r6
 8003a72:	0039      	movs	r1, r7
 8003a74:	f7fc fbe0 	bl	8000238 <__aeabi_uidivmod>
 8003a78:	9b04      	ldr	r3, [sp, #16]
 8003a7a:	3d01      	subs	r5, #1
 8003a7c:	5c5b      	ldrb	r3, [r3, r1]
 8003a7e:	702b      	strb	r3, [r5, #0]
 8003a80:	0033      	movs	r3, r6
 8003a82:	0006      	movs	r6, r0
 8003a84:	429f      	cmp	r7, r3
 8003a86:	d9f3      	bls.n	8003a70 <_printf_i+0xf0>
 8003a88:	2f08      	cmp	r7, #8
 8003a8a:	d109      	bne.n	8003aa0 <_printf_i+0x120>
 8003a8c:	6823      	ldr	r3, [r4, #0]
 8003a8e:	07db      	lsls	r3, r3, #31
 8003a90:	d506      	bpl.n	8003aa0 <_printf_i+0x120>
 8003a92:	6862      	ldr	r2, [r4, #4]
 8003a94:	6923      	ldr	r3, [r4, #16]
 8003a96:	429a      	cmp	r2, r3
 8003a98:	dc02      	bgt.n	8003aa0 <_printf_i+0x120>
 8003a9a:	2330      	movs	r3, #48	@ 0x30
 8003a9c:	3d01      	subs	r5, #1
 8003a9e:	702b      	strb	r3, [r5, #0]
 8003aa0:	9b03      	ldr	r3, [sp, #12]
 8003aa2:	1b5b      	subs	r3, r3, r5
 8003aa4:	6123      	str	r3, [r4, #16]
 8003aa6:	9b07      	ldr	r3, [sp, #28]
 8003aa8:	0021      	movs	r1, r4
 8003aaa:	9300      	str	r3, [sp, #0]
 8003aac:	9805      	ldr	r0, [sp, #20]
 8003aae:	9b06      	ldr	r3, [sp, #24]
 8003ab0:	aa09      	add	r2, sp, #36	@ 0x24
 8003ab2:	f7ff fef5 	bl	80038a0 <_printf_common>
 8003ab6:	3001      	adds	r0, #1
 8003ab8:	d148      	bne.n	8003b4c <_printf_i+0x1cc>
 8003aba:	2001      	movs	r0, #1
 8003abc:	4240      	negs	r0, r0
 8003abe:	b00b      	add	sp, #44	@ 0x2c
 8003ac0:	bdf0      	pop	{r4, r5, r6, r7, pc}
 8003ac2:	2220      	movs	r2, #32
 8003ac4:	6809      	ldr	r1, [r1, #0]
 8003ac6:	430a      	orrs	r2, r1
 8003ac8:	6022      	str	r2, [r4, #0]
 8003aca:	2278      	movs	r2, #120	@ 0x78
 8003acc:	4932      	ldr	r1, [pc, #200]	@ (8003b98 <_printf_i+0x218>)
 8003ace:	9104      	str	r1, [sp, #16]
 8003ad0:	0021      	movs	r1, r4
 8003ad2:	3145      	adds	r1, #69	@ 0x45
 8003ad4:	700a      	strb	r2, [r1, #0]
 8003ad6:	6819      	ldr	r1, [r3, #0]
 8003ad8:	6822      	ldr	r2, [r4, #0]
 8003ada:	c940      	ldmia	r1!, {r6}
 8003adc:	0610      	lsls	r0, r2, #24
 8003ade:	d402      	bmi.n	8003ae6 <_printf_i+0x166>
 8003ae0:	0650      	lsls	r0, r2, #25
 8003ae2:	d500      	bpl.n	8003ae6 <_printf_i+0x166>
 8003ae4:	b2b6      	uxth	r6, r6
 8003ae6:	6019      	str	r1, [r3, #0]
 8003ae8:	07d3      	lsls	r3, r2, #31
 8003aea:	d502      	bpl.n	8003af2 <_printf_i+0x172>
 8003aec:	2320      	movs	r3, #32
 8003aee:	4313      	orrs	r3, r2
 8003af0:	6023      	str	r3, [r4, #0]
 8003af2:	2e00      	cmp	r6, #0
 8003af4:	d001      	beq.n	8003afa <_printf_i+0x17a>
 8003af6:	2710      	movs	r7, #16
 8003af8:	e7a8      	b.n	8003a4c <_printf_i+0xcc>
 8003afa:	2220      	movs	r2, #32
 8003afc:	6823      	ldr	r3, [r4, #0]
 8003afe:	4393      	bics	r3, r2
 8003b00:	6023      	str	r3, [r4, #0]
 8003b02:	e7f8      	b.n	8003af6 <_printf_i+0x176>
 8003b04:	681a      	ldr	r2, [r3, #0]
 8003b06:	680d      	ldr	r5, [r1, #0]
 8003b08:	1d10      	adds	r0, r2, #4
 8003b0a:	6949      	ldr	r1, [r1, #20]
 8003b0c:	6018      	str	r0, [r3, #0]
 8003b0e:	6813      	ldr	r3, [r2, #0]
 8003b10:	062e      	lsls	r6, r5, #24
 8003b12:	d501      	bpl.n	8003b18 <_printf_i+0x198>
 8003b14:	6019      	str	r1, [r3, #0]
 8003b16:	e002      	b.n	8003b1e <_printf_i+0x19e>
 8003b18:	066d      	lsls	r5, r5, #25
 8003b1a:	d5fb      	bpl.n	8003b14 <_printf_i+0x194>
 8003b1c:	8019      	strh	r1, [r3, #0]
 8003b1e:	2300      	movs	r3, #0
 8003b20:	9d03      	ldr	r5, [sp, #12]
 8003b22:	6123      	str	r3, [r4, #16]
 8003b24:	e7bf      	b.n	8003aa6 <_printf_i+0x126>
 8003b26:	681a      	ldr	r2, [r3, #0]
 8003b28:	1d11      	adds	r1, r2, #4
 8003b2a:	6019      	str	r1, [r3, #0]
 8003b2c:	6815      	ldr	r5, [r2, #0]
 8003b2e:	2100      	movs	r1, #0
 8003b30:	0028      	movs	r0, r5
 8003b32:	6862      	ldr	r2, [r4, #4]
 8003b34:	f000 f845 	bl	8003bc2 <memchr>
 8003b38:	2800      	cmp	r0, #0
 8003b3a:	d001      	beq.n	8003b40 <_printf_i+0x1c0>
 8003b3c:	1b40      	subs	r0, r0, r5
 8003b3e:	6060      	str	r0, [r4, #4]
 8003b40:	6863      	ldr	r3, [r4, #4]
 8003b42:	6123      	str	r3, [r4, #16]
 8003b44:	2300      	movs	r3, #0
 8003b46:	9a03      	ldr	r2, [sp, #12]
 8003b48:	7013      	strb	r3, [r2, #0]
 8003b4a:	e7ac      	b.n	8003aa6 <_printf_i+0x126>
 8003b4c:	002a      	movs	r2, r5
 8003b4e:	6923      	ldr	r3, [r4, #16]
 8003b50:	9906      	ldr	r1, [sp, #24]
 8003b52:	9805      	ldr	r0, [sp, #20]
 8003b54:	9d07      	ldr	r5, [sp, #28]
 8003b56:	47a8      	blx	r5
 8003b58:	3001      	adds	r0, #1
 8003b5a:	d0ae      	beq.n	8003aba <_printf_i+0x13a>
 8003b5c:	6823      	ldr	r3, [r4, #0]
 8003b5e:	079b      	lsls	r3, r3, #30
 8003b60:	d415      	bmi.n	8003b8e <_printf_i+0x20e>
 8003b62:	9b09      	ldr	r3, [sp, #36]	@ 0x24
 8003b64:	68e0      	ldr	r0, [r4, #12]
 8003b66:	4298      	cmp	r0, r3
 8003b68:	daa9      	bge.n	8003abe <_printf_i+0x13e>
 8003b6a:	0018      	movs	r0, r3
 8003b6c:	e7a7      	b.n	8003abe <_printf_i+0x13e>
 8003b6e:	0022      	movs	r2, r4
 8003b70:	2301      	movs	r3, #1
 8003b72:	9906      	ldr	r1, [sp, #24]
 8003b74:	9805      	ldr	r0, [sp, #20]
 8003b76:	9e07      	ldr	r6, [sp, #28]
 8003b78:	3219      	adds	r2, #25
 8003b7a:	47b0      	blx	r6
 8003b7c:	3001      	adds	r0, #1
 8003b7e:	d09c      	beq.n	8003aba <_printf_i+0x13a>
 8003b80:	3501      	adds	r5, #1
 8003b82:	68e3      	ldr	r3, [r4, #12]
 8003b84:	9a09      	ldr	r2, [sp, #36]	@ 0x24
 8003b86:	1a9b      	subs	r3, r3, r2
 8003b88:	42ab      	cmp	r3, r5
 8003b8a:	dcf0      	bgt.n	8003b6e <_printf_i+0x1ee>
 8003b8c:	e7e9      	b.n	8003b62 <_printf_i+0x1e2>
 8003b8e:	2500      	movs	r5, #0
 8003b90:	e7f7      	b.n	8003b82 <_printf_i+0x202>
 8003b92:	46c0      	nop			@ (mov r8, r8)
 8003b94:	08003d69 	.word	0x08003d69
 8003b98:	08003d7a 	.word	0x08003d7a

08003b9c <memmove>:
 8003b9c:	b510      	push	{r4, lr}
 8003b9e:	4288      	cmp	r0, r1
 8003ba0:	d806      	bhi.n	8003bb0 <memmove+0x14>
 8003ba2:	2300      	movs	r3, #0
 8003ba4:	429a      	cmp	r2, r3
 8003ba6:	d008      	beq.n	8003bba <memmove+0x1e>
 8003ba8:	5ccc      	ldrb	r4, [r1, r3]
 8003baa:	54c4      	strb	r4, [r0, r3]
 8003bac:	3301      	adds	r3, #1
 8003bae:	e7f9      	b.n	8003ba4 <memmove+0x8>
 8003bb0:	188b      	adds	r3, r1, r2
 8003bb2:	4298      	cmp	r0, r3
 8003bb4:	d2f5      	bcs.n	8003ba2 <memmove+0x6>
 8003bb6:	3a01      	subs	r2, #1
 8003bb8:	d200      	bcs.n	8003bbc <memmove+0x20>
 8003bba:	bd10      	pop	{r4, pc}
 8003bbc:	5c8b      	ldrb	r3, [r1, r2]
 8003bbe:	5483      	strb	r3, [r0, r2]
 8003bc0:	e7f9      	b.n	8003bb6 <memmove+0x1a>

08003bc2 <memchr>:
 8003bc2:	b2c9      	uxtb	r1, r1
 8003bc4:	1882      	adds	r2, r0, r2
 8003bc6:	4290      	cmp	r0, r2
 8003bc8:	d101      	bne.n	8003bce <memchr+0xc>
 8003bca:	2000      	movs	r0, #0
 8003bcc:	4770      	bx	lr
 8003bce:	7803      	ldrb	r3, [r0, #0]
 8003bd0:	428b      	cmp	r3, r1
 8003bd2:	d0fb      	beq.n	8003bcc <memchr+0xa>
 8003bd4:	3001      	adds	r0, #1
 8003bd6:	e7f6      	b.n	8003bc6 <memchr+0x4>

08003bd8 <memcpy>:
 8003bd8:	2300      	movs	r3, #0
 8003bda:	b510      	push	{r4, lr}
 8003bdc:	429a      	cmp	r2, r3
 8003bde:	d100      	bne.n	8003be2 <memcpy+0xa>
 8003be0:	bd10      	pop	{r4, pc}
 8003be2:	5ccc      	ldrb	r4, [r1, r3]
 8003be4:	54c4      	strb	r4, [r0, r3]
 8003be6:	3301      	adds	r3, #1
 8003be8:	e7f8      	b.n	8003bdc <memcpy+0x4>

08003bea <_realloc_r>:
 8003bea:	b5f7      	push	{r0, r1, r2, r4, r5, r6, r7, lr}
 8003bec:	0006      	movs	r6, r0
 8003bee:	000c      	movs	r4, r1
 8003bf0:	0015      	movs	r5, r2
 8003bf2:	2900      	cmp	r1, #0
 8003bf4:	d105      	bne.n	8003c02 <_realloc_r+0x18>
 8003bf6:	0011      	movs	r1, r2
 8003bf8:	f7ff fbb4 	bl	8003364 <_malloc_r>
 8003bfc:	0004      	movs	r4, r0
 8003bfe:	0020      	movs	r0, r4
 8003c00:	bdfe      	pop	{r1, r2, r3, r4, r5, r6, r7, pc}
 8003c02:	2a00      	cmp	r2, #0
 8003c04:	d103      	bne.n	8003c0e <_realloc_r+0x24>
 8003c06:	f7ff fca3 	bl	8003550 <_free_r>
 8003c0a:	2400      	movs	r4, #0
 8003c0c:	e7f7      	b.n	8003bfe <_realloc_r+0x14>
 8003c0e:	f000 f81b 	bl	8003c48 <_malloc_usable_size_r>
 8003c12:	0007      	movs	r7, r0
 8003c14:	4285      	cmp	r5, r0
 8003c16:	d802      	bhi.n	8003c1e <_realloc_r+0x34>
 8003c18:	0843      	lsrs	r3, r0, #1
 8003c1a:	42ab      	cmp	r3, r5
 8003c1c:	d3ef      	bcc.n	8003bfe <_realloc_r+0x14>
 8003c1e:	0029      	movs	r1, r5
 8003c20:	0030      	movs	r0, r6
 8003c22:	f7ff fb9f 	bl	8003364 <_malloc_r>
 8003c26:	9001      	str	r0, [sp, #4]
 8003c28:	2800      	cmp	r0, #0
 8003c2a:	d0ee      	beq.n	8003c0a <_realloc_r+0x20>
 8003c2c:	002a      	movs	r2, r5
 8003c2e:	42bd      	cmp	r5, r7
 8003c30:	d900      	bls.n	8003c34 <_realloc_r+0x4a>
 8003c32:	003a      	movs	r2, r7
 8003c34:	0021      	movs	r1, r4
 8003c36:	9801      	ldr	r0, [sp, #4]
 8003c38:	f7ff ffce 	bl	8003bd8 <memcpy>
 8003c3c:	0021      	movs	r1, r4
 8003c3e:	0030      	movs	r0, r6
 8003c40:	f7ff fc86 	bl	8003550 <_free_r>
 8003c44:	9c01      	ldr	r4, [sp, #4]
 8003c46:	e7da      	b.n	8003bfe <_realloc_r+0x14>

08003c48 <_malloc_usable_size_r>:
 8003c48:	1f0b      	subs	r3, r1, #4
 8003c4a:	681b      	ldr	r3, [r3, #0]
 8003c4c:	1f18      	subs	r0, r3, #4
 8003c4e:	2b00      	cmp	r3, #0
 8003c50:	da01      	bge.n	8003c56 <_malloc_usable_size_r+0xe>
 8003c52:	580b      	ldr	r3, [r1, r0]
 8003c54:	18c0      	adds	r0, r0, r3
 8003c56:	4770      	bx	lr

08003c58 <_init>:
 8003c58:	b5f8      	push	{r3, r4, r5, r6, r7, lr}
 8003c5a:	46c0      	nop			@ (mov r8, r8)
 8003c5c:	bcf8      	pop	{r3, r4, r5, r6, r7}
 8003c5e:	bc08      	pop	{r3}
 8003c60:	469e      	mov	lr, r3
 8003c62:	4770      	bx	lr

08003c64 <_fini>:
 8003c64:	b5f8      	push	{r3, r4, r5, r6, r7, lr}
 8003c66:	46c0      	nop			@ (mov r8, r8)
 8003c68:	bcf8      	pop	{r3, r4, r5, r6, r7}
 8003c6a:	bc08      	pop	{r3}
 8003c6c:	469e      	mov	lr, r3
 8003c6e:	4770      	bx	lr

08003c70 <__FLASH_Program_Fast_veneer>:
 8003c70:	b401      	push	{r0}
 8003c72:	4802      	ldr	r0, [pc, #8]	@ (8003c7c <__FLASH_Program_Fast_veneer+0xc>)
 8003c74:	4684      	mov	ip, r0
 8003c76:	bc01      	pop	{r0}
 8003c78:	4760      	bx	ip
 8003c7a:	bf00      	nop
 8003c7c:	20000079 	.word	0x20000079

Disassembly of section .data:

20000000 <g_tail_status>:
20000000:	                                         .

20000001 <g_uart_out_transmit_commplete>:
20000001:	                                         .

20000002 <g_uart_in_transmit_commplete>:
20000002:	                                         ..

20000004 <g_heartbeat_data_pack_buf>:
20000004:	000355aa 55fcfdff 000000aa              .U.....U....

20000010 <s_enum_please_data_packet_buf>:
20000010:	000355aa 55fbfcff                        .U.....U.

20000019 <s_enum_please_nums>:
20000019:	                                         ...

2000001c <SystemCoreClock>:
2000001c:	00f42400                                .$..

20000020 <uwTickFreq>:
20000020:	00000001                                ....

20000024 <uwTickPrio>:
20000024:	00000004                                ....

20000028 <_impure_ptr>:
20000028:	2000002c                                ,.. 

2000002c <_impure_data>:
2000002c:	00000000 20000ba0 20000c08 20000c70     ....... ... p.. 
	...

20000078 <FLASH_Program_Fast>:
20000078:	b510      	push	{r4, lr}
2000007a:	4a0c      	ldr	r2, [pc, #48]	@ (200000ac <FLASH_Program_Fast+0x34>)
2000007c:	6954      	ldr	r4, [r2, #20]
2000007e:	2380      	movs	r3, #128	@ 0x80
20000080:	02db      	lsls	r3, r3, #11
20000082:	4323      	orrs	r3, r4
20000084:	6153      	str	r3, [r2, #20]
20000086:	f3ef 8410 	mrs	r4, PRIMASK
2000008a:	b672      	cpsid	i
2000008c:	2300      	movs	r3, #0
2000008e:	e003      	b.n	20000098 <FLASH_Program_Fast+0x20>
20000090:	c904      	ldmia	r1!, {r2}
20000092:	c004      	stmia	r0!, {r2}
20000094:	3301      	adds	r3, #1
20000096:	b2db      	uxtb	r3, r3
20000098:	2b3f      	cmp	r3, #63	@ 0x3f
2000009a:	d9f9      	bls.n	20000090 <FLASH_Program_Fast+0x18>
2000009c:	4b03      	ldr	r3, [pc, #12]	@ (200000ac <FLASH_Program_Fast+0x34>)
2000009e:	691b      	ldr	r3, [r3, #16]
200000a0:	03db      	lsls	r3, r3, #15
200000a2:	d4fb      	bmi.n	2000009c <FLASH_Program_Fast+0x24>
200000a4:	f384 8810 	msr	PRIMASK, r4
200000a8:	bd10      	pop	{r4, pc}
200000aa:	46c0      	nop			@ (mov r8, r8)
200000ac:	40022000 	.word	0x40022000
