
Chain_IAP_V2.elf:     file format elf32-littlearm

Sections:
Idx Name          Size      VMA       LMA       File off  Algn
  0 .isr_vector   000000bc  08000000  08000000  00001000  2**0
                  CONTENTS, ALLOC, LOAD, READONLY, DATA
  1 .text         000014d8  080000c0  080000c0  000010c0  2**3
                  CONTENTS, ALLOC, LOAD, READONLY, CODE
  2 .rodata       00000090  08001598  08001598  00002598  2**2
                  CONTENTS, ALLOC, LOAD, READONLY, DATA
  3 .ARM.extab    00000000  08001628  08001628  00003044  2**0
                  CONTENTS
  4 .ARM          00000000  08001628  08001628  00003044  2**0
                  CONTENTS
  5 .preinit_array 00000000  08001628  08001628  00003044  2**0
                  CONTENTS, ALLOC, LOAD, DATA
  6 .init_array   00000004  08001628  08001628  00002628  2**2
                  CONTENTS, ALLOC, LOAD, READONLY, DATA
  7 .fini_array   00000004  0800162c  0800162c  0000262c  2**2
                  CONTENTS, ALLOC, LOAD, READONLY, DATA
  8 .data         00000044  20000000  08001630  00003000  2**2
                  CONTENTS, ALLOC, LOAD, CODE
  9 .bss          00000878  20000044  08001674  00003044  2**2
                  ALLOC
 10 ._user_heap_stack 00000604  200008bc  08001674  000038bc  2**0
                  ALLOC
 11 .ARM.attributes 00000028  00000000  00000000  00003044  2**0
                  CONTENTS, READONLY
 12 .comment      00000043  00000000  00000000  0000306c  2**0
                  CONTENTS, READONLY
 13 .debug_frame  0000006c  00000000  00000000  000030b0  2**2
                  CONTENTS, READONLY, DEBUGGING, OCTETS

Disassembly of section .text:

080000c0 <__do_global_dtors_aux>:
 80000c0:	b510      	push	{r4, lr}
 80000c2:	4c06      	ldr	r4, [pc, #24]	@ (80000dc <__do_global_dtors_aux+0x1c>)
 80000c4:	7823      	ldrb	r3, [r4, #0]
 80000c6:	2b00      	cmp	r3, #0
 80000c8:	d107      	bne.n	80000da <__do_global_dtors_aux+0x1a>
 80000ca:	4b05      	ldr	r3, [pc, #20]	@ (80000e0 <__do_global_dtors_aux+0x20>)
 80000cc:	2b00      	cmp	r3, #0
 80000ce:	d002      	beq.n	80000d6 <__do_global_dtors_aux+0x16>
 80000d0:	4804      	ldr	r0, [pc, #16]	@ (80000e4 <__do_global_dtors_aux+0x24>)
 80000d2:	e000      	b.n	80000d6 <__do_global_dtors_aux+0x16>
 80000d4:	bf00      	nop
 80000d6:	2301      	movs	r3, #1
 80000d8:	7023      	strb	r3, [r4, #0]
 80000da:	bd10      	pop	{r4, pc}
 80000dc:	20000044 	.word	0x20000044
 80000e0:	00000000 	.word	0x00000000
 80000e4:	08001570 	.word	0x08001570

080000e8 <frame_dummy>:
 80000e8:	4b04      	ldr	r3, [pc, #16]	@ (80000fc <frame_dummy+0x14>)
 80000ea:	b510      	push	{r4, lr}
 80000ec:	2b00      	cmp	r3, #0
 80000ee:	d003      	beq.n	80000f8 <frame_dummy+0x10>
 80000f0:	4903      	ldr	r1, [pc, #12]	@ (8000100 <frame_dummy+0x18>)
 80000f2:	4804      	ldr	r0, [pc, #16]	@ (8000104 <frame_dummy+0x1c>)
 80000f4:	e000      	b.n	80000f8 <frame_dummy+0x10>
 80000f6:	bf00      	nop
 80000f8:	bd10      	pop	{r4, pc}
 80000fa:	46c0      	nop			@ (mov r8, r8)
 80000fc:	00000000 	.word	0x00000000
 8000100:	20000048 	.word	0x20000048
 8000104:	08001570 	.word	0x08001570

08000108 <__udivsi3>:
 8000108:	2200      	movs	r2, #0
 800010a:	0843      	lsrs	r3, r0, #1
 800010c:	428b      	cmp	r3, r1
 800010e:	d374      	bcc.n	80001fa <__udivsi3+0xf2>
 8000110:	0903      	lsrs	r3, r0, #4
 8000112:	428b      	cmp	r3, r1
 8000114:	d35f      	bcc.n	80001d6 <__udivsi3+0xce>
 8000116:	0a03      	lsrs	r3, r0, #8
 8000118:	428b      	cmp	r3, r1
 800011a:	d344      	bcc.n	80001a6 <__udivsi3+0x9e>
 800011c:	0b03      	lsrs	r3, r0, #12
 800011e:	428b      	cmp	r3, r1
 8000120:	d328      	bcc.n	8000174 <__udivsi3+0x6c>
 8000122:	0c03      	lsrs	r3, r0, #16
 8000124:	428b      	cmp	r3, r1
 8000126:	d30d      	bcc.n	8000144 <__udivsi3+0x3c>
 8000128:	22ff      	movs	r2, #255	@ 0xff
 800012a:	0209      	lsls	r1, r1, #8
 800012c:	ba12      	rev	r2, r2
 800012e:	0c03      	lsrs	r3, r0, #16
 8000130:	428b      	cmp	r3, r1
 8000132:	d302      	bcc.n	800013a <__udivsi3+0x32>
 8000134:	1212      	asrs	r2, r2, #8
 8000136:	0209      	lsls	r1, r1, #8
 8000138:	d065      	beq.n	8000206 <__udivsi3+0xfe>
 800013a:	0b03      	lsrs	r3, r0, #12
 800013c:	428b      	cmp	r3, r1
 800013e:	d319      	bcc.n	8000174 <__udivsi3+0x6c>
 8000140:	e000      	b.n	8000144 <__udivsi3+0x3c>
 8000142:	0a09      	lsrs	r1, r1, #8
 8000144:	0bc3      	lsrs	r3, r0, #15
 8000146:	428b      	cmp	r3, r1
 8000148:	d301      	bcc.n	800014e <__udivsi3+0x46>
 800014a:	03cb      	lsls	r3, r1, #15
 800014c:	1ac0      	subs	r0, r0, r3
 800014e:	4152      	adcs	r2, r2
 8000150:	0b83      	lsrs	r3, r0, #14
 8000152:	428b      	cmp	r3, r1
 8000154:	d301      	bcc.n	800015a <__udivsi3+0x52>
 8000156:	038b      	lsls	r3, r1, #14
 8000158:	1ac0      	subs	r0, r0, r3
 800015a:	4152      	adcs	r2, r2
 800015c:	0b43      	lsrs	r3, r0, #13
 800015e:	428b      	cmp	r3, r1
 8000160:	d301      	bcc.n	8000166 <__udivsi3+0x5e>
 8000162:	034b      	lsls	r3, r1, #13
 8000164:	1ac0      	subs	r0, r0, r3
 8000166:	4152      	adcs	r2, r2
 8000168:	0b03      	lsrs	r3, r0, #12
 800016a:	428b      	cmp	r3, r1
 800016c:	d301      	bcc.n	8000172 <__udivsi3+0x6a>
 800016e:	030b      	lsls	r3, r1, #12
 8000170:	1ac0      	subs	r0, r0, r3
 8000172:	4152      	adcs	r2, r2
 8000174:	0ac3      	lsrs	r3, r0, #11
 8000176:	428b      	cmp	r3, r1
 8000178:	d301      	bcc.n	800017e <__udivsi3+0x76>
 800017a:	02cb      	lsls	r3, r1, #11
 800017c:	1ac0      	subs	r0, r0, r3
 800017e:	4152      	adcs	r2, r2
 8000180:	0a83      	lsrs	r3, r0, #10
 8000182:	428b      	cmp	r3, r1
 8000184:	d301      	bcc.n	800018a <__udivsi3+0x82>
 8000186:	028b      	lsls	r3, r1, #10
 8000188:	1ac0      	subs	r0, r0, r3
 800018a:	4152      	adcs	r2, r2
 800018c:	0a43      	lsrs	r3, r0, #9
 800018e:	428b      	cmp	r3, r1
 8000190:	d301      	bcc.n	8000196 <__udivsi3+0x8e>
 8000192:	024b      	lsls	r3, r1, #9
 8000194:	1ac0      	subs	r0, r0, r3
 8000196:	4152      	adcs	r2, r2
 8000198:	0a03      	lsrs	r3, r0, #8
 800019a:	428b      	cmp	r3, r1
 800019c:	d301      	bcc.n	80001a2 <__udivsi3+0x9a>
 800019e:	020b      	lsls	r3, r1, #8
 80001a0:	1ac0      	subs	r0, r0, r3
 80001a2:	4152      	adcs	r2, r2
 80001a4:	d2cd      	bcs.n	8000142 <__udivsi3+0x3a>
 80001a6:	09c3      	lsrs	r3, r0, #7
 80001a8:	428b      	cmp	r3, r1
 80001aa:	d301      	bcc.n	80001b0 <__udivsi3+0xa8>
 80001ac:	01cb      	lsls	r3, r1, #7
 80001ae:	1ac0      	subs	r0, r0, r3
 80001b0:	4152      	adcs	r2, r2
 80001b2:	0983      	lsrs	r3, r0, #6
 80001b4:	428b      	cmp	r3, r1
 80001b6:	d301      	bcc.n	80001bc <__udivsi3+0xb4>
 80001b8:	018b      	lsls	r3, r1, #6
 80001ba:	1ac0      	subs	r0, r0, r3
 80001bc:	4152      	adcs	r2, r2
 80001be:	0943      	lsrs	r3, r0, #5
 80001c0:	428b      	cmp	r3, r1
 80001c2:	d301      	bcc.n	80001c8 <__udivsi3+0xc0>
 80001c4:	014b      	lsls	r3, r1, #5
 80001c6:	1ac0      	subs	r0, r0, r3
 80001c8:	4152      	adcs	r2, r2
 80001ca:	0903      	lsrs	r3, r0, #4
 80001cc:	428b      	cmp	r3, r1
 80001ce:	d301      	bcc.n	80001d4 <__udivsi3+0xcc>
 80001d0:	010b      	lsls	r3, r1, #4
 80001d2:	1ac0      	subs	r0, r0, r3
 80001d4:	4152      	adcs	r2, r2
 80001d6:	08c3      	lsrs	r3, r0, #3
 80001d8:	428b      	cmp	r3, r1
 80001da:	d301      	bcc.n	80001e0 <__udivsi3+0xd8>
 80001dc:	00cb      	lsls	r3, r1, #3
 80001de:	1ac0      	subs	r0, r0, r3
 80001e0:	4152      	adcs	r2, r2
 80001e2:	0883      	lsrs	r3, r0, #2
 80001e4:	428b      	cmp	r3, r1
 80001e6:	d301      	bcc.n	80001ec <__udivsi3+0xe4>
 80001e8:	008b      	lsls	r3, r1, #2
 80001ea:	1ac0      	subs	r0, r0, r3
 80001ec:	4152      	adcs	r2, r2
 80001ee:	0843      	lsrs	r3, r0, #1
 80001f0:	428b      	cmp	r3, r1
 80001f2:	d301      	bcc.n	80001f8 <__udivsi3+0xf0>
 80001f4:	004b      	lsls	r3, r1, #1
 80001f6:	1ac0      	subs	r0, r0, r3
 80001f8:	4152      	adcs	r2, r2
 80001fa:	1a41      	subs	r1, r0, r1
 80001fc:	d200      	bcs.n	8000200 <__udivsi3+0xf8>
 80001fe:	4601      	mov	r1, r0
 8000200:	4152      	adcs	r2, r2
 8000202:	4610      	mov	r0, r2
 8000204:	4770      	bx	lr
 8000206:	e7ff      	b.n	8000208 <__udivsi3+0x100>
 8000208:	b501      	push	{r0, lr}
 800020a:	2000      	movs	r0, #0
 800020c:	f000 f806 	bl	800021c <__aeabi_idiv0>
 8000210:	bd02      	pop	{r1, pc}
 8000212:	46c0      	nop			@ (mov r8, r8)

08000214 <__aeabi_uidivmod>:
 8000214:	2900      	cmp	r1, #0
 8000216:	d0f7      	beq.n	8000208 <__udivsi3+0x100>
 8000218:	e776      	b.n	8000108 <__udivsi3>
 800021a:	4770      	bx	lr

0800021c <__aeabi_idiv0>:
 800021c:	4770      	bx	lr
 800021e:	46c0      	nop			@ (mov r8, r8)

08000220 <MX_CRC_Init>:
 8000220:	b510      	push	{r4, lr}
 8000222:	480b      	ldr	r0, [pc, #44]	@ (8000250 <MX_CRC_Init+0x30>)
 8000224:	4b0b      	ldr	r3, [pc, #44]	@ (8000254 <MX_CRC_Init+0x34>)
 8000226:	6003      	str	r3, [r0, #0]
 8000228:	2300      	movs	r3, #0
 800022a:	7103      	strb	r3, [r0, #4]
 800022c:	3301      	adds	r3, #1
 800022e:	7143      	strb	r3, [r0, #5]
 8000230:	2201      	movs	r2, #1
 8000232:	4252      	negs	r2, r2
 8000234:	6102      	str	r2, [r0, #16]
 8000236:	3221      	adds	r2, #33	@ 0x21
 8000238:	6142      	str	r2, [r0, #20]
 800023a:	3260      	adds	r2, #96	@ 0x60
 800023c:	6182      	str	r2, [r0, #24]
 800023e:	6203      	str	r3, [r0, #32]
 8000240:	f000 fc8e 	bl	8000b60 <HAL_CRC_Init>
 8000244:	2800      	cmp	r0, #0
 8000246:	d100      	bne.n	800024a <MX_CRC_Init+0x2a>
 8000248:	bd10      	pop	{r4, pc}
 800024a:	f000 f9fb 	bl	8000644 <Error_Handler>
 800024e:	e7fb      	b.n	8000248 <MX_CRC_Init+0x28>
 8000250:	20000060 	.word	0x20000060
 8000254:	40023000 	.word	0x40023000

08000258 <HAL_CRC_MspInit>:
 8000258:	b082      	sub	sp, #8
 800025a:	6802      	ldr	r2, [r0, #0]
 800025c:	4b07      	ldr	r3, [pc, #28]	@ (800027c <HAL_CRC_MspInit+0x24>)
 800025e:	429a      	cmp	r2, r3
 8000260:	d001      	beq.n	8000266 <HAL_CRC_MspInit+0xe>
 8000262:	b002      	add	sp, #8
 8000264:	4770      	bx	lr
 8000266:	4b06      	ldr	r3, [pc, #24]	@ (8000280 <HAL_CRC_MspInit+0x28>)
 8000268:	6b9a      	ldr	r2, [r3, #56]	@ 0x38
 800026a:	2180      	movs	r1, #128	@ 0x80
 800026c:	0149      	lsls	r1, r1, #5
 800026e:	430a      	orrs	r2, r1
 8000270:	639a      	str	r2, [r3, #56]	@ 0x38
 8000272:	6b9b      	ldr	r3, [r3, #56]	@ 0x38
 8000274:	400b      	ands	r3, r1
 8000276:	9301      	str	r3, [sp, #4]
 8000278:	9b01      	ldr	r3, [sp, #4]
 800027a:	e7f2      	b.n	8000262 <HAL_CRC_MspInit+0xa>
 800027c:	40023000 	.word	0x40023000
 8000280:	40021000 	.word	0x40021000

08000284 <MX_GPIO_Init>:
 8000284:	b082      	sub	sp, #8
 8000286:	4a05      	ldr	r2, [pc, #20]	@ (800029c <MX_GPIO_Init+0x18>)
 8000288:	6b51      	ldr	r1, [r2, #52]	@ 0x34
 800028a:	2301      	movs	r3, #1
 800028c:	4319      	orrs	r1, r3
 800028e:	6351      	str	r1, [r2, #52]	@ 0x34
 8000290:	6b52      	ldr	r2, [r2, #52]	@ 0x34
 8000292:	4013      	ands	r3, r2
 8000294:	9301      	str	r3, [sp, #4]
 8000296:	9b01      	ldr	r3, [sp, #4]
 8000298:	b002      	add	sp, #8
 800029a:	4770      	bx	lr
 800029c:	40021000 	.word	0x40021000

080002a0 <get_page>:
 80002a0:	23f8      	movs	r3, #248	@ 0xf8
 80002a2:	061b      	lsls	r3, r3, #24
 80002a4:	469c      	mov	ip, r3
 80002a6:	4460      	add	r0, ip
 80002a8:	0ac0      	lsrs	r0, r0, #11
 80002aa:	4770      	bx	lr

080002ac <compute_fw_crc32>:
 80002ac:	b510      	push	{r4, lr}
 80002ae:	4b07      	ldr	r3, [pc, #28]	@ (80002cc <compute_fw_crc32+0x20>)
 80002b0:	681c      	ldr	r4, [r3, #0]
 80002b2:	4807      	ldr	r0, [pc, #28]	@ (80002d0 <compute_fw_crc32+0x24>)
 80002b4:	4a07      	ldr	r2, [pc, #28]	@ (80002d4 <compute_fw_crc32+0x28>)
 80002b6:	4908      	ldr	r1, [pc, #32]	@ (80002d8 <compute_fw_crc32+0x2c>)
 80002b8:	f000 fc94 	bl	8000be4 <HAL_CRC_Calculate>
 80002bc:	43c0      	mvns	r0, r0
 80002be:	4284      	cmp	r4, r0
 80002c0:	d001      	beq.n	80002c6 <compute_fw_crc32+0x1a>
 80002c2:	2000      	movs	r0, #0
 80002c4:	bd10      	pop	{r4, pc}
 80002c6:	2001      	movs	r0, #1
 80002c8:	e7fc      	b.n	80002c4 <compute_fw_crc32+0x18>
 80002ca:	46c0      	nop			@ (mov r8, r8)
 80002cc:	0800bffc 	.word	0x0800bffc
 80002d0:	20000060 	.word	0x20000060
 80002d4:	00009ffc 	.word	0x00009ffc
 80002d8:	08002000 	.word	0x08002000

080002dc <uart2_ll_send_char>:
 80002dc:	e001      	b.n	80002e2 <uart2_ll_send_char+0x6>
 80002de:	2b00      	cmp	r3, #0
 80002e0:	d108      	bne.n	80002f4 <uart2_ll_send_char+0x18>
 80002e2:	4b0c      	ldr	r3, [pc, #48]	@ (8000314 <uart2_ll_send_char+0x38>)
 80002e4:	69da      	ldr	r2, [r3, #28]
 80002e6:	2180      	movs	r1, #128	@ 0x80
 80002e8:	000b      	movs	r3, r1
 80002ea:	4013      	ands	r3, r2
 80002ec:	4211      	tst	r1, r2
 80002ee:	d0f6      	beq.n	80002de <uart2_ll_send_char+0x2>
 80002f0:	2301      	movs	r3, #1
 80002f2:	e7f4      	b.n	80002de <uart2_ll_send_char+0x2>
 80002f4:	4a07      	ldr	r2, [pc, #28]	@ (8000314 <uart2_ll_send_char+0x38>)
 80002f6:	6290      	str	r0, [r2, #40]	@ 0x28
 80002f8:	e001      	b.n	80002fe <uart2_ll_send_char+0x22>
 80002fa:	2800      	cmp	r0, #0
 80002fc:	d108      	bne.n	8000310 <uart2_ll_send_char+0x34>
 80002fe:	4a05      	ldr	r2, [pc, #20]	@ (8000314 <uart2_ll_send_char+0x38>)
 8000300:	69d2      	ldr	r2, [r2, #28]
 8000302:	2140      	movs	r1, #64	@ 0x40
 8000304:	0008      	movs	r0, r1
 8000306:	4010      	ands	r0, r2
 8000308:	4211      	tst	r1, r2
 800030a:	d0f6      	beq.n	80002fa <uart2_ll_send_char+0x1e>
 800030c:	0018      	movs	r0, r3
 800030e:	e7f4      	b.n	80002fa <uart2_ll_send_char+0x1e>
 8000310:	4770      	bx	lr
 8000312:	46c0      	nop			@ (mov r8, r8)
 8000314:	40004400 	.word	0x40004400

08000318 <reset_all_periph>:
 8000318:	b510      	push	{r4, lr}
 800031a:	4c18      	ldr	r4, [pc, #96]	@ (800037c <reset_all_periph+0x64>)
 800031c:	0020      	movs	r0, r4
 800031e:	f001 f861 	bl	80013e4 <LL_USART_DeInit>
 8000322:	6823      	ldr	r3, [r4, #0]
 8000324:	2201      	movs	r2, #1
 8000326:	4393      	bics	r3, r2
 8000328:	6023      	str	r3, [r4, #0]
 800032a:	f3ef 8110 	mrs	r1, PRIMASK
 800032e:	f382 8810 	msr	PRIMASK, r2
 8000332:	6823      	ldr	r3, [r4, #0]
 8000334:	321f      	adds	r2, #31
 8000336:	4393      	bics	r3, r2
 8000338:	6023      	str	r3, [r4, #0]
 800033a:	f381 8810 	msr	PRIMASK, r1
 800033e:	2300      	movs	r3, #0
 8000340:	4a0f      	ldr	r2, [pc, #60]	@ (8000380 <reset_all_periph+0x68>)
 8000342:	6013      	str	r3, [r2, #0]
 8000344:	4a0f      	ldr	r2, [pc, #60]	@ (8000384 <reset_all_periph+0x6c>)
 8000346:	6810      	ldr	r0, [r2, #0]
 8000348:	2103      	movs	r1, #3
 800034a:	4001      	ands	r1, r0
 800034c:	6011      	str	r1, [r2, #0]
 800034e:	490e      	ldr	r1, [pc, #56]	@ (8000388 <reset_all_periph+0x70>)
 8000350:	2001      	movs	r0, #1
 8000352:	4240      	negs	r0, r0
 8000354:	2480      	movs	r4, #128	@ 0x80
 8000356:	5108      	str	r0, [r1, r4]
 8000358:	3401      	adds	r4, #1
 800035a:	34ff      	adds	r4, #255	@ 0xff
 800035c:	5108      	str	r0, [r1, r4]
 800035e:	490b      	ldr	r1, [pc, #44]	@ (800038c <reset_all_periph+0x74>)
 8000360:	660b      	str	r3, [r1, #96]	@ 0x60
 8000362:	664b      	str	r3, [r1, #100]	@ 0x64
 8000364:	668b      	str	r3, [r1, #104]	@ 0x68
 8000366:	66cb      	str	r3, [r1, #108]	@ 0x6c
 8000368:	6991      	ldr	r1, [r2, #24]
 800036a:	3301      	adds	r3, #1
 800036c:	33ff      	adds	r3, #255	@ 0xff
 800036e:	430b      	orrs	r3, r1
 8000370:	6193      	str	r3, [r2, #24]
 8000372:	f000 ff6b 	bl	800124c <LL_RCC_DeInit>
 8000376:	f000 fad7 	bl	8000928 <HAL_DeInit>
 800037a:	bd10      	pop	{r4, pc}
 800037c:	40004400 	.word	0x40004400
 8000380:	e000e010 	.word	0xe000e010
 8000384:	40010000 	.word	0x40010000
 8000388:	e000e100 	.word	0xe000e100
 800038c:	40021800 	.word	0x40021800

08000390 <jump_app>:
 8000390:	b510      	push	{r4, lr}
 8000392:	f7ff ff8b 	bl	80002ac <compute_fw_crc32>
 8000396:	2800      	cmp	r0, #0
 8000398:	d007      	beq.n	80003aa <jump_app+0x1a>
 800039a:	4b0b      	ldr	r3, [pc, #44]	@ (80003c8 <jump_app+0x38>)
 800039c:	681b      	ldr	r3, [r3, #0]
 800039e:	4a0b      	ldr	r2, [pc, #44]	@ (80003cc <jump_app+0x3c>)
 80003a0:	4013      	ands	r3, r2
 80003a2:	2280      	movs	r2, #128	@ 0x80
 80003a4:	0592      	lsls	r2, r2, #22
 80003a6:	4293      	cmp	r3, r2
 80003a8:	d000      	beq.n	80003ac <jump_app+0x1c>
 80003aa:	bd10      	pop	{r4, pc}
 80003ac:	f7ff ffb4 	bl	8000318 <reset_all_periph>
 80003b0:	4b07      	ldr	r3, [pc, #28]	@ (80003d0 <jump_app+0x40>)
 80003b2:	681b      	ldr	r3, [r3, #0]
 80003b4:	4a07      	ldr	r2, [pc, #28]	@ (80003d4 <jump_app+0x44>)
 80003b6:	6013      	str	r3, [r2, #0]
 80003b8:	4a07      	ldr	r2, [pc, #28]	@ (80003d8 <jump_app+0x48>)
 80003ba:	6013      	str	r3, [r2, #0]
 80003bc:	4a02      	ldr	r2, [pc, #8]	@ (80003c8 <jump_app+0x38>)
 80003be:	6812      	ldr	r2, [r2, #0]
 80003c0:	f382 8808 	msr	MSP, r2
 80003c4:	4798      	blx	r3
 80003c6:	e7f0      	b.n	80003aa <jump_app+0x1a>
 80003c8:	08002000 	.word	0x08002000
 80003cc:	2ffe0000 	.word	0x2ffe0000
 80003d0:	08002004 	.word	0x08002004
 80003d4:	2000008c 	.word	0x2000008c
 80003d8:	20000088 	.word	0x20000088

080003dc <USART2_IRQHandler>:
 80003dc:	b510      	push	{r4, lr}
 80003de:	4b24      	ldr	r3, [pc, #144]	@ (8000470 <USART2_IRQHandler+0x94>)
 80003e0:	69db      	ldr	r3, [r3, #28]
 80003e2:	069b      	lsls	r3, r3, #26
 80003e4:	d50a      	bpl.n	80003fc <USART2_IRQHandler+0x20>
 80003e6:	4b22      	ldr	r3, [pc, #136]	@ (8000470 <USART2_IRQHandler+0x94>)
 80003e8:	6a5b      	ldr	r3, [r3, #36]	@ 0x24
 80003ea:	b2db      	uxtb	r3, r3
 80003ec:	4a21      	ldr	r2, [pc, #132]	@ (8000474 <USART2_IRQHandler+0x98>)
 80003ee:	7013      	strb	r3, [r2, #0]
 80003f0:	4a21      	ldr	r2, [pc, #132]	@ (8000478 <USART2_IRQHandler+0x9c>)
 80003f2:	7812      	ldrb	r2, [r2, #0]
 80003f4:	2a00      	cmp	r2, #0
 80003f6:	d002      	beq.n	80003fe <USART2_IRQHandler+0x22>
 80003f8:	2a02      	cmp	r2, #2
 80003fa:	d00d      	beq.n	8000418 <USART2_IRQHandler+0x3c>
 80003fc:	bd10      	pop	{r4, pc}
 80003fe:	2b99      	cmp	r3, #153	@ 0x99
 8000400:	d003      	beq.n	800040a <USART2_IRQHandler+0x2e>
 8000402:	2066      	movs	r0, #102	@ 0x66
 8000404:	f7ff ff6a 	bl	80002dc <uart2_ll_send_char>
 8000408:	e7f8      	b.n	80003fc <USART2_IRQHandler+0x20>
 800040a:	4b1b      	ldr	r3, [pc, #108]	@ (8000478 <USART2_IRQHandler+0x9c>)
 800040c:	2202      	movs	r2, #2
 800040e:	701a      	strb	r2, [r3, #0]
 8000410:	2088      	movs	r0, #136	@ 0x88
 8000412:	f7ff ff63 	bl	80002dc <uart2_ll_send_char>
 8000416:	e7f1      	b.n	80003fc <USART2_IRQHandler+0x20>
 8000418:	4818      	ldr	r0, [pc, #96]	@ (800047c <USART2_IRQHandler+0xa0>)
 800041a:	8801      	ldrh	r1, [r0, #0]
 800041c:	1c4a      	adds	r2, r1, #1
 800041e:	b292      	uxth	r2, r2
 8000420:	8002      	strh	r2, [r0, #0]
 8000422:	4817      	ldr	r0, [pc, #92]	@ (8000480 <USART2_IRQHandler+0xa4>)
 8000424:	5443      	strb	r3, [r0, r1]
 8000426:	2a01      	cmp	r2, #1
 8000428:	d00e      	beq.n	8000448 <USART2_IRQHandler+0x6c>
 800042a:	4b14      	ldr	r3, [pc, #80]	@ (800047c <USART2_IRQHandler+0xa0>)
 800042c:	881a      	ldrh	r2, [r3, #0]
 800042e:	4b15      	ldr	r3, [pc, #84]	@ (8000484 <USART2_IRQHandler+0xa8>)
 8000430:	429a      	cmp	r2, r3
 8000432:	d1e3      	bne.n	80003fc <USART2_IRQHandler+0x20>
 8000434:	4b12      	ldr	r3, [pc, #72]	@ (8000480 <USART2_IRQHandler+0xa4>)
 8000436:	781b      	ldrb	r3, [r3, #0]
 8000438:	2b01      	cmp	r3, #1
 800043a:	d011      	beq.n	8000460 <USART2_IRQHandler+0x84>
 800043c:	2b02      	cmp	r3, #2
 800043e:	d013      	beq.n	8000468 <USART2_IRQHandler+0x8c>
 8000440:	4b0e      	ldr	r3, [pc, #56]	@ (800047c <USART2_IRQHandler+0xa0>)
 8000442:	2200      	movs	r2, #0
 8000444:	801a      	strh	r2, [r3, #0]
 8000446:	e7d9      	b.n	80003fc <USART2_IRQHandler+0x20>
 8000448:	7803      	ldrb	r3, [r0, #0]
 800044a:	3b01      	subs	r3, #1
 800044c:	b2db      	uxtb	r3, r3
 800044e:	2b01      	cmp	r3, #1
 8000450:	d9eb      	bls.n	800042a <USART2_IRQHandler+0x4e>
 8000452:	4b0a      	ldr	r3, [pc, #40]	@ (800047c <USART2_IRQHandler+0xa0>)
 8000454:	2200      	movs	r2, #0
 8000456:	801a      	strh	r2, [r3, #0]
 8000458:	2066      	movs	r0, #102	@ 0x66
 800045a:	f7ff ff3f 	bl	80002dc <uart2_ll_send_char>
 800045e:	e7e4      	b.n	800042a <USART2_IRQHandler+0x4e>
 8000460:	4b05      	ldr	r3, [pc, #20]	@ (8000478 <USART2_IRQHandler+0x9c>)
 8000462:	2203      	movs	r2, #3
 8000464:	701a      	strb	r2, [r3, #0]
 8000466:	e7eb      	b.n	8000440 <USART2_IRQHandler+0x64>
 8000468:	4b03      	ldr	r3, [pc, #12]	@ (8000478 <USART2_IRQHandler+0x9c>)
 800046a:	2204      	movs	r2, #4
 800046c:	701a      	strb	r2, [r3, #0]
 800046e:	e7e7      	b.n	8000440 <USART2_IRQHandler+0x64>
 8000470:	40004400 	.word	0x40004400
 8000474:	20000085 	.word	0x20000085
 8000478:	20000084 	.word	0x20000084
 800047c:	20000090 	.word	0x20000090
 8000480:	20000094 	.word	0x20000094
 8000484:	00000808 	.word	0x00000808

08000488 <write_code>:
 8000488:	b5f0      	push	{r4, r5, r6, r7, lr}
 800048a:	46c6      	mov	lr, r8
 800048c:	b500      	push	{lr}
 800048e:	b086      	sub	sp, #24
 8000490:	2300      	movs	r3, #0
 8000492:	9305      	str	r3, [sp, #20]
 8000494:	4a35      	ldr	r2, [pc, #212]	@ (800056c <write_code+0xe4>)
 8000496:	7856      	ldrb	r6, [r2, #1]
 8000498:	0636      	lsls	r6, r6, #24
 800049a:	7893      	ldrb	r3, [r2, #2]
 800049c:	041b      	lsls	r3, r3, #16
 800049e:	431e      	orrs	r6, r3
 80004a0:	78d3      	ldrb	r3, [r2, #3]
 80004a2:	021b      	lsls	r3, r3, #8
 80004a4:	431e      	orrs	r6, r3
 80004a6:	7913      	ldrb	r3, [r2, #4]
 80004a8:	431e      	orrs	r6, r3
 80004aa:	2380      	movs	r3, #128	@ 0x80
 80004ac:	011b      	lsls	r3, r3, #4
 80004ae:	4698      	mov	r8, r3
 80004b0:	44b0      	add	r8, r6
 80004b2:	7953      	ldrb	r3, [r2, #5]
 80004b4:	021b      	lsls	r3, r3, #8
 80004b6:	7992      	ldrb	r2, [r2, #6]
 80004b8:	189b      	adds	r3, r3, r2
 80004ba:	b29b      	uxth	r3, r3
 80004bc:	2b00      	cmp	r3, #0
 80004be:	d108      	bne.n	80004d2 <write_code+0x4a>
 80004c0:	482a      	ldr	r0, [pc, #168]	@ (800056c <write_code+0xe4>)
 80004c2:	4a2b      	ldr	r2, [pc, #172]	@ (8000570 <write_code+0xe8>)
 80004c4:	2100      	movs	r1, #0
 80004c6:	f001 f827 	bl	8001518 <memset>
 80004ca:	b006      	add	sp, #24
 80004cc:	bc80      	pop	{r7}
 80004ce:	46b8      	mov	r8, r7
 80004d0:	bdf0      	pop	{r4, r5, r6, r7, pc}
 80004d2:	2032      	movs	r0, #50	@ 0x32
 80004d4:	f000 fc6a 	bl	8000dac <FLASH_WaitForLastOperation>
 80004d8:	f000 fc50 	bl	8000d7c <HAL_FLASH_Unlock>
 80004dc:	2800      	cmp	r0, #0
 80004de:	d1fb      	bne.n	80004d8 <write_code+0x50>
 80004e0:	0030      	movs	r0, r6
 80004e2:	f7ff fedd 	bl	80002a0 <get_page>
 80004e6:	2302      	movs	r3, #2
 80004e8:	9301      	str	r3, [sp, #4]
 80004ea:	9003      	str	r0, [sp, #12]
 80004ec:	3b01      	subs	r3, #1
 80004ee:	9304      	str	r3, [sp, #16]
 80004f0:	2032      	movs	r0, #50	@ 0x32
 80004f2:	f000 fc5b 	bl	8000dac <FLASH_WaitForLastOperation>
 80004f6:	a905      	add	r1, sp, #20
 80004f8:	a801      	add	r0, sp, #4
 80004fa:	f000 fced 	bl	8000ed8 <HAL_FLASHEx_Erase>
 80004fe:	2800      	cmp	r0, #0
 8000500:	d1f6      	bne.n	80004f0 <write_code+0x68>
 8000502:	2708      	movs	r7, #8
 8000504:	e029      	b.n	800055a <write_code+0xd2>
 8000506:	4b19      	ldr	r3, [pc, #100]	@ (800056c <write_code+0xe4>)
 8000508:	5ddd      	ldrb	r5, [r3, r7]
 800050a:	1c7a      	adds	r2, r7, #1
 800050c:	5c9a      	ldrb	r2, [r3, r2]
 800050e:	0212      	lsls	r2, r2, #8
 8000510:	4315      	orrs	r5, r2
 8000512:	1cba      	adds	r2, r7, #2
 8000514:	5c9a      	ldrb	r2, [r3, r2]
 8000516:	0412      	lsls	r2, r2, #16
 8000518:	4315      	orrs	r5, r2
 800051a:	1cfa      	adds	r2, r7, #3
 800051c:	5c9a      	ldrb	r2, [r3, r2]
 800051e:	0612      	lsls	r2, r2, #24
 8000520:	4315      	orrs	r5, r2
 8000522:	1d3a      	adds	r2, r7, #4
 8000524:	5c9c      	ldrb	r4, [r3, r2]
 8000526:	1d7a      	adds	r2, r7, #5
 8000528:	5c9a      	ldrb	r2, [r3, r2]
 800052a:	0212      	lsls	r2, r2, #8
 800052c:	4314      	orrs	r4, r2
 800052e:	1dba      	adds	r2, r7, #6
 8000530:	5c9a      	ldrb	r2, [r3, r2]
 8000532:	0412      	lsls	r2, r2, #16
 8000534:	4314      	orrs	r4, r2
 8000536:	1dfa      	adds	r2, r7, #7
 8000538:	5c9b      	ldrb	r3, [r3, r2]
 800053a:	061b      	lsls	r3, r3, #24
 800053c:	431c      	orrs	r4, r3
 800053e:	2032      	movs	r0, #50	@ 0x32
 8000540:	f000 fc34 	bl	8000dac <FLASH_WaitForLastOperation>
 8000544:	002a      	movs	r2, r5
 8000546:	0023      	movs	r3, r4
 8000548:	0031      	movs	r1, r6
 800054a:	2001      	movs	r0, #1
 800054c:	f000 fc64 	bl	8000e18 <HAL_FLASH_Program>
 8000550:	2800      	cmp	r0, #0
 8000552:	d1f4      	bne.n	800053e <write_code+0xb6>
 8000554:	3608      	adds	r6, #8
 8000556:	3708      	adds	r7, #8
 8000558:	b2bf      	uxth	r7, r7
 800055a:	4546      	cmp	r6, r8
 800055c:	d3d3      	bcc.n	8000506 <write_code+0x7e>
 800055e:	f000 fc8d 	bl	8000e7c <HAL_FLASH_Lock>
 8000562:	2032      	movs	r0, #50	@ 0x32
 8000564:	f000 fc22 	bl	8000dac <FLASH_WaitForLastOperation>
 8000568:	e7aa      	b.n	80004c0 <write_code+0x38>
 800056a:	46c0      	nop			@ (mov r8, r8)
 800056c:	20000094 	.word	0x20000094
 8000570:	00000808 	.word	0x00000808

08000574 <iap_usart>:
 8000574:	b570      	push	{r4, r5, r6, lr}
 8000576:	e01c      	b.n	80005b2 <iap_usart+0x3e>
 8000578:	f3ef 8210 	mrs	r2, PRIMASK
 800057c:	2601      	movs	r6, #1
 800057e:	f386 8810 	msr	PRIMASK, r6
 8000582:	4c20      	ldr	r4, [pc, #128]	@ (8000604 <iap_usart+0x90>)
 8000584:	6823      	ldr	r3, [r4, #0]
 8000586:	2520      	movs	r5, #32
 8000588:	43ab      	bics	r3, r5
 800058a:	6023      	str	r3, [r4, #0]
 800058c:	f382 8810 	msr	PRIMASK, r2
 8000590:	f7ff ff7a 	bl	8000488 <write_code>
 8000594:	f3ef 8210 	mrs	r2, PRIMASK
 8000598:	f386 8810 	msr	PRIMASK, r6
 800059c:	6823      	ldr	r3, [r4, #0]
 800059e:	432b      	orrs	r3, r5
 80005a0:	6023      	str	r3, [r4, #0]
 80005a2:	f382 8810 	msr	PRIMASK, r2
 80005a6:	2077      	movs	r0, #119	@ 0x77
 80005a8:	f7ff fe98 	bl	80002dc <uart2_ll_send_char>
 80005ac:	4b16      	ldr	r3, [pc, #88]	@ (8000608 <iap_usart+0x94>)
 80005ae:	2202      	movs	r2, #2
 80005b0:	701a      	strb	r2, [r3, #0]
 80005b2:	4b15      	ldr	r3, [pc, #84]	@ (8000608 <iap_usart+0x94>)
 80005b4:	781b      	ldrb	r3, [r3, #0]
 80005b6:	2b03      	cmp	r3, #3
 80005b8:	d0de      	beq.n	8000578 <iap_usart+0x4>
 80005ba:	2b04      	cmp	r3, #4
 80005bc:	d1f9      	bne.n	80005b2 <iap_usart+0x3e>
 80005be:	2077      	movs	r0, #119	@ 0x77
 80005c0:	f7ff fe8c 	bl	80002dc <uart2_ll_send_char>
 80005c4:	f3ef 8210 	mrs	r2, PRIMASK
 80005c8:	2601      	movs	r6, #1
 80005ca:	f386 8810 	msr	PRIMASK, r6
 80005ce:	4c0d      	ldr	r4, [pc, #52]	@ (8000604 <iap_usart+0x90>)
 80005d0:	6823      	ldr	r3, [r4, #0]
 80005d2:	2520      	movs	r5, #32
 80005d4:	43ab      	bics	r3, r5
 80005d6:	6023      	str	r3, [r4, #0]
 80005d8:	f382 8810 	msr	PRIMASK, r2
 80005dc:	f7ff ff54 	bl	8000488 <write_code>
 80005e0:	f3ef 8210 	mrs	r2, PRIMASK
 80005e4:	f386 8810 	msr	PRIMASK, r6
 80005e8:	6823      	ldr	r3, [r4, #0]
 80005ea:	432b      	orrs	r3, r5
 80005ec:	6023      	str	r3, [r4, #0]
 80005ee:	f382 8810 	msr	PRIMASK, r2
 80005f2:	2055      	movs	r0, #85	@ 0x55
 80005f4:	f7ff fe72 	bl	80002dc <uart2_ll_send_char>
 80005f8:	200a      	movs	r0, #10
 80005fa:	f000 ff73 	bl	80014e4 <LL_mDelay>
 80005fe:	f7ff fec7 	bl	8000390 <jump_app>
 8000602:	e7d6      	b.n	80005b2 <iap_usart+0x3e>
 8000604:	40004400 	.word	0x40004400
 8000608:	20000084 	.word	0x20000084

0800060c <iap_gpio_init>:
 800060c:	b500      	push	{lr}
 800060e:	b087      	sub	sp, #28
 8000610:	2214      	movs	r2, #20
 8000612:	2100      	movs	r1, #0
 8000614:	a801      	add	r0, sp, #4
 8000616:	f000 ff7f 	bl	8001518 <memset>
 800061a:	4a09      	ldr	r2, [pc, #36]	@ (8000640 <iap_gpio_init+0x34>)
 800061c:	6b51      	ldr	r1, [r2, #52]	@ 0x34
 800061e:	2301      	movs	r3, #1
 8000620:	4319      	orrs	r1, r3
 8000622:	6351      	str	r1, [r2, #52]	@ 0x34
 8000624:	6b52      	ldr	r2, [r2, #52]	@ 0x34
 8000626:	401a      	ands	r2, r3
 8000628:	9200      	str	r2, [sp, #0]
 800062a:	9a00      	ldr	r2, [sp, #0]
 800062c:	220c      	movs	r2, #12
 800062e:	9201      	str	r2, [sp, #4]
 8000630:	9303      	str	r3, [sp, #12]
 8000632:	20a0      	movs	r0, #160	@ 0xa0
 8000634:	a901      	add	r1, sp, #4
 8000636:	05c0      	lsls	r0, r0, #23
 8000638:	f000 fc92 	bl	8000f60 <HAL_GPIO_Init>
 800063c:	b007      	add	sp, #28
 800063e:	bd00      	pop	{pc}
 8000640:	40021000 	.word	0x40021000

08000644 <Error_Handler>:
 8000644:	b672      	cpsid	i
 8000646:	e7fe      	b.n	8000646 <Error_Handler+0x2>

08000648 <SystemClock_Config>:
 8000648:	b510      	push	{r4, lr}
 800064a:	4a2f      	ldr	r2, [pc, #188]	@ (8000708 <SystemClock_Config+0xc0>)
 800064c:	6813      	ldr	r3, [r2, #0]
 800064e:	2107      	movs	r1, #7
 8000650:	438b      	bics	r3, r1
 8000652:	3905      	subs	r1, #5
 8000654:	430b      	orrs	r3, r1
 8000656:	6013      	str	r3, [r2, #0]
 8000658:	4b2b      	ldr	r3, [pc, #172]	@ (8000708 <SystemClock_Config+0xc0>)
 800065a:	681a      	ldr	r2, [r3, #0]
 800065c:	2307      	movs	r3, #7
 800065e:	4013      	ands	r3, r2
 8000660:	2b02      	cmp	r3, #2
 8000662:	d1f9      	bne.n	8000658 <SystemClock_Config+0x10>
 8000664:	4a29      	ldr	r2, [pc, #164]	@ (800070c <SystemClock_Config+0xc4>)
 8000666:	6811      	ldr	r1, [r2, #0]
 8000668:	33fe      	adds	r3, #254	@ 0xfe
 800066a:	430b      	orrs	r3, r1
 800066c:	6013      	str	r3, [r2, #0]
 800066e:	e001      	b.n	8000674 <SystemClock_Config+0x2c>
 8000670:	2b01      	cmp	r3, #1
 8000672:	d009      	beq.n	8000688 <SystemClock_Config+0x40>
 8000674:	4b25      	ldr	r3, [pc, #148]	@ (800070c <SystemClock_Config+0xc4>)
 8000676:	6819      	ldr	r1, [r3, #0]
 8000678:	2280      	movs	r2, #128	@ 0x80
 800067a:	00d2      	lsls	r2, r2, #3
 800067c:	000b      	movs	r3, r1
 800067e:	4013      	ands	r3, r2
 8000680:	4211      	tst	r1, r2
 8000682:	d0f5      	beq.n	8000670 <SystemClock_Config+0x28>
 8000684:	2301      	movs	r3, #1
 8000686:	e7f3      	b.n	8000670 <SystemClock_Config+0x28>
 8000688:	4a20      	ldr	r2, [pc, #128]	@ (800070c <SystemClock_Config+0xc4>)
 800068a:	68d0      	ldr	r0, [r2, #12]
 800068c:	4920      	ldr	r1, [pc, #128]	@ (8000710 <SystemClock_Config+0xc8>)
 800068e:	4008      	ands	r0, r1
 8000690:	4920      	ldr	r1, [pc, #128]	@ (8000714 <SystemClock_Config+0xcc>)
 8000692:	4301      	orrs	r1, r0
 8000694:	60d1      	str	r1, [r2, #12]
 8000696:	6810      	ldr	r0, [r2, #0]
 8000698:	2180      	movs	r1, #128	@ 0x80
 800069a:	0449      	lsls	r1, r1, #17
 800069c:	4301      	orrs	r1, r0
 800069e:	6011      	str	r1, [r2, #0]
 80006a0:	68d0      	ldr	r0, [r2, #12]
 80006a2:	2180      	movs	r1, #128	@ 0x80
 80006a4:	0549      	lsls	r1, r1, #21
 80006a6:	4301      	orrs	r1, r0
 80006a8:	60d1      	str	r1, [r2, #12]
 80006aa:	e001      	b.n	80006b0 <SystemClock_Config+0x68>
 80006ac:	2801      	cmp	r0, #1
 80006ae:	d009      	beq.n	80006c4 <SystemClock_Config+0x7c>
 80006b0:	4a16      	ldr	r2, [pc, #88]	@ (800070c <SystemClock_Config+0xc4>)
 80006b2:	6811      	ldr	r1, [r2, #0]
 80006b4:	2280      	movs	r2, #128	@ 0x80
 80006b6:	0492      	lsls	r2, r2, #18
 80006b8:	0008      	movs	r0, r1
 80006ba:	4010      	ands	r0, r2
 80006bc:	4211      	tst	r1, r2
 80006be:	d0f5      	beq.n	80006ac <SystemClock_Config+0x64>
 80006c0:	0018      	movs	r0, r3
 80006c2:	e7f3      	b.n	80006ac <SystemClock_Config+0x64>
 80006c4:	4a11      	ldr	r2, [pc, #68]	@ (800070c <SystemClock_Config+0xc4>)
 80006c6:	6893      	ldr	r3, [r2, #8]
 80006c8:	4913      	ldr	r1, [pc, #76]	@ (8000718 <SystemClock_Config+0xd0>)
 80006ca:	400b      	ands	r3, r1
 80006cc:	6093      	str	r3, [r2, #8]
 80006ce:	6893      	ldr	r3, [r2, #8]
 80006d0:	2107      	movs	r1, #7
 80006d2:	438b      	bics	r3, r1
 80006d4:	3905      	subs	r1, #5
 80006d6:	430b      	orrs	r3, r1
 80006d8:	6093      	str	r3, [r2, #8]
 80006da:	4b0c      	ldr	r3, [pc, #48]	@ (800070c <SystemClock_Config+0xc4>)
 80006dc:	689a      	ldr	r2, [r3, #8]
 80006de:	2338      	movs	r3, #56	@ 0x38
 80006e0:	4013      	ands	r3, r2
 80006e2:	2b10      	cmp	r3, #16
 80006e4:	d1f9      	bne.n	80006da <SystemClock_Config+0x92>
 80006e6:	4a09      	ldr	r2, [pc, #36]	@ (800070c <SystemClock_Config+0xc4>)
 80006e8:	6893      	ldr	r3, [r2, #8]
 80006ea:	490c      	ldr	r1, [pc, #48]	@ (800071c <SystemClock_Config+0xd4>)
 80006ec:	400b      	ands	r3, r1
 80006ee:	6093      	str	r3, [r2, #8]
 80006f0:	480b      	ldr	r0, [pc, #44]	@ (8000720 <SystemClock_Config+0xd8>)
 80006f2:	f000 ff0b 	bl	800150c <LL_SetSystemCoreClock>
 80006f6:	2003      	movs	r0, #3
 80006f8:	f000 f92a 	bl	8000950 <HAL_InitTick>
 80006fc:	2800      	cmp	r0, #0
 80006fe:	d100      	bne.n	8000702 <SystemClock_Config+0xba>
 8000700:	bd10      	pop	{r4, pc}
 8000702:	f7ff ff9f 	bl	8000644 <Error_Handler>
 8000706:	46c0      	nop			@ (mov r8, r8)
 8000708:	40022000 	.word	0x40022000
 800070c:	40021000 	.word	0x40021000
 8000710:	1fff808c 	.word	0x1fff808c
 8000714:	20000802 	.word	0x20000802
 8000718:	fffff0ff 	.word	0xfffff0ff
 800071c:	ffff8fff 	.word	0xffff8fff
 8000720:	03d09000 	.word	0x03d09000

08000724 <main>:
 8000724:	b510      	push	{r4, lr}
 8000726:	f000 f93f 	bl	80009a8 <HAL_Init>
 800072a:	f7ff ff8d 	bl	8000648 <SystemClock_Config>
 800072e:	f7ff fda9 	bl	8000284 <MX_GPIO_Init>
 8000732:	f7ff fd75 	bl	8000220 <MX_CRC_Init>
 8000736:	f7ff ff69 	bl	800060c <iap_gpio_init>
 800073a:	2096      	movs	r0, #150	@ 0x96
 800073c:	0040      	lsls	r0, r0, #1
 800073e:	f000 fed1 	bl	80014e4 <LL_mDelay>
 8000742:	23a0      	movs	r3, #160	@ 0xa0
 8000744:	05db      	lsls	r3, r3, #23
 8000746:	691b      	ldr	r3, [r3, #16]
 8000748:	075b      	lsls	r3, r3, #29
 800074a:	d404      	bmi.n	8000756 <main+0x32>
 800074c:	23a0      	movs	r3, #160	@ 0xa0
 800074e:	05db      	lsls	r3, r3, #23
 8000750:	691b      	ldr	r3, [r3, #16]
 8000752:	071b      	lsls	r3, r3, #28
 8000754:	d511      	bpl.n	800077a <main+0x56>
 8000756:	f7ff fe1b 	bl	8000390 <jump_app>
 800075a:	f000 f84f 	bl	80007fc <MX_USART2_UART_Init>
 800075e:	f3ef 8110 	mrs	r1, PRIMASK
 8000762:	2301      	movs	r3, #1
 8000764:	f383 8810 	msr	PRIMASK, r3
 8000768:	4a0c      	ldr	r2, [pc, #48]	@ (800079c <main+0x78>)
 800076a:	6813      	ldr	r3, [r2, #0]
 800076c:	2020      	movs	r0, #32
 800076e:	4303      	orrs	r3, r0
 8000770:	6013      	str	r3, [r2, #0]
 8000772:	f381 8810 	msr	PRIMASK, r1
 8000776:	f7ff fefd 	bl	8000574 <iap_usart>
 800077a:	f000 f83f 	bl	80007fc <MX_USART2_UART_Init>
 800077e:	f3ef 8110 	mrs	r1, PRIMASK
 8000782:	2301      	movs	r3, #1
 8000784:	f383 8810 	msr	PRIMASK, r3
 8000788:	4a04      	ldr	r2, [pc, #16]	@ (800079c <main+0x78>)
 800078a:	6810      	ldr	r0, [r2, #0]
 800078c:	331f      	adds	r3, #31
 800078e:	4303      	orrs	r3, r0
 8000790:	6013      	str	r3, [r2, #0]
 8000792:	f381 8810 	msr	PRIMASK, r1
 8000796:	f7ff feed 	bl	8000574 <iap_usart>
 800079a:	46c0      	nop			@ (mov r8, r8)
 800079c:	40004400 	.word	0x40004400

080007a0 <HAL_MspInit>:
 80007a0:	b500      	push	{lr}
 80007a2:	b083      	sub	sp, #12
 80007a4:	4b0d      	ldr	r3, [pc, #52]	@ (80007dc <HAL_MspInit+0x3c>)
 80007a6:	6c19      	ldr	r1, [r3, #64]	@ 0x40
 80007a8:	2201      	movs	r2, #1
 80007aa:	4311      	orrs	r1, r2
 80007ac:	6419      	str	r1, [r3, #64]	@ 0x40
 80007ae:	6c19      	ldr	r1, [r3, #64]	@ 0x40
 80007b0:	400a      	ands	r2, r1
 80007b2:	9200      	str	r2, [sp, #0]
 80007b4:	9a00      	ldr	r2, [sp, #0]
 80007b6:	6bda      	ldr	r2, [r3, #60]	@ 0x3c
 80007b8:	2180      	movs	r1, #128	@ 0x80
 80007ba:	0549      	lsls	r1, r1, #21
 80007bc:	430a      	orrs	r2, r1
 80007be:	63da      	str	r2, [r3, #60]	@ 0x3c
 80007c0:	6bdb      	ldr	r3, [r3, #60]	@ 0x3c
 80007c2:	400b      	ands	r3, r1
 80007c4:	9301      	str	r3, [sp, #4]
 80007c6:	9b01      	ldr	r3, [sp, #4]
 80007c8:	2200      	movs	r2, #0
 80007ca:	2100      	movs	r1, #0
 80007cc:	2003      	movs	r0, #3
 80007ce:	f000 f95d 	bl	8000a8c <HAL_NVIC_SetPriority>
 80007d2:	2003      	movs	r0, #3
 80007d4:	f000 f95e 	bl	8000a94 <HAL_NVIC_EnableIRQ>
 80007d8:	b003      	add	sp, #12
 80007da:	bd00      	pop	{pc}
 80007dc:	40021000 	.word	0x40021000

080007e0 <NMI_Handler>:
 80007e0:	e7fe      	b.n	80007e0 <NMI_Handler>

080007e2 <HardFault_Handler>:
 80007e2:	e7fe      	b.n	80007e2 <HardFault_Handler>

080007e4 <SVC_Handler>:
 80007e4:	4770      	bx	lr

080007e6 <PendSV_Handler>:
 80007e6:	4770      	bx	lr

080007e8 <SysTick_Handler>:
 80007e8:	b510      	push	{r4, lr}
 80007ea:	f000 f8f1 	bl	80009d0 <HAL_IncTick>
 80007ee:	bd10      	pop	{r4, pc}

080007f0 <FLASH_IRQHandler>:
 80007f0:	b510      	push	{r4, lr}
 80007f2:	f000 fa63 	bl	8000cbc <HAL_FLASH_IRQHandler>
 80007f6:	bd10      	pop	{r4, pc}

080007f8 <SystemInit>:
 80007f8:	4770      	bx	lr
	...

080007fc <MX_USART2_UART_Init>:
 80007fc:	b570      	push	{r4, r5, r6, lr}
 80007fe:	b090      	sub	sp, #64	@ 0x40
 8000800:	2220      	movs	r2, #32
 8000802:	2100      	movs	r1, #0
 8000804:	a808      	add	r0, sp, #32
 8000806:	f000 fe87 	bl	8001518 <memset>
 800080a:	2218      	movs	r2, #24
 800080c:	2100      	movs	r1, #0
 800080e:	a802      	add	r0, sp, #8
 8000810:	f000 fe82 	bl	8001518 <memset>
 8000814:	4b2b      	ldr	r3, [pc, #172]	@ (80008c4 <MX_USART2_UART_Init+0xc8>)
 8000816:	6bda      	ldr	r2, [r3, #60]	@ 0x3c
 8000818:	2180      	movs	r1, #128	@ 0x80
 800081a:	0289      	lsls	r1, r1, #10
 800081c:	430a      	orrs	r2, r1
 800081e:	63da      	str	r2, [r3, #60]	@ 0x3c
 8000820:	6bda      	ldr	r2, [r3, #60]	@ 0x3c
 8000822:	400a      	ands	r2, r1
 8000824:	9201      	str	r2, [sp, #4]
 8000826:	9a01      	ldr	r2, [sp, #4]
 8000828:	6b5a      	ldr	r2, [r3, #52]	@ 0x34
 800082a:	2501      	movs	r5, #1
 800082c:	432a      	orrs	r2, r5
 800082e:	635a      	str	r2, [r3, #52]	@ 0x34
 8000830:	6b5b      	ldr	r3, [r3, #52]	@ 0x34
 8000832:	402b      	ands	r3, r5
 8000834:	9300      	str	r3, [sp, #0]
 8000836:	9b00      	ldr	r3, [sp, #0]
 8000838:	2304      	movs	r3, #4
 800083a:	9302      	str	r3, [sp, #8]
 800083c:	2402      	movs	r4, #2
 800083e:	9403      	str	r4, [sp, #12]
 8000840:	9507      	str	r5, [sp, #28]
 8000842:	26a0      	movs	r6, #160	@ 0xa0
 8000844:	05f6      	lsls	r6, r6, #23
 8000846:	a902      	add	r1, sp, #8
 8000848:	0030      	movs	r0, r6
 800084a:	f000 fc43 	bl	80010d4 <LL_GPIO_Init>
 800084e:	2308      	movs	r3, #8
 8000850:	9302      	str	r3, [sp, #8]
 8000852:	9403      	str	r4, [sp, #12]
 8000854:	2400      	movs	r4, #0
 8000856:	9404      	str	r4, [sp, #16]
 8000858:	9405      	str	r4, [sp, #20]
 800085a:	9406      	str	r4, [sp, #24]
 800085c:	9507      	str	r5, [sp, #28]
 800085e:	a902      	add	r1, sp, #8
 8000860:	0030      	movs	r0, r6
 8000862:	f000 fc37 	bl	80010d4 <LL_GPIO_Init>
 8000866:	4b18      	ldr	r3, [pc, #96]	@ (80008c8 <MX_USART2_UART_Init+0xcc>)
 8000868:	21c7      	movs	r1, #199	@ 0xc7
 800086a:	0089      	lsls	r1, r1, #2
 800086c:	585a      	ldr	r2, [r3, r1]
 800086e:	20ff      	movs	r0, #255	@ 0xff
 8000870:	4382      	bics	r2, r0
 8000872:	505a      	str	r2, [r3, r1]
 8000874:	2280      	movs	r2, #128	@ 0x80
 8000876:	0552      	lsls	r2, r2, #21
 8000878:	601a      	str	r2, [r3, #0]
 800087a:	9408      	str	r4, [sp, #32]
 800087c:	23e1      	movs	r3, #225	@ 0xe1
 800087e:	025b      	lsls	r3, r3, #9
 8000880:	9309      	str	r3, [sp, #36]	@ 0x24
 8000882:	940a      	str	r4, [sp, #40]	@ 0x28
 8000884:	940b      	str	r4, [sp, #44]	@ 0x2c
 8000886:	940c      	str	r4, [sp, #48]	@ 0x30
 8000888:	230c      	movs	r3, #12
 800088a:	930d      	str	r3, [sp, #52]	@ 0x34
 800088c:	940e      	str	r4, [sp, #56]	@ 0x38
 800088e:	940f      	str	r4, [sp, #60]	@ 0x3c
 8000890:	4c0e      	ldr	r4, [pc, #56]	@ (80008cc <MX_USART2_UART_Init+0xd0>)
 8000892:	a908      	add	r1, sp, #32
 8000894:	0020      	movs	r0, r4
 8000896:	f000 fdcf 	bl	8001438 <LL_USART_Init>
 800089a:	6863      	ldr	r3, [r4, #4]
 800089c:	4a0c      	ldr	r2, [pc, #48]	@ (80008d0 <MX_USART2_UART_Init+0xd4>)
 800089e:	4013      	ands	r3, r2
 80008a0:	6063      	str	r3, [r4, #4]
 80008a2:	68a3      	ldr	r3, [r4, #8]
 80008a4:	222a      	movs	r2, #42	@ 0x2a
 80008a6:	4393      	bics	r3, r2
 80008a8:	60a3      	str	r3, [r4, #8]
 80008aa:	6823      	ldr	r3, [r4, #0]
 80008ac:	432b      	orrs	r3, r5
 80008ae:	6023      	str	r3, [r4, #0]
 80008b0:	4b06      	ldr	r3, [pc, #24]	@ (80008cc <MX_USART2_UART_Init+0xd0>)
 80008b2:	69db      	ldr	r3, [r3, #28]
 80008b4:	029b      	lsls	r3, r3, #10
 80008b6:	d5fb      	bpl.n	80008b0 <MX_USART2_UART_Init+0xb4>
 80008b8:	4b04      	ldr	r3, [pc, #16]	@ (80008cc <MX_USART2_UART_Init+0xd0>)
 80008ba:	69db      	ldr	r3, [r3, #28]
 80008bc:	025b      	lsls	r3, r3, #9
 80008be:	d5f7      	bpl.n	80008b0 <MX_USART2_UART_Init+0xb4>
 80008c0:	b010      	add	sp, #64	@ 0x40
 80008c2:	bd70      	pop	{r4, r5, r6, pc}
 80008c4:	40021000 	.word	0x40021000
 80008c8:	e000e100 	.word	0xe000e100
 80008cc:	40004400 	.word	0x40004400
 80008d0:	ffffb7ff 	.word	0xffffb7ff

080008d4 <Reset_Handler>:
 80008d4:	480d      	ldr	r0, [pc, #52]	@ (800090c <LoopForever+0x2>)
 80008d6:	4685      	mov	sp, r0
 80008d8:	f7ff ff8e 	bl	80007f8 <SystemInit>
 80008dc:	480c      	ldr	r0, [pc, #48]	@ (8000910 <LoopForever+0x6>)
 80008de:	490d      	ldr	r1, [pc, #52]	@ (8000914 <LoopForever+0xa>)
 80008e0:	4a0d      	ldr	r2, [pc, #52]	@ (8000918 <LoopForever+0xe>)
 80008e2:	2300      	movs	r3, #0
 80008e4:	e002      	b.n	80008ec <LoopCopyDataInit>

080008e6 <CopyDataInit>:
 80008e6:	58d4      	ldr	r4, [r2, r3]
 80008e8:	50c4      	str	r4, [r0, r3]
 80008ea:	3304      	adds	r3, #4

080008ec <LoopCopyDataInit>:
 80008ec:	18c4      	adds	r4, r0, r3
 80008ee:	428c      	cmp	r4, r1
 80008f0:	d3f9      	bcc.n	80008e6 <CopyDataInit>
 80008f2:	4a0a      	ldr	r2, [pc, #40]	@ (800091c <LoopForever+0x12>)
 80008f4:	4c0a      	ldr	r4, [pc, #40]	@ (8000920 <LoopForever+0x16>)
 80008f6:	2300      	movs	r3, #0
 80008f8:	e001      	b.n	80008fe <LoopFillZerobss>

080008fa <FillZerobss>:
 80008fa:	6013      	str	r3, [r2, #0]
 80008fc:	3204      	adds	r2, #4

080008fe <LoopFillZerobss>:
 80008fe:	42a2      	cmp	r2, r4
 8000900:	d3fb      	bcc.n	80008fa <FillZerobss>
 8000902:	f000 fe11 	bl	8001528 <__libc_init_array>
 8000906:	f7ff ff0d 	bl	8000724 <main>

0800090a <LoopForever>:
 800090a:	e7fe      	b.n	800090a <LoopForever>
 800090c:	20002000 	.word	0x20002000
 8000910:	20000000 	.word	0x20000000
 8000914:	20000044 	.word	0x20000044
 8000918:	08001630 	.word	0x08001630
 800091c:	20000044 	.word	0x20000044
 8000920:	200008bc 	.word	0x200008bc

08000924 <ADC1_IRQHandler>:
 8000924:	e7fe      	b.n	8000924 <ADC1_IRQHandler>

08000926 <HAL_MspDeInit>:
 8000926:	4770      	bx	lr

08000928 <HAL_DeInit>:
 8000928:	b510      	push	{r4, lr}
 800092a:	4b08      	ldr	r3, [pc, #32]	@ (800094c <HAL_DeInit+0x24>)
 800092c:	2101      	movs	r1, #1
 800092e:	4249      	negs	r1, r1
 8000930:	62d9      	str	r1, [r3, #44]	@ 0x2c
 8000932:	2200      	movs	r2, #0
 8000934:	62da      	str	r2, [r3, #44]	@ 0x2c
 8000936:	6319      	str	r1, [r3, #48]	@ 0x30
 8000938:	631a      	str	r2, [r3, #48]	@ 0x30
 800093a:	6299      	str	r1, [r3, #40]	@ 0x28
 800093c:	629a      	str	r2, [r3, #40]	@ 0x28
 800093e:	6259      	str	r1, [r3, #36]	@ 0x24
 8000940:	625a      	str	r2, [r3, #36]	@ 0x24
 8000942:	f7ff fff0 	bl	8000926 <HAL_MspDeInit>
 8000946:	2000      	movs	r0, #0
 8000948:	bd10      	pop	{r4, pc}
 800094a:	46c0      	nop			@ (mov r8, r8)
 800094c:	40021000 	.word	0x40021000

08000950 <HAL_InitTick>:
 8000950:	b510      	push	{r4, lr}
 8000952:	0004      	movs	r4, r0
 8000954:	4b11      	ldr	r3, [pc, #68]	@ (800099c <HAL_InitTick+0x4c>)
 8000956:	7819      	ldrb	r1, [r3, #0]
 8000958:	2900      	cmp	r1, #0
 800095a:	d101      	bne.n	8000960 <HAL_InitTick+0x10>
 800095c:	2001      	movs	r0, #1
 800095e:	bd10      	pop	{r4, pc}
 8000960:	20fa      	movs	r0, #250	@ 0xfa
 8000962:	0080      	lsls	r0, r0, #2
 8000964:	f7ff fbd0 	bl	8000108 <__udivsi3>
 8000968:	0001      	movs	r1, r0
 800096a:	4b0d      	ldr	r3, [pc, #52]	@ (80009a0 <HAL_InitTick+0x50>)
 800096c:	6818      	ldr	r0, [r3, #0]
 800096e:	f7ff fbcb 	bl	8000108 <__udivsi3>
 8000972:	f000 f89b 	bl	8000aac <HAL_SYSTICK_Config>
 8000976:	2800      	cmp	r0, #0
 8000978:	d10d      	bne.n	8000996 <HAL_InitTick+0x46>
 800097a:	2c03      	cmp	r4, #3
 800097c:	d901      	bls.n	8000982 <HAL_InitTick+0x32>
 800097e:	2001      	movs	r0, #1
 8000980:	e7ed      	b.n	800095e <HAL_InitTick+0xe>
 8000982:	3001      	adds	r0, #1
 8000984:	2200      	movs	r2, #0
 8000986:	0021      	movs	r1, r4
 8000988:	4240      	negs	r0, r0
 800098a:	f000 f87f 	bl	8000a8c <HAL_NVIC_SetPriority>
 800098e:	4b05      	ldr	r3, [pc, #20]	@ (80009a4 <HAL_InitTick+0x54>)
 8000990:	601c      	str	r4, [r3, #0]
 8000992:	2000      	movs	r0, #0
 8000994:	e7e3      	b.n	800095e <HAL_InitTick+0xe>
 8000996:	2001      	movs	r0, #1
 8000998:	e7e1      	b.n	800095e <HAL_InitTick+0xe>
 800099a:	46c0      	nop			@ (mov r8, r8)
 800099c:	20000004 	.word	0x20000004
 80009a0:	20000000 	.word	0x20000000
 80009a4:	20000008 	.word	0x20000008

080009a8 <HAL_Init>:
 80009a8:	b510      	push	{r4, lr}
 80009aa:	4a08      	ldr	r2, [pc, #32]	@ (80009cc <HAL_Init+0x24>)
 80009ac:	6811      	ldr	r1, [r2, #0]
 80009ae:	2380      	movs	r3, #128	@ 0x80
 80009b0:	005b      	lsls	r3, r3, #1
 80009b2:	430b      	orrs	r3, r1
 80009b4:	6013      	str	r3, [r2, #0]
 80009b6:	2003      	movs	r0, #3
 80009b8:	f7ff ffca 	bl	8000950 <HAL_InitTick>
 80009bc:	1e04      	subs	r4, r0, #0
 80009be:	d002      	beq.n	80009c6 <HAL_Init+0x1e>
 80009c0:	2401      	movs	r4, #1
 80009c2:	0020      	movs	r0, r4
 80009c4:	bd10      	pop	{r4, pc}
 80009c6:	f7ff feeb 	bl	80007a0 <HAL_MspInit>
 80009ca:	e7fa      	b.n	80009c2 <HAL_Init+0x1a>
 80009cc:	40022000 	.word	0x40022000

080009d0 <HAL_IncTick>:
 80009d0:	4b03      	ldr	r3, [pc, #12]	@ (80009e0 <HAL_IncTick+0x10>)
 80009d2:	781b      	ldrb	r3, [r3, #0]
 80009d4:	4a03      	ldr	r2, [pc, #12]	@ (80009e4 <HAL_IncTick+0x14>)
 80009d6:	6811      	ldr	r1, [r2, #0]
 80009d8:	185b      	adds	r3, r3, r1
 80009da:	6013      	str	r3, [r2, #0]
 80009dc:	4770      	bx	lr
 80009de:	46c0      	nop			@ (mov r8, r8)
 80009e0:	20000004 	.word	0x20000004
 80009e4:	2000089c 	.word	0x2000089c

080009e8 <HAL_GetTick>:
 80009e8:	4b01      	ldr	r3, [pc, #4]	@ (80009f0 <HAL_GetTick+0x8>)
 80009ea:	6818      	ldr	r0, [r3, #0]
 80009ec:	4770      	bx	lr
 80009ee:	46c0      	nop			@ (mov r8, r8)
 80009f0:	2000089c 	.word	0x2000089c

080009f4 <__NVIC_SetPriority>:
 80009f4:	b570      	push	{r4, r5, r6, lr}
 80009f6:	2800      	cmp	r0, #0
 80009f8:	db11      	blt.n	8000a1e <__NVIC_SetPriority+0x2a>
 80009fa:	0883      	lsrs	r3, r0, #2
 80009fc:	4d13      	ldr	r5, [pc, #76]	@ (8000a4c <__NVIC_SetPriority+0x58>)
 80009fe:	33c0      	adds	r3, #192	@ 0xc0
 8000a00:	009b      	lsls	r3, r3, #2
 8000a02:	595c      	ldr	r4, [r3, r5]
 8000a04:	2203      	movs	r2, #3
 8000a06:	4010      	ands	r0, r2
 8000a08:	00c0      	lsls	r0, r0, #3
 8000a0a:	32fc      	adds	r2, #252	@ 0xfc
 8000a0c:	0016      	movs	r6, r2
 8000a0e:	4086      	lsls	r6, r0
 8000a10:	43b4      	bics	r4, r6
 8000a12:	0189      	lsls	r1, r1, #6
 8000a14:	400a      	ands	r2, r1
 8000a16:	4082      	lsls	r2, r0
 8000a18:	4322      	orrs	r2, r4
 8000a1a:	515a      	str	r2, [r3, r5]
 8000a1c:	bd70      	pop	{r4, r5, r6, pc}
 8000a1e:	230f      	movs	r3, #15
 8000a20:	4003      	ands	r3, r0
 8000a22:	3b08      	subs	r3, #8
 8000a24:	089b      	lsrs	r3, r3, #2
 8000a26:	3306      	adds	r3, #6
 8000a28:	009b      	lsls	r3, r3, #2
 8000a2a:	4a09      	ldr	r2, [pc, #36]	@ (8000a50 <__NVIC_SetPriority+0x5c>)
 8000a2c:	4694      	mov	ip, r2
 8000a2e:	4463      	add	r3, ip
 8000a30:	685c      	ldr	r4, [r3, #4]
 8000a32:	2203      	movs	r2, #3
 8000a34:	4010      	ands	r0, r2
 8000a36:	00c0      	lsls	r0, r0, #3
 8000a38:	32fc      	adds	r2, #252	@ 0xfc
 8000a3a:	0015      	movs	r5, r2
 8000a3c:	4085      	lsls	r5, r0
 8000a3e:	43ac      	bics	r4, r5
 8000a40:	0189      	lsls	r1, r1, #6
 8000a42:	400a      	ands	r2, r1
 8000a44:	4082      	lsls	r2, r0
 8000a46:	4322      	orrs	r2, r4
 8000a48:	605a      	str	r2, [r3, #4]
 8000a4a:	e7e7      	b.n	8000a1c <__NVIC_SetPriority+0x28>
 8000a4c:	e000e100 	.word	0xe000e100
 8000a50:	e000ed00 	.word	0xe000ed00

08000a54 <SysTick_Config>:
 8000a54:	3801      	subs	r0, #1
 8000a56:	2380      	movs	r3, #128	@ 0x80
 8000a58:	045b      	lsls	r3, r3, #17
 8000a5a:	4298      	cmp	r0, r3
 8000a5c:	d20f      	bcs.n	8000a7e <SysTick_Config+0x2a>
 8000a5e:	4a09      	ldr	r2, [pc, #36]	@ (8000a84 <SysTick_Config+0x30>)
 8000a60:	6050      	str	r0, [r2, #4]
 8000a62:	4809      	ldr	r0, [pc, #36]	@ (8000a88 <SysTick_Config+0x34>)
 8000a64:	6a03      	ldr	r3, [r0, #32]
 8000a66:	021b      	lsls	r3, r3, #8
 8000a68:	0a1b      	lsrs	r3, r3, #8
 8000a6a:	21c0      	movs	r1, #192	@ 0xc0
 8000a6c:	0609      	lsls	r1, r1, #24
 8000a6e:	430b      	orrs	r3, r1
 8000a70:	6203      	str	r3, [r0, #32]
 8000a72:	2300      	movs	r3, #0
 8000a74:	6093      	str	r3, [r2, #8]
 8000a76:	3307      	adds	r3, #7
 8000a78:	6013      	str	r3, [r2, #0]
 8000a7a:	2000      	movs	r0, #0
 8000a7c:	4770      	bx	lr
 8000a7e:	2001      	movs	r0, #1
 8000a80:	e7fc      	b.n	8000a7c <SysTick_Config+0x28>
 8000a82:	46c0      	nop			@ (mov r8, r8)
 8000a84:	e000e010 	.word	0xe000e010
 8000a88:	e000ed00 	.word	0xe000ed00

08000a8c <HAL_NVIC_SetPriority>:
 8000a8c:	b510      	push	{r4, lr}
 8000a8e:	f7ff ffb1 	bl	80009f4 <__NVIC_SetPriority>
 8000a92:	bd10      	pop	{r4, pc}

08000a94 <HAL_NVIC_EnableIRQ>:
 8000a94:	2800      	cmp	r0, #0
 8000a96:	db05      	blt.n	8000aa4 <HAL_NVIC_EnableIRQ+0x10>
 8000a98:	221f      	movs	r2, #31
 8000a9a:	4002      	ands	r2, r0
 8000a9c:	2301      	movs	r3, #1
 8000a9e:	4093      	lsls	r3, r2
 8000aa0:	4a01      	ldr	r2, [pc, #4]	@ (8000aa8 <HAL_NVIC_EnableIRQ+0x14>)
 8000aa2:	6013      	str	r3, [r2, #0]
 8000aa4:	4770      	bx	lr
 8000aa6:	46c0      	nop			@ (mov r8, r8)
 8000aa8:	e000e100 	.word	0xe000e100

08000aac <HAL_SYSTICK_Config>:
 8000aac:	b510      	push	{r4, lr}
 8000aae:	f7ff ffd1 	bl	8000a54 <SysTick_Config>
 8000ab2:	bd10      	pop	{r4, pc}

08000ab4 <CRC_Handle_8>:
 8000ab4:	b570      	push	{r4, r5, r6, lr}
 8000ab6:	2500      	movs	r5, #0
 8000ab8:	e00e      	b.n	8000ad8 <CRC_Handle_8+0x24>
 8000aba:	00ac      	lsls	r4, r5, #2
 8000abc:	5d0b      	ldrb	r3, [r1, r4]
 8000abe:	061b      	lsls	r3, r3, #24
 8000ac0:	190c      	adds	r4, r1, r4
 8000ac2:	7866      	ldrb	r6, [r4, #1]
 8000ac4:	0436      	lsls	r6, r6, #16
 8000ac6:	4333      	orrs	r3, r6
 8000ac8:	78a6      	ldrb	r6, [r4, #2]
 8000aca:	0236      	lsls	r6, r6, #8
 8000acc:	4333      	orrs	r3, r6
 8000ace:	78e6      	ldrb	r6, [r4, #3]
 8000ad0:	6804      	ldr	r4, [r0, #0]
 8000ad2:	4333      	orrs	r3, r6
 8000ad4:	6023      	str	r3, [r4, #0]
 8000ad6:	3501      	adds	r5, #1
 8000ad8:	0893      	lsrs	r3, r2, #2
 8000ada:	42ab      	cmp	r3, r5
 8000adc:	d8ed      	bhi.n	8000aba <CRC_Handle_8+0x6>
 8000ade:	2303      	movs	r3, #3
 8000ae0:	001c      	movs	r4, r3
 8000ae2:	4014      	ands	r4, r2
 8000ae4:	4213      	tst	r3, r2
 8000ae6:	d005      	beq.n	8000af4 <CRC_Handle_8+0x40>
 8000ae8:	2c01      	cmp	r4, #1
 8000aea:	d006      	beq.n	8000afa <CRC_Handle_8+0x46>
 8000aec:	2c02      	cmp	r4, #2
 8000aee:	d009      	beq.n	8000b04 <CRC_Handle_8+0x50>
 8000af0:	2c03      	cmp	r4, #3
 8000af2:	d010      	beq.n	8000b16 <CRC_Handle_8+0x62>
 8000af4:	6803      	ldr	r3, [r0, #0]
 8000af6:	6818      	ldr	r0, [r3, #0]
 8000af8:	bd70      	pop	{r4, r5, r6, pc}
 8000afa:	00ab      	lsls	r3, r5, #2
 8000afc:	6802      	ldr	r2, [r0, #0]
 8000afe:	5ccb      	ldrb	r3, [r1, r3]
 8000b00:	7013      	strb	r3, [r2, #0]
 8000b02:	e7f3      	b.n	8000aec <CRC_Handle_8+0x38>
 8000b04:	00ab      	lsls	r3, r5, #2
 8000b06:	5cca      	ldrb	r2, [r1, r3]
 8000b08:	0212      	lsls	r2, r2, #8
 8000b0a:	18cb      	adds	r3, r1, r3
 8000b0c:	785b      	ldrb	r3, [r3, #1]
 8000b0e:	4313      	orrs	r3, r2
 8000b10:	6802      	ldr	r2, [r0, #0]
 8000b12:	8013      	strh	r3, [r2, #0]
 8000b14:	e7ec      	b.n	8000af0 <CRC_Handle_8+0x3c>
 8000b16:	00ad      	lsls	r5, r5, #2
 8000b18:	5d4a      	ldrb	r2, [r1, r5]
 8000b1a:	0212      	lsls	r2, r2, #8
 8000b1c:	1949      	adds	r1, r1, r5
 8000b1e:	784b      	ldrb	r3, [r1, #1]
 8000b20:	4313      	orrs	r3, r2
 8000b22:	6802      	ldr	r2, [r0, #0]
 8000b24:	8013      	strh	r3, [r2, #0]
 8000b26:	6803      	ldr	r3, [r0, #0]
 8000b28:	788a      	ldrb	r2, [r1, #2]
 8000b2a:	701a      	strb	r2, [r3, #0]
 8000b2c:	e7e2      	b.n	8000af4 <CRC_Handle_8+0x40>

08000b2e <CRC_Handle_16>:
 8000b2e:	b570      	push	{r4, r5, r6, lr}
 8000b30:	2500      	movs	r5, #0
 8000b32:	e008      	b.n	8000b46 <CRC_Handle_16+0x18>
 8000b34:	00ac      	lsls	r4, r5, #2
 8000b36:	5b0b      	ldrh	r3, [r1, r4]
 8000b38:	041b      	lsls	r3, r3, #16
 8000b3a:	190c      	adds	r4, r1, r4
 8000b3c:	8866      	ldrh	r6, [r4, #2]
 8000b3e:	6804      	ldr	r4, [r0, #0]
 8000b40:	4333      	orrs	r3, r6
 8000b42:	6023      	str	r3, [r4, #0]
 8000b44:	3501      	adds	r5, #1
 8000b46:	0853      	lsrs	r3, r2, #1
 8000b48:	42ab      	cmp	r3, r5
 8000b4a:	d8f3      	bhi.n	8000b34 <CRC_Handle_16+0x6>
 8000b4c:	07d2      	lsls	r2, r2, #31
 8000b4e:	d503      	bpl.n	8000b58 <CRC_Handle_16+0x2a>
 8000b50:	6803      	ldr	r3, [r0, #0]
 8000b52:	00ad      	lsls	r5, r5, #2
 8000b54:	5a6a      	ldrh	r2, [r5, r1]
 8000b56:	801a      	strh	r2, [r3, #0]
 8000b58:	6803      	ldr	r3, [r0, #0]
 8000b5a:	6818      	ldr	r0, [r3, #0]
 8000b5c:	bd70      	pop	{r4, r5, r6, pc}
	...

08000b60 <HAL_CRC_Init>:
 8000b60:	b510      	push	{r4, lr}
 8000b62:	1e04      	subs	r4, r0, #0
 8000b64:	d039      	beq.n	8000bda <HAL_CRC_Init+0x7a>
 8000b66:	7f43      	ldrb	r3, [r0, #29]
 8000b68:	2b00      	cmp	r3, #0
 8000b6a:	d025      	beq.n	8000bb8 <HAL_CRC_Init+0x58>
 8000b6c:	2302      	movs	r3, #2
 8000b6e:	7763      	strb	r3, [r4, #29]
 8000b70:	7923      	ldrb	r3, [r4, #4]
 8000b72:	2b00      	cmp	r3, #0
 8000b74:	d124      	bne.n	8000bc0 <HAL_CRC_Init+0x60>
 8000b76:	6823      	ldr	r3, [r4, #0]
 8000b78:	4a19      	ldr	r2, [pc, #100]	@ (8000be0 <HAL_CRC_Init+0x80>)
 8000b7a:	615a      	str	r2, [r3, #20]
 8000b7c:	6822      	ldr	r2, [r4, #0]
 8000b7e:	6893      	ldr	r3, [r2, #8]
 8000b80:	2118      	movs	r1, #24
 8000b82:	438b      	bics	r3, r1
 8000b84:	6093      	str	r3, [r2, #8]
 8000b86:	7963      	ldrb	r3, [r4, #5]
 8000b88:	2b00      	cmp	r3, #0
 8000b8a:	d122      	bne.n	8000bd2 <HAL_CRC_Init+0x72>
 8000b8c:	6823      	ldr	r3, [r4, #0]
 8000b8e:	2201      	movs	r2, #1
 8000b90:	4252      	negs	r2, r2
 8000b92:	611a      	str	r2, [r3, #16]
 8000b94:	6822      	ldr	r2, [r4, #0]
 8000b96:	6893      	ldr	r3, [r2, #8]
 8000b98:	2160      	movs	r1, #96	@ 0x60
 8000b9a:	438b      	bics	r3, r1
 8000b9c:	6961      	ldr	r1, [r4, #20]
 8000b9e:	430b      	orrs	r3, r1
 8000ba0:	6093      	str	r3, [r2, #8]
 8000ba2:	6822      	ldr	r2, [r4, #0]
 8000ba4:	6893      	ldr	r3, [r2, #8]
 8000ba6:	2180      	movs	r1, #128	@ 0x80
 8000ba8:	438b      	bics	r3, r1
 8000baa:	69a1      	ldr	r1, [r4, #24]
 8000bac:	430b      	orrs	r3, r1
 8000bae:	6093      	str	r3, [r2, #8]
 8000bb0:	2301      	movs	r3, #1
 8000bb2:	7763      	strb	r3, [r4, #29]
 8000bb4:	2000      	movs	r0, #0
 8000bb6:	bd10      	pop	{r4, pc}
 8000bb8:	7703      	strb	r3, [r0, #28]
 8000bba:	f7ff fb4d 	bl	8000258 <HAL_CRC_MspInit>
 8000bbe:	e7d5      	b.n	8000b6c <HAL_CRC_Init+0xc>
 8000bc0:	68e2      	ldr	r2, [r4, #12]
 8000bc2:	68a1      	ldr	r1, [r4, #8]
 8000bc4:	0020      	movs	r0, r4
 8000bc6:	f000 f835 	bl	8000c34 <HAL_CRCEx_Polynomial_Set>
 8000bca:	2800      	cmp	r0, #0
 8000bcc:	d0db      	beq.n	8000b86 <HAL_CRC_Init+0x26>
 8000bce:	2001      	movs	r0, #1
 8000bd0:	e7f1      	b.n	8000bb6 <HAL_CRC_Init+0x56>
 8000bd2:	6823      	ldr	r3, [r4, #0]
 8000bd4:	6922      	ldr	r2, [r4, #16]
 8000bd6:	611a      	str	r2, [r3, #16]
 8000bd8:	e7dc      	b.n	8000b94 <HAL_CRC_Init+0x34>
 8000bda:	2001      	movs	r0, #1
 8000bdc:	e7eb      	b.n	8000bb6 <HAL_CRC_Init+0x56>
 8000bde:	46c0      	nop			@ (mov r8, r8)
 8000be0:	04c11db7 	.word	0x04c11db7

08000be4 <HAL_CRC_Calculate>:
 8000be4:	b570      	push	{r4, r5, r6, lr}
 8000be6:	0004      	movs	r4, r0
 8000be8:	2302      	movs	r3, #2
 8000bea:	7743      	strb	r3, [r0, #29]
 8000bec:	6800      	ldr	r0, [r0, #0]
 8000bee:	6883      	ldr	r3, [r0, #8]
 8000bf0:	2501      	movs	r5, #1
 8000bf2:	432b      	orrs	r3, r5
 8000bf4:	6083      	str	r3, [r0, #8]
 8000bf6:	6a23      	ldr	r3, [r4, #32]
 8000bf8:	2b02      	cmp	r3, #2
 8000bfa:	d017      	beq.n	8000c2c <HAL_CRC_Calculate+0x48>
 8000bfc:	2b03      	cmp	r3, #3
 8000bfe:	d00f      	beq.n	8000c20 <HAL_CRC_Calculate+0x3c>
 8000c00:	2b01      	cmp	r3, #1
 8000c02:	d00f      	beq.n	8000c24 <HAL_CRC_Calculate+0x40>
 8000c04:	2000      	movs	r0, #0
 8000c06:	2301      	movs	r3, #1
 8000c08:	7763      	strb	r3, [r4, #29]
 8000c0a:	bd70      	pop	{r4, r5, r6, pc}
 8000c0c:	6820      	ldr	r0, [r4, #0]
 8000c0e:	009d      	lsls	r5, r3, #2
 8000c10:	586d      	ldr	r5, [r5, r1]
 8000c12:	6005      	str	r5, [r0, #0]
 8000c14:	3301      	adds	r3, #1
 8000c16:	4293      	cmp	r3, r2
 8000c18:	d3f8      	bcc.n	8000c0c <HAL_CRC_Calculate+0x28>
 8000c1a:	6823      	ldr	r3, [r4, #0]
 8000c1c:	6818      	ldr	r0, [r3, #0]
 8000c1e:	e7f2      	b.n	8000c06 <HAL_CRC_Calculate+0x22>
 8000c20:	2300      	movs	r3, #0
 8000c22:	e7f8      	b.n	8000c16 <HAL_CRC_Calculate+0x32>
 8000c24:	0020      	movs	r0, r4
 8000c26:	f7ff ff45 	bl	8000ab4 <CRC_Handle_8>
 8000c2a:	e7ec      	b.n	8000c06 <HAL_CRC_Calculate+0x22>
 8000c2c:	0020      	movs	r0, r4
 8000c2e:	f7ff ff7e 	bl	8000b2e <CRC_Handle_16>
 8000c32:	e7e8      	b.n	8000c06 <HAL_CRC_Calculate+0x22>

08000c34 <HAL_CRCEx_Polynomial_Set>:
 8000c34:	b530      	push	{r4, r5, lr}
 8000c36:	07cb      	lsls	r3, r1, #31
 8000c38:	d52a      	bpl.n	8000c90 <HAL_CRCEx_Polynomial_Set+0x5c>
 8000c3a:	231f      	movs	r3, #31
 8000c3c:	001c      	movs	r4, r3
 8000c3e:	3b01      	subs	r3, #1
 8000c40:	2c00      	cmp	r4, #0
 8000c42:	d006      	beq.n	8000c52 <HAL_CRCEx_Polynomial_Set+0x1e>
 8000c44:	241f      	movs	r4, #31
 8000c46:	401c      	ands	r4, r3
 8000c48:	000d      	movs	r5, r1
 8000c4a:	40e5      	lsrs	r5, r4
 8000c4c:	002c      	movs	r4, r5
 8000c4e:	07e4      	lsls	r4, r4, #31
 8000c50:	d5f4      	bpl.n	8000c3c <HAL_CRCEx_Polynomial_Set+0x8>
 8000c52:	2a10      	cmp	r2, #16
 8000c54:	d018      	beq.n	8000c88 <HAL_CRCEx_Polynomial_Set+0x54>
 8000c56:	d809      	bhi.n	8000c6c <HAL_CRCEx_Polynomial_Set+0x38>
 8000c58:	2a00      	cmp	r2, #0
 8000c5a:	d00b      	beq.n	8000c74 <HAL_CRCEx_Polynomial_Set+0x40>
 8000c5c:	2a08      	cmp	r2, #8
 8000c5e:	d103      	bne.n	8000c68 <HAL_CRCEx_Polynomial_Set+0x34>
 8000c60:	2b0f      	cmp	r3, #15
 8000c62:	d907      	bls.n	8000c74 <HAL_CRCEx_Polynomial_Set+0x40>
 8000c64:	2001      	movs	r0, #1
 8000c66:	e014      	b.n	8000c92 <HAL_CRCEx_Polynomial_Set+0x5e>
 8000c68:	2001      	movs	r0, #1
 8000c6a:	e012      	b.n	8000c92 <HAL_CRCEx_Polynomial_Set+0x5e>
 8000c6c:	2a18      	cmp	r2, #24
 8000c6e:	d111      	bne.n	8000c94 <HAL_CRCEx_Polynomial_Set+0x60>
 8000c70:	2b06      	cmp	r3, #6
 8000c72:	d811      	bhi.n	8000c98 <HAL_CRCEx_Polynomial_Set+0x64>
 8000c74:	6803      	ldr	r3, [r0, #0]
 8000c76:	6159      	str	r1, [r3, #20]
 8000c78:	6801      	ldr	r1, [r0, #0]
 8000c7a:	688b      	ldr	r3, [r1, #8]
 8000c7c:	2018      	movs	r0, #24
 8000c7e:	4383      	bics	r3, r0
 8000c80:	4313      	orrs	r3, r2
 8000c82:	608b      	str	r3, [r1, #8]
 8000c84:	2000      	movs	r0, #0
 8000c86:	e004      	b.n	8000c92 <HAL_CRCEx_Polynomial_Set+0x5e>
 8000c88:	2b07      	cmp	r3, #7
 8000c8a:	d9f3      	bls.n	8000c74 <HAL_CRCEx_Polynomial_Set+0x40>
 8000c8c:	2001      	movs	r0, #1
 8000c8e:	e000      	b.n	8000c92 <HAL_CRCEx_Polynomial_Set+0x5e>
 8000c90:	2001      	movs	r0, #1
 8000c92:	bd30      	pop	{r4, r5, pc}
 8000c94:	2001      	movs	r0, #1
 8000c96:	e7fc      	b.n	8000c92 <HAL_CRCEx_Polynomial_Set+0x5e>
 8000c98:	2001      	movs	r0, #1
 8000c9a:	e7fa      	b.n	8000c92 <HAL_CRCEx_Polynomial_Set+0x5e>

08000c9c <FLASH_Program_DoubleWord>:
 8000c9c:	b530      	push	{r4, r5, lr}
 8000c9e:	4c05      	ldr	r4, [pc, #20]	@ (8000cb4 <FLASH_Program_DoubleWord+0x18>)
 8000ca0:	6961      	ldr	r1, [r4, #20]
 8000ca2:	2501      	movs	r5, #1
 8000ca4:	4329      	orrs	r1, r5
 8000ca6:	6161      	str	r1, [r4, #20]
 8000ca8:	6002      	str	r2, [r0, #0]
 8000caa:	f3bf 8f6f 	isb	sy
 8000cae:	6043      	str	r3, [r0, #4]
 8000cb0:	bd30      	pop	{r4, r5, pc}
 8000cb2:	46c0      	nop			@ (mov r8, r8)
 8000cb4:	40022000 	.word	0x40022000

08000cb8 <HAL_FLASH_EndOfOperationCallback>:
 8000cb8:	4770      	bx	lr

08000cba <HAL_FLASH_OperationErrorCallback>:
 8000cba:	4770      	bx	lr

08000cbc <HAL_FLASH_IRQHandler>:
 8000cbc:	b510      	push	{r4, lr}
 8000cbe:	4b2a      	ldr	r3, [pc, #168]	@ (8000d68 <HAL_FLASH_IRQHandler+0xac>)
 8000cc0:	691b      	ldr	r3, [r3, #16]
 8000cc2:	4a2a      	ldr	r2, [pc, #168]	@ (8000d6c <HAL_FLASH_IRQHandler+0xb0>)
 8000cc4:	4013      	ands	r3, r2
 8000cc6:	4a2a      	ldr	r2, [pc, #168]	@ (8000d70 <HAL_FLASH_IRQHandler+0xb4>)
 8000cc8:	6892      	ldr	r2, [r2, #8]
 8000cca:	0751      	lsls	r1, r2, #29
 8000ccc:	d521      	bpl.n	8000d12 <HAL_FLASH_IRQHandler+0x56>
 8000cce:	4a28      	ldr	r2, [pc, #160]	@ (8000d70 <HAL_FLASH_IRQHandler+0xb4>)
 8000cd0:	6914      	ldr	r4, [r2, #16]
 8000cd2:	2b00      	cmp	r3, #0
 8000cd4:	d12a      	bne.n	8000d2c <HAL_FLASH_IRQHandler+0x70>
 8000cd6:	4b24      	ldr	r3, [pc, #144]	@ (8000d68 <HAL_FLASH_IRQHandler+0xac>)
 8000cd8:	691b      	ldr	r3, [r3, #16]
 8000cda:	07db      	lsls	r3, r3, #31
 8000cdc:	d50c      	bpl.n	8000cf8 <HAL_FLASH_IRQHandler+0x3c>
 8000cde:	4b22      	ldr	r3, [pc, #136]	@ (8000d68 <HAL_FLASH_IRQHandler+0xac>)
 8000ce0:	2201      	movs	r2, #1
 8000ce2:	611a      	str	r2, [r3, #16]
 8000ce4:	4b22      	ldr	r3, [pc, #136]	@ (8000d70 <HAL_FLASH_IRQHandler+0xb4>)
 8000ce6:	689b      	ldr	r3, [r3, #8]
 8000ce8:	2b02      	cmp	r3, #2
 8000cea:	d02c      	beq.n	8000d46 <HAL_FLASH_IRQHandler+0x8a>
 8000cec:	4b20      	ldr	r3, [pc, #128]	@ (8000d70 <HAL_FLASH_IRQHandler+0xb4>)
 8000cee:	2200      	movs	r2, #0
 8000cf0:	609a      	str	r2, [r3, #8]
 8000cf2:	0020      	movs	r0, r4
 8000cf4:	f7ff ffe0 	bl	8000cb8 <HAL_FLASH_EndOfOperationCallback>
 8000cf8:	4b1d      	ldr	r3, [pc, #116]	@ (8000d70 <HAL_FLASH_IRQHandler+0xb4>)
 8000cfa:	689b      	ldr	r3, [r3, #8]
 8000cfc:	2b00      	cmp	r3, #0
 8000cfe:	d107      	bne.n	8000d10 <HAL_FLASH_IRQHandler+0x54>
 8000d00:	4a19      	ldr	r2, [pc, #100]	@ (8000d68 <HAL_FLASH_IRQHandler+0xac>)
 8000d02:	6953      	ldr	r3, [r2, #20]
 8000d04:	491b      	ldr	r1, [pc, #108]	@ (8000d74 <HAL_FLASH_IRQHandler+0xb8>)
 8000d06:	400b      	ands	r3, r1
 8000d08:	6153      	str	r3, [r2, #20]
 8000d0a:	4b19      	ldr	r3, [pc, #100]	@ (8000d70 <HAL_FLASH_IRQHandler+0xb4>)
 8000d0c:	2200      	movs	r2, #0
 8000d0e:	701a      	strb	r2, [r3, #0]
 8000d10:	bd10      	pop	{r4, pc}
 8000d12:	4815      	ldr	r0, [pc, #84]	@ (8000d68 <HAL_FLASH_IRQHandler+0xac>)
 8000d14:	6941      	ldr	r1, [r0, #20]
 8000d16:	4391      	bics	r1, r2
 8000d18:	6141      	str	r1, [r0, #20]
 8000d1a:	4917      	ldr	r1, [pc, #92]	@ (8000d78 <HAL_FLASH_IRQHandler+0xbc>)
 8000d1c:	420a      	tst	r2, r1
 8000d1e:	d002      	beq.n	8000d26 <HAL_FLASH_IRQHandler+0x6a>
 8000d20:	4a13      	ldr	r2, [pc, #76]	@ (8000d70 <HAL_FLASH_IRQHandler+0xb4>)
 8000d22:	68d4      	ldr	r4, [r2, #12]
 8000d24:	e7d5      	b.n	8000cd2 <HAL_FLASH_IRQHandler+0x16>
 8000d26:	4a12      	ldr	r2, [pc, #72]	@ (8000d70 <HAL_FLASH_IRQHandler+0xb4>)
 8000d28:	6954      	ldr	r4, [r2, #20]
 8000d2a:	e7d2      	b.n	8000cd2 <HAL_FLASH_IRQHandler+0x16>
 8000d2c:	4a10      	ldr	r2, [pc, #64]	@ (8000d70 <HAL_FLASH_IRQHandler+0xb4>)
 8000d2e:	6851      	ldr	r1, [r2, #4]
 8000d30:	430b      	orrs	r3, r1
 8000d32:	6053      	str	r3, [r2, #4]
 8000d34:	4b0c      	ldr	r3, [pc, #48]	@ (8000d68 <HAL_FLASH_IRQHandler+0xac>)
 8000d36:	490d      	ldr	r1, [pc, #52]	@ (8000d6c <HAL_FLASH_IRQHandler+0xb0>)
 8000d38:	6119      	str	r1, [r3, #16]
 8000d3a:	2300      	movs	r3, #0
 8000d3c:	6093      	str	r3, [r2, #8]
 8000d3e:	0020      	movs	r0, r4
 8000d40:	f7ff ffbb 	bl	8000cba <HAL_FLASH_OperationErrorCallback>
 8000d44:	e7c7      	b.n	8000cd6 <HAL_FLASH_IRQHandler+0x1a>
 8000d46:	4a0a      	ldr	r2, [pc, #40]	@ (8000d70 <HAL_FLASH_IRQHandler+0xb4>)
 8000d48:	6993      	ldr	r3, [r2, #24]
 8000d4a:	3b01      	subs	r3, #1
 8000d4c:	6193      	str	r3, [r2, #24]
 8000d4e:	2b00      	cmp	r3, #0
 8000d50:	d103      	bne.n	8000d5a <HAL_FLASH_IRQHandler+0x9e>
 8000d52:	4b07      	ldr	r3, [pc, #28]	@ (8000d70 <HAL_FLASH_IRQHandler+0xb4>)
 8000d54:	2200      	movs	r2, #0
 8000d56:	609a      	str	r2, [r3, #8]
 8000d58:	e7cb      	b.n	8000cf2 <HAL_FLASH_IRQHandler+0x36>
 8000d5a:	6951      	ldr	r1, [r2, #20]
 8000d5c:	3101      	adds	r1, #1
 8000d5e:	6151      	str	r1, [r2, #20]
 8000d60:	6910      	ldr	r0, [r2, #16]
 8000d62:	f000 f8a9 	bl	8000eb8 <FLASH_PageErase>
 8000d66:	e7c4      	b.n	8000cf2 <HAL_FLASH_IRQHandler+0x36>
 8000d68:	40022000 	.word	0x40022000
 8000d6c:	0000c3fa 	.word	0x0000c3fa
 8000d70:	200008a0 	.word	0x200008a0
 8000d74:	fcffffff 	.word	0xfcffffff
 8000d78:	00040001 	.word	0x00040001

08000d7c <HAL_FLASH_Unlock>:
 8000d7c:	4b08      	ldr	r3, [pc, #32]	@ (8000da0 <HAL_FLASH_Unlock+0x24>)
 8000d7e:	695b      	ldr	r3, [r3, #20]
 8000d80:	2b00      	cmp	r3, #0
 8000d82:	db01      	blt.n	8000d88 <HAL_FLASH_Unlock+0xc>
 8000d84:	2000      	movs	r0, #0
 8000d86:	4770      	bx	lr
 8000d88:	4b05      	ldr	r3, [pc, #20]	@ (8000da0 <HAL_FLASH_Unlock+0x24>)
 8000d8a:	4a06      	ldr	r2, [pc, #24]	@ (8000da4 <HAL_FLASH_Unlock+0x28>)
 8000d8c:	609a      	str	r2, [r3, #8]
 8000d8e:	4a06      	ldr	r2, [pc, #24]	@ (8000da8 <HAL_FLASH_Unlock+0x2c>)
 8000d90:	609a      	str	r2, [r3, #8]
 8000d92:	695b      	ldr	r3, [r3, #20]
 8000d94:	2b00      	cmp	r3, #0
 8000d96:	db01      	blt.n	8000d9c <HAL_FLASH_Unlock+0x20>
 8000d98:	2000      	movs	r0, #0
 8000d9a:	e7f4      	b.n	8000d86 <HAL_FLASH_Unlock+0xa>
 8000d9c:	2001      	movs	r0, #1
 8000d9e:	e7f2      	b.n	8000d86 <HAL_FLASH_Unlock+0xa>
 8000da0:	40022000 	.word	0x40022000
 8000da4:	45670123 	.word	0x45670123
 8000da8:	cdef89ab 	.word	0xcdef89ab

08000dac <FLASH_WaitForLastOperation>:
 8000dac:	b570      	push	{r4, r5, r6, lr}
 8000dae:	0004      	movs	r4, r0
 8000db0:	f7ff fe1a 	bl	80009e8 <HAL_GetTick>
 8000db4:	0005      	movs	r5, r0
 8000db6:	4b14      	ldr	r3, [pc, #80]	@ (8000e08 <FLASH_WaitForLastOperation+0x5c>)
 8000db8:	691b      	ldr	r3, [r3, #16]
 8000dba:	03db      	lsls	r3, r3, #15
 8000dbc:	d508      	bpl.n	8000dd0 <FLASH_WaitForLastOperation+0x24>
 8000dbe:	1c63      	adds	r3, r4, #1
 8000dc0:	d0f9      	beq.n	8000db6 <FLASH_WaitForLastOperation+0xa>
 8000dc2:	f7ff fe11 	bl	80009e8 <HAL_GetTick>
 8000dc6:	1b40      	subs	r0, r0, r5
 8000dc8:	42a0      	cmp	r0, r4
 8000dca:	d3f4      	bcc.n	8000db6 <FLASH_WaitForLastOperation+0xa>
 8000dcc:	2003      	movs	r0, #3
 8000dce:	e01a      	b.n	8000e06 <FLASH_WaitForLastOperation+0x5a>
 8000dd0:	490d      	ldr	r1, [pc, #52]	@ (8000e08 <FLASH_WaitForLastOperation+0x5c>)
 8000dd2:	690a      	ldr	r2, [r1, #16]
 8000dd4:	4b0d      	ldr	r3, [pc, #52]	@ (8000e0c <FLASH_WaitForLastOperation+0x60>)
 8000dd6:	0016      	movs	r6, r2
 8000dd8:	401e      	ands	r6, r3
 8000dda:	480d      	ldr	r0, [pc, #52]	@ (8000e10 <FLASH_WaitForLastOperation+0x64>)
 8000ddc:	6108      	str	r0, [r1, #16]
 8000dde:	421a      	tst	r2, r3
 8000de0:	d10c      	bne.n	8000dfc <FLASH_WaitForLastOperation+0x50>
 8000de2:	4b09      	ldr	r3, [pc, #36]	@ (8000e08 <FLASH_WaitForLastOperation+0x5c>)
 8000de4:	691b      	ldr	r3, [r3, #16]
 8000de6:	035b      	lsls	r3, r3, #13
 8000de8:	d50c      	bpl.n	8000e04 <FLASH_WaitForLastOperation+0x58>
 8000dea:	1c63      	adds	r3, r4, #1
 8000dec:	d0f9      	beq.n	8000de2 <FLASH_WaitForLastOperation+0x36>
 8000dee:	f7ff fdfb 	bl	80009e8 <HAL_GetTick>
 8000df2:	1b40      	subs	r0, r0, r5
 8000df4:	42a0      	cmp	r0, r4
 8000df6:	d3f4      	bcc.n	8000de2 <FLASH_WaitForLastOperation+0x36>
 8000df8:	2003      	movs	r0, #3
 8000dfa:	e004      	b.n	8000e06 <FLASH_WaitForLastOperation+0x5a>
 8000dfc:	4b05      	ldr	r3, [pc, #20]	@ (8000e14 <FLASH_WaitForLastOperation+0x68>)
 8000dfe:	605e      	str	r6, [r3, #4]
 8000e00:	2001      	movs	r0, #1
 8000e02:	e000      	b.n	8000e06 <FLASH_WaitForLastOperation+0x5a>
 8000e04:	2000      	movs	r0, #0
 8000e06:	bd70      	pop	{r4, r5, r6, pc}
 8000e08:	40022000 	.word	0x40022000
 8000e0c:	0000c3fa 	.word	0x0000c3fa
 8000e10:	0000c3fb 	.word	0x0000c3fb
 8000e14:	200008a0 	.word	0x200008a0

08000e18 <HAL_FLASH_Program>:
 8000e18:	b5f8      	push	{r3, r4, r5, r6, r7, lr}
 8000e1a:	0007      	movs	r7, r0
 8000e1c:	000c      	movs	r4, r1
 8000e1e:	0015      	movs	r5, r2
 8000e20:	001e      	movs	r6, r3
 8000e22:	4b14      	ldr	r3, [pc, #80]	@ (8000e74 <HAL_FLASH_Program+0x5c>)
 8000e24:	781b      	ldrb	r3, [r3, #0]
 8000e26:	2b01      	cmp	r3, #1
 8000e28:	d022      	beq.n	8000e70 <HAL_FLASH_Program+0x58>
 8000e2a:	4b12      	ldr	r3, [pc, #72]	@ (8000e74 <HAL_FLASH_Program+0x5c>)
 8000e2c:	2201      	movs	r2, #1
 8000e2e:	701a      	strb	r2, [r3, #0]
 8000e30:	2200      	movs	r2, #0
 8000e32:	605a      	str	r2, [r3, #4]
 8000e34:	20fa      	movs	r0, #250	@ 0xfa
 8000e36:	0080      	lsls	r0, r0, #2
 8000e38:	f7ff ffb8 	bl	8000dac <FLASH_WaitForLastOperation>
 8000e3c:	2800      	cmp	r0, #0
 8000e3e:	d10d      	bne.n	8000e5c <HAL_FLASH_Program+0x44>
 8000e40:	2f01      	cmp	r7, #1
 8000e42:	d00f      	beq.n	8000e64 <HAL_FLASH_Program+0x4c>
 8000e44:	0029      	movs	r1, r5
 8000e46:	0020      	movs	r0, r4
 8000e48:	f000 fb9e 	bl	8001588 <__FLASH_Program_Fast_veneer>
 8000e4c:	20fa      	movs	r0, #250	@ 0xfa
 8000e4e:	0080      	lsls	r0, r0, #2
 8000e50:	f7ff ffac 	bl	8000dac <FLASH_WaitForLastOperation>
 8000e54:	4a08      	ldr	r2, [pc, #32]	@ (8000e78 <HAL_FLASH_Program+0x60>)
 8000e56:	6953      	ldr	r3, [r2, #20]
 8000e58:	43bb      	bics	r3, r7
 8000e5a:	6153      	str	r3, [r2, #20]
 8000e5c:	4b05      	ldr	r3, [pc, #20]	@ (8000e74 <HAL_FLASH_Program+0x5c>)
 8000e5e:	2200      	movs	r2, #0
 8000e60:	701a      	strb	r2, [r3, #0]
 8000e62:	bdf8      	pop	{r3, r4, r5, r6, r7, pc}
 8000e64:	002a      	movs	r2, r5
 8000e66:	0033      	movs	r3, r6
 8000e68:	0020      	movs	r0, r4
 8000e6a:	f7ff ff17 	bl	8000c9c <FLASH_Program_DoubleWord>
 8000e6e:	e7ed      	b.n	8000e4c <HAL_FLASH_Program+0x34>
 8000e70:	2002      	movs	r0, #2
 8000e72:	e7f6      	b.n	8000e62 <HAL_FLASH_Program+0x4a>
 8000e74:	200008a0 	.word	0x200008a0
 8000e78:	40022000 	.word	0x40022000

08000e7c <HAL_FLASH_Lock>:
 8000e7c:	b510      	push	{r4, lr}
 8000e7e:	20fa      	movs	r0, #250	@ 0xfa
 8000e80:	0080      	lsls	r0, r0, #2
 8000e82:	f7ff ff93 	bl	8000dac <FLASH_WaitForLastOperation>
 8000e86:	4b06      	ldr	r3, [pc, #24]	@ (8000ea0 <HAL_FLASH_Lock+0x24>)
 8000e88:	6959      	ldr	r1, [r3, #20]
 8000e8a:	2280      	movs	r2, #128	@ 0x80
 8000e8c:	0612      	lsls	r2, r2, #24
 8000e8e:	430a      	orrs	r2, r1
 8000e90:	615a      	str	r2, [r3, #20]
 8000e92:	695b      	ldr	r3, [r3, #20]
 8000e94:	2b00      	cmp	r3, #0
 8000e96:	db01      	blt.n	8000e9c <HAL_FLASH_Lock+0x20>
 8000e98:	2001      	movs	r0, #1
 8000e9a:	bd10      	pop	{r4, pc}
 8000e9c:	2000      	movs	r0, #0
 8000e9e:	e7fc      	b.n	8000e9a <HAL_FLASH_Lock+0x1e>
 8000ea0:	40022000 	.word	0x40022000

08000ea4 <FLASH_MassErase>:
 8000ea4:	4a03      	ldr	r2, [pc, #12]	@ (8000eb4 <FLASH_MassErase+0x10>)
 8000ea6:	6953      	ldr	r3, [r2, #20]
 8000ea8:	4303      	orrs	r3, r0
 8000eaa:	2080      	movs	r0, #128	@ 0x80
 8000eac:	0240      	lsls	r0, r0, #9
 8000eae:	4318      	orrs	r0, r3
 8000eb0:	6150      	str	r0, [r2, #20]
 8000eb2:	4770      	bx	lr
 8000eb4:	40022000 	.word	0x40022000

08000eb8 <FLASH_PageErase>:
 8000eb8:	4a04      	ldr	r2, [pc, #16]	@ (8000ecc <FLASH_PageErase+0x14>)
 8000eba:	6953      	ldr	r3, [r2, #20]
 8000ebc:	4804      	ldr	r0, [pc, #16]	@ (8000ed0 <FLASH_PageErase+0x18>)
 8000ebe:	4003      	ands	r3, r0
 8000ec0:	00c9      	lsls	r1, r1, #3
 8000ec2:	4319      	orrs	r1, r3
 8000ec4:	4b03      	ldr	r3, [pc, #12]	@ (8000ed4 <FLASH_PageErase+0x1c>)
 8000ec6:	430b      	orrs	r3, r1
 8000ec8:	6153      	str	r3, [r2, #20]
 8000eca:	4770      	bx	lr
 8000ecc:	40022000 	.word	0x40022000
 8000ed0:	ffffe007 	.word	0xffffe007
 8000ed4:	00010002 	.word	0x00010002

08000ed8 <HAL_FLASHEx_Erase>:
 8000ed8:	b570      	push	{r4, r5, r6, lr}
 8000eda:	0004      	movs	r4, r0
 8000edc:	000e      	movs	r6, r1
 8000ede:	4b1e      	ldr	r3, [pc, #120]	@ (8000f58 <HAL_FLASHEx_Erase+0x80>)
 8000ee0:	781b      	ldrb	r3, [r3, #0]
 8000ee2:	2b01      	cmp	r3, #1
 8000ee4:	d036      	beq.n	8000f54 <HAL_FLASHEx_Erase+0x7c>
 8000ee6:	4b1c      	ldr	r3, [pc, #112]	@ (8000f58 <HAL_FLASHEx_Erase+0x80>)
 8000ee8:	2201      	movs	r2, #1
 8000eea:	701a      	strb	r2, [r3, #0]
 8000eec:	2200      	movs	r2, #0
 8000eee:	605a      	str	r2, [r3, #4]
 8000ef0:	20fa      	movs	r0, #250	@ 0xfa
 8000ef2:	0080      	lsls	r0, r0, #2
 8000ef4:	f7ff ff5a 	bl	8000dac <FLASH_WaitForLastOperation>
 8000ef8:	2800      	cmp	r0, #0
 8000efa:	d127      	bne.n	8000f4c <HAL_FLASHEx_Erase+0x74>
 8000efc:	2304      	movs	r3, #4
 8000efe:	6063      	str	r3, [r4, #4]
 8000f00:	6823      	ldr	r3, [r4, #0]
 8000f02:	2b04      	cmp	r3, #4
 8000f04:	d014      	beq.n	8000f30 <HAL_FLASHEx_Erase+0x58>
 8000f06:	2301      	movs	r3, #1
 8000f08:	425b      	negs	r3, r3
 8000f0a:	6033      	str	r3, [r6, #0]
 8000f0c:	68a5      	ldr	r5, [r4, #8]
 8000f0e:	68a3      	ldr	r3, [r4, #8]
 8000f10:	68e2      	ldr	r2, [r4, #12]
 8000f12:	189b      	adds	r3, r3, r2
 8000f14:	42ab      	cmp	r3, r5
 8000f16:	d914      	bls.n	8000f42 <HAL_FLASHEx_Erase+0x6a>
 8000f18:	6860      	ldr	r0, [r4, #4]
 8000f1a:	0029      	movs	r1, r5
 8000f1c:	f7ff ffcc 	bl	8000eb8 <FLASH_PageErase>
 8000f20:	20fa      	movs	r0, #250	@ 0xfa
 8000f22:	0080      	lsls	r0, r0, #2
 8000f24:	f7ff ff42 	bl	8000dac <FLASH_WaitForLastOperation>
 8000f28:	2800      	cmp	r0, #0
 8000f2a:	d109      	bne.n	8000f40 <HAL_FLASHEx_Erase+0x68>
 8000f2c:	3501      	adds	r5, #1
 8000f2e:	e7ee      	b.n	8000f0e <HAL_FLASHEx_Erase+0x36>
 8000f30:	3004      	adds	r0, #4
 8000f32:	f7ff ffb7 	bl	8000ea4 <FLASH_MassErase>
 8000f36:	20fa      	movs	r0, #250	@ 0xfa
 8000f38:	0080      	lsls	r0, r0, #2
 8000f3a:	f7ff ff37 	bl	8000dac <FLASH_WaitForLastOperation>
 8000f3e:	e005      	b.n	8000f4c <HAL_FLASHEx_Erase+0x74>
 8000f40:	6035      	str	r5, [r6, #0]
 8000f42:	4a06      	ldr	r2, [pc, #24]	@ (8000f5c <HAL_FLASHEx_Erase+0x84>)
 8000f44:	6953      	ldr	r3, [r2, #20]
 8000f46:	2102      	movs	r1, #2
 8000f48:	438b      	bics	r3, r1
 8000f4a:	6153      	str	r3, [r2, #20]
 8000f4c:	4b02      	ldr	r3, [pc, #8]	@ (8000f58 <HAL_FLASHEx_Erase+0x80>)
 8000f4e:	2200      	movs	r2, #0
 8000f50:	701a      	strb	r2, [r3, #0]
 8000f52:	bd70      	pop	{r4, r5, r6, pc}
 8000f54:	2002      	movs	r0, #2
 8000f56:	e7fc      	b.n	8000f52 <HAL_FLASHEx_Erase+0x7a>
 8000f58:	200008a0 	.word	0x200008a0
 8000f5c:	40022000 	.word	0x40022000

08000f60 <HAL_GPIO_Init>:
 8000f60:	b5f0      	push	{r4, r5, r6, r7, lr}
 8000f62:	2300      	movs	r3, #0
 8000f64:	e059      	b.n	800101a <HAL_GPIO_Init+0xba>
 8000f66:	6886      	ldr	r6, [r0, #8]
 8000f68:	005f      	lsls	r7, r3, #1
 8000f6a:	2403      	movs	r4, #3
 8000f6c:	40bc      	lsls	r4, r7
 8000f6e:	43a6      	bics	r6, r4
 8000f70:	68cc      	ldr	r4, [r1, #12]
 8000f72:	40bc      	lsls	r4, r7
 8000f74:	4334      	orrs	r4, r6
 8000f76:	6084      	str	r4, [r0, #8]
 8000f78:	6844      	ldr	r4, [r0, #4]
 8000f7a:	4394      	bics	r4, r2
 8000f7c:	684e      	ldr	r6, [r1, #4]
 8000f7e:	0936      	lsrs	r6, r6, #4
 8000f80:	2201      	movs	r2, #1
 8000f82:	4032      	ands	r2, r6
 8000f84:	409a      	lsls	r2, r3
 8000f86:	4322      	orrs	r2, r4
 8000f88:	6042      	str	r2, [r0, #4]
 8000f8a:	e056      	b.n	800103a <HAL_GPIO_Init+0xda>
 8000f8c:	08de      	lsrs	r6, r3, #3
 8000f8e:	3608      	adds	r6, #8
 8000f90:	00b6      	lsls	r6, r6, #2
 8000f92:	5837      	ldr	r7, [r6, r0]
 8000f94:	3205      	adds	r2, #5
 8000f96:	401a      	ands	r2, r3
 8000f98:	0092      	lsls	r2, r2, #2
 8000f9a:	240f      	movs	r4, #15
 8000f9c:	4094      	lsls	r4, r2
 8000f9e:	43a7      	bics	r7, r4
 8000fa0:	690c      	ldr	r4, [r1, #16]
 8000fa2:	4094      	lsls	r4, r2
 8000fa4:	0022      	movs	r2, r4
 8000fa6:	433a      	orrs	r2, r7
 8000fa8:	5032      	str	r2, [r6, r0]
 8000faa:	e059      	b.n	8001060 <HAL_GPIO_Init+0x100>
 8000fac:	2603      	movs	r6, #3
 8000fae:	e000      	b.n	8000fb2 <HAL_GPIO_Init+0x52>
 8000fb0:	2600      	movs	r6, #0
 8000fb2:	40a6      	lsls	r6, r4
 8000fb4:	0034      	movs	r4, r6
 8000fb6:	433c      	orrs	r4, r7
 8000fb8:	4e42      	ldr	r6, [pc, #264]	@ (80010c4 <HAL_GPIO_Init+0x164>)
 8000fba:	3218      	adds	r2, #24
 8000fbc:	0092      	lsls	r2, r2, #2
 8000fbe:	5194      	str	r4, [r2, r6]
 8000fc0:	6837      	ldr	r7, [r6, #0]
 8000fc2:	43ea      	mvns	r2, r5
 8000fc4:	003e      	movs	r6, r7
 8000fc6:	43ae      	bics	r6, r5
 8000fc8:	684c      	ldr	r4, [r1, #4]
 8000fca:	02e4      	lsls	r4, r4, #11
 8000fcc:	d501      	bpl.n	8000fd2 <HAL_GPIO_Init+0x72>
 8000fce:	003e      	movs	r6, r7
 8000fd0:	432e      	orrs	r6, r5
 8000fd2:	4c3c      	ldr	r4, [pc, #240]	@ (80010c4 <HAL_GPIO_Init+0x164>)
 8000fd4:	6026      	str	r6, [r4, #0]
 8000fd6:	6867      	ldr	r7, [r4, #4]
 8000fd8:	003e      	movs	r6, r7
 8000fda:	4016      	ands	r6, r2
 8000fdc:	684c      	ldr	r4, [r1, #4]
 8000fde:	02a4      	lsls	r4, r4, #10
 8000fe0:	d501      	bpl.n	8000fe6 <HAL_GPIO_Init+0x86>
 8000fe2:	003e      	movs	r6, r7
 8000fe4:	432e      	orrs	r6, r5
 8000fe6:	4c37      	ldr	r4, [pc, #220]	@ (80010c4 <HAL_GPIO_Init+0x164>)
 8000fe8:	6066      	str	r6, [r4, #4]
 8000fea:	2684      	movs	r6, #132	@ 0x84
 8000fec:	59a7      	ldr	r7, [r4, r6]
 8000fee:	003e      	movs	r6, r7
 8000ff0:	4016      	ands	r6, r2
 8000ff2:	684c      	ldr	r4, [r1, #4]
 8000ff4:	03a4      	lsls	r4, r4, #14
 8000ff6:	d501      	bpl.n	8000ffc <HAL_GPIO_Init+0x9c>
 8000ff8:	003e      	movs	r6, r7
 8000ffa:	432e      	orrs	r6, r5
 8000ffc:	4c31      	ldr	r4, [pc, #196]	@ (80010c4 <HAL_GPIO_Init+0x164>)
 8000ffe:	2784      	movs	r7, #132	@ 0x84
 8001000:	51e6      	str	r6, [r4, r7]
 8001002:	2680      	movs	r6, #128	@ 0x80
 8001004:	59a6      	ldr	r6, [r4, r6]
 8001006:	4032      	ands	r2, r6
 8001008:	684c      	ldr	r4, [r1, #4]
 800100a:	03e4      	lsls	r4, r4, #15
 800100c:	d501      	bpl.n	8001012 <HAL_GPIO_Init+0xb2>
 800100e:	002a      	movs	r2, r5
 8001010:	4332      	orrs	r2, r6
 8001012:	4d2c      	ldr	r5, [pc, #176]	@ (80010c4 <HAL_GPIO_Init+0x164>)
 8001014:	2480      	movs	r4, #128	@ 0x80
 8001016:	512a      	str	r2, [r5, r4]
 8001018:	3301      	adds	r3, #1
 800101a:	680c      	ldr	r4, [r1, #0]
 800101c:	0022      	movs	r2, r4
 800101e:	40da      	lsrs	r2, r3
 8001020:	d04e      	beq.n	80010c0 <HAL_GPIO_Init+0x160>
 8001022:	2201      	movs	r2, #1
 8001024:	409a      	lsls	r2, r3
 8001026:	0025      	movs	r5, r4
 8001028:	4015      	ands	r5, r2
 800102a:	4214      	tst	r4, r2
 800102c:	d0f4      	beq.n	8001018 <HAL_GPIO_Init+0xb8>
 800102e:	684e      	ldr	r6, [r1, #4]
 8001030:	2403      	movs	r4, #3
 8001032:	4034      	ands	r4, r6
 8001034:	3c01      	subs	r4, #1
 8001036:	2c01      	cmp	r4, #1
 8001038:	d995      	bls.n	8000f66 <HAL_GPIO_Init+0x6>
 800103a:	684c      	ldr	r4, [r1, #4]
 800103c:	2203      	movs	r2, #3
 800103e:	4022      	ands	r2, r4
 8001040:	2a03      	cmp	r2, #3
 8001042:	d008      	beq.n	8001056 <HAL_GPIO_Init+0xf6>
 8001044:	68c4      	ldr	r4, [r0, #12]
 8001046:	005e      	lsls	r6, r3, #1
 8001048:	2203      	movs	r2, #3
 800104a:	40b2      	lsls	r2, r6
 800104c:	4394      	bics	r4, r2
 800104e:	688a      	ldr	r2, [r1, #8]
 8001050:	40b2      	lsls	r2, r6
 8001052:	4322      	orrs	r2, r4
 8001054:	60c2      	str	r2, [r0, #12]
 8001056:	684c      	ldr	r4, [r1, #4]
 8001058:	2203      	movs	r2, #3
 800105a:	4022      	ands	r2, r4
 800105c:	2a02      	cmp	r2, #2
 800105e:	d095      	beq.n	8000f8c <HAL_GPIO_Init+0x2c>
 8001060:	6804      	ldr	r4, [r0, #0]
 8001062:	005e      	lsls	r6, r3, #1
 8001064:	2203      	movs	r2, #3
 8001066:	0017      	movs	r7, r2
 8001068:	40b7      	lsls	r7, r6
 800106a:	43bc      	bics	r4, r7
 800106c:	684f      	ldr	r7, [r1, #4]
 800106e:	403a      	ands	r2, r7
 8001070:	40b2      	lsls	r2, r6
 8001072:	4322      	orrs	r2, r4
 8001074:	6002      	str	r2, [r0, #0]
 8001076:	684c      	ldr	r4, [r1, #4]
 8001078:	22c0      	movs	r2, #192	@ 0xc0
 800107a:	0292      	lsls	r2, r2, #10
 800107c:	4214      	tst	r4, r2
 800107e:	d0cb      	beq.n	8001018 <HAL_GPIO_Init+0xb8>
 8001080:	089a      	lsrs	r2, r3, #2
 8001082:	0014      	movs	r4, r2
 8001084:	3418      	adds	r4, #24
 8001086:	00a4      	lsls	r4, r4, #2
 8001088:	4e0e      	ldr	r6, [pc, #56]	@ (80010c4 <HAL_GPIO_Init+0x164>)
 800108a:	59a7      	ldr	r7, [r4, r6]
 800108c:	2403      	movs	r4, #3
 800108e:	401c      	ands	r4, r3
 8001090:	00e4      	lsls	r4, r4, #3
 8001092:	260f      	movs	r6, #15
 8001094:	40a6      	lsls	r6, r4
 8001096:	43b7      	bics	r7, r6
 8001098:	26a0      	movs	r6, #160	@ 0xa0
 800109a:	05f6      	lsls	r6, r6, #23
 800109c:	42b0      	cmp	r0, r6
 800109e:	d087      	beq.n	8000fb0 <HAL_GPIO_Init+0x50>
 80010a0:	4e09      	ldr	r6, [pc, #36]	@ (80010c8 <HAL_GPIO_Init+0x168>)
 80010a2:	42b0      	cmp	r0, r6
 80010a4:	d008      	beq.n	80010b8 <HAL_GPIO_Init+0x158>
 80010a6:	4e09      	ldr	r6, [pc, #36]	@ (80010cc <HAL_GPIO_Init+0x16c>)
 80010a8:	42b0      	cmp	r0, r6
 80010aa:	d007      	beq.n	80010bc <HAL_GPIO_Init+0x15c>
 80010ac:	4e08      	ldr	r6, [pc, #32]	@ (80010d0 <HAL_GPIO_Init+0x170>)
 80010ae:	42b0      	cmp	r0, r6
 80010b0:	d100      	bne.n	80010b4 <HAL_GPIO_Init+0x154>
 80010b2:	e77b      	b.n	8000fac <HAL_GPIO_Init+0x4c>
 80010b4:	2605      	movs	r6, #5
 80010b6:	e77c      	b.n	8000fb2 <HAL_GPIO_Init+0x52>
 80010b8:	2601      	movs	r6, #1
 80010ba:	e77a      	b.n	8000fb2 <HAL_GPIO_Init+0x52>
 80010bc:	2602      	movs	r6, #2
 80010be:	e778      	b.n	8000fb2 <HAL_GPIO_Init+0x52>
 80010c0:	bdf0      	pop	{r4, r5, r6, r7, pc}
 80010c2:	46c0      	nop			@ (mov r8, r8)
 80010c4:	40021800 	.word	0x40021800
 80010c8:	50000400 	.word	0x50000400
 80010cc:	50000800 	.word	0x50000800
 80010d0:	50000c00 	.word	0x50000c00

080010d4 <LL_GPIO_Init>:
 80010d4:	b5f0      	push	{r4, r5, r6, r7, lr}
 80010d6:	2200      	movs	r2, #0
 80010d8:	e016      	b.n	8001108 <LL_GPIO_Init+0x34>
 80010da:	690b      	ldr	r3, [r1, #16]
 80010dc:	469c      	mov	ip, r3
 80010de:	68c4      	ldr	r4, [r0, #12]
 80010e0:	002b      	movs	r3, r5
 80010e2:	436b      	muls	r3, r5
 80010e4:	005e      	lsls	r6, r3, #1
 80010e6:	18f6      	adds	r6, r6, r3
 80010e8:	43f7      	mvns	r7, r6
 80010ea:	43b4      	bics	r4, r6
 80010ec:	4666      	mov	r6, ip
 80010ee:	435e      	muls	r6, r3
 80010f0:	4334      	orrs	r4, r6
 80010f2:	60c4      	str	r4, [r0, #12]
 80010f4:	684c      	ldr	r4, [r1, #4]
 80010f6:	2c02      	cmp	r4, #2
 80010f8:	d025      	beq.n	8001146 <LL_GPIO_Init+0x72>
 80010fa:	684d      	ldr	r5, [r1, #4]
 80010fc:	6804      	ldr	r4, [r0, #0]
 80010fe:	403c      	ands	r4, r7
 8001100:	436b      	muls	r3, r5
 8001102:	4323      	orrs	r3, r4
 8001104:	6003      	str	r3, [r0, #0]
 8001106:	3201      	adds	r2, #1
 8001108:	680c      	ldr	r4, [r1, #0]
 800110a:	0023      	movs	r3, r4
 800110c:	40d3      	lsrs	r3, r2
 800110e:	d03a      	beq.n	8001186 <LL_GPIO_Init+0xb2>
 8001110:	2301      	movs	r3, #1
 8001112:	4093      	lsls	r3, r2
 8001114:	0025      	movs	r5, r4
 8001116:	401d      	ands	r5, r3
 8001118:	421c      	tst	r4, r3
 800111a:	d0f4      	beq.n	8001106 <LL_GPIO_Init+0x32>
 800111c:	684b      	ldr	r3, [r1, #4]
 800111e:	3b01      	subs	r3, #1
 8001120:	2b01      	cmp	r3, #1
 8001122:	d8da      	bhi.n	80010da <LL_GPIO_Init+0x6>
 8001124:	688f      	ldr	r7, [r1, #8]
 8001126:	6883      	ldr	r3, [r0, #8]
 8001128:	002c      	movs	r4, r5
 800112a:	436c      	muls	r4, r5
 800112c:	0066      	lsls	r6, r4, #1
 800112e:	1936      	adds	r6, r6, r4
 8001130:	43b3      	bics	r3, r6
 8001132:	437c      	muls	r4, r7
 8001134:	4323      	orrs	r3, r4
 8001136:	6083      	str	r3, [r0, #8]
 8001138:	68cc      	ldr	r4, [r1, #12]
 800113a:	6843      	ldr	r3, [r0, #4]
 800113c:	43ab      	bics	r3, r5
 800113e:	436c      	muls	r4, r5
 8001140:	4323      	orrs	r3, r4
 8001142:	6043      	str	r3, [r0, #4]
 8001144:	e7c9      	b.n	80010da <LL_GPIO_Init+0x6>
 8001146:	2dff      	cmp	r5, #255	@ 0xff
 8001148:	d80d      	bhi.n	8001166 <LL_GPIO_Init+0x92>
 800114a:	694c      	ldr	r4, [r1, #20]
 800114c:	46a4      	mov	ip, r4
 800114e:	6a06      	ldr	r6, [r0, #32]
 8001150:	001c      	movs	r4, r3
 8001152:	436c      	muls	r4, r5
 8001154:	436c      	muls	r4, r5
 8001156:	0125      	lsls	r5, r4, #4
 8001158:	1b2d      	subs	r5, r5, r4
 800115a:	43ae      	bics	r6, r5
 800115c:	4665      	mov	r5, ip
 800115e:	436c      	muls	r4, r5
 8001160:	4334      	orrs	r4, r6
 8001162:	6204      	str	r4, [r0, #32]
 8001164:	e7c9      	b.n	80010fa <LL_GPIO_Init+0x26>
 8001166:	694c      	ldr	r4, [r1, #20]
 8001168:	46a4      	mov	ip, r4
 800116a:	6a46      	ldr	r6, [r0, #36]	@ 0x24
 800116c:	0a2d      	lsrs	r5, r5, #8
 800116e:	002c      	movs	r4, r5
 8001170:	436c      	muls	r4, r5
 8001172:	436c      	muls	r4, r5
 8001174:	436c      	muls	r4, r5
 8001176:	0125      	lsls	r5, r4, #4
 8001178:	1b2d      	subs	r5, r5, r4
 800117a:	43ae      	bics	r6, r5
 800117c:	4665      	mov	r5, ip
 800117e:	436c      	muls	r4, r5
 8001180:	4334      	orrs	r4, r6
 8001182:	6244      	str	r4, [r0, #36]	@ 0x24
 8001184:	e7b9      	b.n	80010fa <LL_GPIO_Init+0x26>
 8001186:	2000      	movs	r0, #0
 8001188:	bdf0      	pop	{r4, r5, r6, r7, pc}
	...

0800118c <RCC_GetHCLKClockFreq>:
 800118c:	4b05      	ldr	r3, [pc, #20]	@ (80011a4 <RCC_GetHCLKClockFreq+0x18>)
 800118e:	689a      	ldr	r2, [r3, #8]
 8001190:	0a12      	lsrs	r2, r2, #8
 8001192:	230f      	movs	r3, #15
 8001194:	4013      	ands	r3, r2
 8001196:	4a04      	ldr	r2, [pc, #16]	@ (80011a8 <RCC_GetHCLKClockFreq+0x1c>)
 8001198:	009b      	lsls	r3, r3, #2
 800119a:	589a      	ldr	r2, [r3, r2]
 800119c:	231f      	movs	r3, #31
 800119e:	4013      	ands	r3, r2
 80011a0:	40d8      	lsrs	r0, r3
 80011a2:	4770      	bx	lr
 80011a4:	40021000 	.word	0x40021000
 80011a8:	080015b8 	.word	0x080015b8

080011ac <RCC_GetPCLK1ClockFreq>:
 80011ac:	4b05      	ldr	r3, [pc, #20]	@ (80011c4 <RCC_GetPCLK1ClockFreq+0x18>)
 80011ae:	689a      	ldr	r2, [r3, #8]
 80011b0:	0b12      	lsrs	r2, r2, #12
 80011b2:	2307      	movs	r3, #7
 80011b4:	4013      	ands	r3, r2
 80011b6:	4a04      	ldr	r2, [pc, #16]	@ (80011c8 <RCC_GetPCLK1ClockFreq+0x1c>)
 80011b8:	009b      	lsls	r3, r3, #2
 80011ba:	589a      	ldr	r2, [r3, r2]
 80011bc:	231f      	movs	r3, #31
 80011be:	4013      	ands	r3, r2
 80011c0:	40d8      	lsrs	r0, r3
 80011c2:	4770      	bx	lr
 80011c4:	40021000 	.word	0x40021000
 80011c8:	08001598 	.word	0x08001598

080011cc <RCC_PLL_GetFreqDomain_SYS>:
 80011cc:	b510      	push	{r4, lr}
 80011ce:	4b0e      	ldr	r3, [pc, #56]	@ (8001208 <RCC_PLL_GetFreqDomain_SYS+0x3c>)
 80011d0:	68da      	ldr	r2, [r3, #12]
 80011d2:	2303      	movs	r3, #3
 80011d4:	4013      	ands	r3, r2
 80011d6:	2b03      	cmp	r3, #3
 80011d8:	d013      	beq.n	8001202 <RCC_PLL_GetFreqDomain_SYS+0x36>
 80011da:	4a0c      	ldr	r2, [pc, #48]	@ (800120c <RCC_PLL_GetFreqDomain_SYS+0x40>)
 80011dc:	4c0a      	ldr	r4, [pc, #40]	@ (8001208 <RCC_PLL_GetFreqDomain_SYS+0x3c>)
 80011de:	68e3      	ldr	r3, [r4, #12]
 80011e0:	0a1b      	lsrs	r3, r3, #8
 80011e2:	207f      	movs	r0, #127	@ 0x7f
 80011e4:	4018      	ands	r0, r3
 80011e6:	4350      	muls	r0, r2
 80011e8:	68e3      	ldr	r3, [r4, #12]
 80011ea:	091b      	lsrs	r3, r3, #4
 80011ec:	2107      	movs	r1, #7
 80011ee:	4019      	ands	r1, r3
 80011f0:	3101      	adds	r1, #1
 80011f2:	f7fe ff89 	bl	8000108 <__udivsi3>
 80011f6:	68e1      	ldr	r1, [r4, #12]
 80011f8:	0f49      	lsrs	r1, r1, #29
 80011fa:	3101      	adds	r1, #1
 80011fc:	f7fe ff84 	bl	8000108 <__udivsi3>
 8001200:	bd10      	pop	{r4, pc}
 8001202:	4a03      	ldr	r2, [pc, #12]	@ (8001210 <RCC_PLL_GetFreqDomain_SYS+0x44>)
 8001204:	e7ea      	b.n	80011dc <RCC_PLL_GetFreqDomain_SYS+0x10>
 8001206:	46c0      	nop			@ (mov r8, r8)
 8001208:	40021000 	.word	0x40021000
 800120c:	00f42400 	.word	0x00f42400
 8001210:	007a1200 	.word	0x007a1200

08001214 <RCC_GetSystemClockFreq>:
 8001214:	b510      	push	{r4, lr}
 8001216:	4b0a      	ldr	r3, [pc, #40]	@ (8001240 <RCC_GetSystemClockFreq+0x2c>)
 8001218:	689a      	ldr	r2, [r3, #8]
 800121a:	2338      	movs	r3, #56	@ 0x38
 800121c:	4013      	ands	r3, r2
 800121e:	2b08      	cmp	r3, #8
 8001220:	d00c      	beq.n	800123c <RCC_GetSystemClockFreq+0x28>
 8001222:	2b10      	cmp	r3, #16
 8001224:	d102      	bne.n	800122c <RCC_GetSystemClockFreq+0x18>
 8001226:	f7ff ffd1 	bl	80011cc <RCC_PLL_GetFreqDomain_SYS>
 800122a:	bd10      	pop	{r4, pc}
 800122c:	4b04      	ldr	r3, [pc, #16]	@ (8001240 <RCC_GetSystemClockFreq+0x2c>)
 800122e:	681a      	ldr	r2, [r3, #0]
 8001230:	0ad2      	lsrs	r2, r2, #11
 8001232:	2307      	movs	r3, #7
 8001234:	4013      	ands	r3, r2
 8001236:	4803      	ldr	r0, [pc, #12]	@ (8001244 <RCC_GetSystemClockFreq+0x30>)
 8001238:	40d8      	lsrs	r0, r3
 800123a:	e7f6      	b.n	800122a <RCC_GetSystemClockFreq+0x16>
 800123c:	4802      	ldr	r0, [pc, #8]	@ (8001248 <RCC_GetSystemClockFreq+0x34>)
 800123e:	e7f4      	b.n	800122a <RCC_GetSystemClockFreq+0x16>
 8001240:	40021000 	.word	0x40021000
 8001244:	00f42400 	.word	0x00f42400
 8001248:	007a1200 	.word	0x007a1200

0800124c <LL_RCC_DeInit>:
 800124c:	4a23      	ldr	r2, [pc, #140]	@ (80012dc <LL_RCC_DeInit+0x90>)
 800124e:	6811      	ldr	r1, [r2, #0]
 8001250:	2380      	movs	r3, #128	@ 0x80
 8001252:	005b      	lsls	r3, r3, #1
 8001254:	430b      	orrs	r3, r1
 8001256:	6013      	str	r3, [r2, #0]
 8001258:	e001      	b.n	800125e <LL_RCC_DeInit+0x12>
 800125a:	2b01      	cmp	r3, #1
 800125c:	d009      	beq.n	8001272 <LL_RCC_DeInit+0x26>
 800125e:	4b1f      	ldr	r3, [pc, #124]	@ (80012dc <LL_RCC_DeInit+0x90>)
 8001260:	6819      	ldr	r1, [r3, #0]
 8001262:	2280      	movs	r2, #128	@ 0x80
 8001264:	00d2      	lsls	r2, r2, #3
 8001266:	000b      	movs	r3, r1
 8001268:	4013      	ands	r3, r2
 800126a:	4211      	tst	r1, r2
 800126c:	d0f5      	beq.n	800125a <LL_RCC_DeInit+0xe>
 800126e:	2301      	movs	r3, #1
 8001270:	e7f3      	b.n	800125a <LL_RCC_DeInit+0xe>
 8001272:	4a1a      	ldr	r2, [pc, #104]	@ (80012dc <LL_RCC_DeInit+0x90>)
 8001274:	6850      	ldr	r0, [r2, #4]
 8001276:	491a      	ldr	r1, [pc, #104]	@ (80012e0 <LL_RCC_DeInit+0x94>)
 8001278:	4008      	ands	r0, r1
 800127a:	2180      	movs	r1, #128	@ 0x80
 800127c:	01c9      	lsls	r1, r1, #7
 800127e:	4301      	orrs	r1, r0
 8001280:	6051      	str	r1, [r2, #4]
 8001282:	2100      	movs	r1, #0
 8001284:	6091      	str	r1, [r2, #8]
 8001286:	3101      	adds	r1, #1
 8001288:	31ff      	adds	r1, #255	@ 0xff
 800128a:	6011      	str	r1, [r2, #0]
 800128c:	e001      	b.n	8001292 <LL_RCC_DeInit+0x46>
 800128e:	2800      	cmp	r0, #0
 8001290:	d009      	beq.n	80012a6 <LL_RCC_DeInit+0x5a>
 8001292:	4a12      	ldr	r2, [pc, #72]	@ (80012dc <LL_RCC_DeInit+0x90>)
 8001294:	6811      	ldr	r1, [r2, #0]
 8001296:	2280      	movs	r2, #128	@ 0x80
 8001298:	0292      	lsls	r2, r2, #10
 800129a:	0008      	movs	r0, r1
 800129c:	4010      	ands	r0, r2
 800129e:	4211      	tst	r1, r2
 80012a0:	d0f5      	beq.n	800128e <LL_RCC_DeInit+0x42>
 80012a2:	0018      	movs	r0, r3
 80012a4:	e7f3      	b.n	800128e <LL_RCC_DeInit+0x42>
 80012a6:	4a0d      	ldr	r2, [pc, #52]	@ (80012dc <LL_RCC_DeInit+0x90>)
 80012a8:	2180      	movs	r1, #128	@ 0x80
 80012aa:	0049      	lsls	r1, r1, #1
 80012ac:	6011      	str	r1, [r2, #0]
 80012ae:	e001      	b.n	80012b4 <LL_RCC_DeInit+0x68>
 80012b0:	2800      	cmp	r0, #0
 80012b2:	d009      	beq.n	80012c8 <LL_RCC_DeInit+0x7c>
 80012b4:	4a09      	ldr	r2, [pc, #36]	@ (80012dc <LL_RCC_DeInit+0x90>)
 80012b6:	6811      	ldr	r1, [r2, #0]
 80012b8:	2280      	movs	r2, #128	@ 0x80
 80012ba:	0492      	lsls	r2, r2, #18
 80012bc:	0008      	movs	r0, r1
 80012be:	4010      	ands	r0, r2
 80012c0:	4211      	tst	r1, r2
 80012c2:	d0f5      	beq.n	80012b0 <LL_RCC_DeInit+0x64>
 80012c4:	0018      	movs	r0, r3
 80012c6:	e7f3      	b.n	80012b0 <LL_RCC_DeInit+0x64>
 80012c8:	4b04      	ldr	r3, [pc, #16]	@ (80012dc <LL_RCC_DeInit+0x90>)
 80012ca:	2280      	movs	r2, #128	@ 0x80
 80012cc:	0152      	lsls	r2, r2, #5
 80012ce:	60da      	str	r2, [r3, #12]
 80012d0:	2200      	movs	r2, #0
 80012d2:	619a      	str	r2, [r3, #24]
 80012d4:	3a01      	subs	r2, #1
 80012d6:	621a      	str	r2, [r3, #32]
 80012d8:	4770      	bx	lr
 80012da:	46c0      	nop			@ (mov r8, r8)
 80012dc:	40021000 	.word	0x40021000
 80012e0:	ffff80ff 	.word	0xffff80ff

080012e4 <LL_RCC_GetSystemClocksFreq>:
 80012e4:	b510      	push	{r4, lr}
 80012e6:	0004      	movs	r4, r0
 80012e8:	f7ff ff94 	bl	8001214 <RCC_GetSystemClockFreq>
 80012ec:	6020      	str	r0, [r4, #0]
 80012ee:	f7ff ff4d 	bl	800118c <RCC_GetHCLKClockFreq>
 80012f2:	6060      	str	r0, [r4, #4]
 80012f4:	f7ff ff5a 	bl	80011ac <RCC_GetPCLK1ClockFreq>
 80012f8:	60a0      	str	r0, [r4, #8]
 80012fa:	bd10      	pop	{r4, pc}

080012fc <LL_RCC_GetUSARTClockFreq>:
 80012fc:	b510      	push	{r4, lr}
 80012fe:	2803      	cmp	r0, #3
 8001300:	d001      	beq.n	8001306 <LL_RCC_GetUSARTClockFreq+0xa>
 8001302:	2000      	movs	r0, #0
 8001304:	bd10      	pop	{r4, pc}
 8001306:	4b16      	ldr	r3, [pc, #88]	@ (8001360 <LL_RCC_GetUSARTClockFreq+0x64>)
 8001308:	6d5b      	ldr	r3, [r3, #84]	@ 0x54
 800130a:	4003      	ands	r3, r0
 800130c:	0400      	lsls	r0, r0, #16
 800130e:	4303      	orrs	r3, r0
 8001310:	4a14      	ldr	r2, [pc, #80]	@ (8001364 <LL_RCC_GetUSARTClockFreq+0x68>)
 8001312:	4293      	cmp	r3, r2
 8001314:	d00f      	beq.n	8001336 <LL_RCC_GetUSARTClockFreq+0x3a>
 8001316:	4a14      	ldr	r2, [pc, #80]	@ (8001368 <LL_RCC_GetUSARTClockFreq+0x6c>)
 8001318:	4293      	cmp	r3, r2
 800131a:	d016      	beq.n	800134a <LL_RCC_GetUSARTClockFreq+0x4e>
 800131c:	4a13      	ldr	r2, [pc, #76]	@ (800136c <LL_RCC_GetUSARTClockFreq+0x70>)
 800131e:	4293      	cmp	r3, r2
 8001320:	d006      	beq.n	8001330 <LL_RCC_GetUSARTClockFreq+0x34>
 8001322:	f7ff ff77 	bl	8001214 <RCC_GetSystemClockFreq>
 8001326:	f7ff ff31 	bl	800118c <RCC_GetHCLKClockFreq>
 800132a:	f7ff ff3f 	bl	80011ac <RCC_GetPCLK1ClockFreq>
 800132e:	e7e9      	b.n	8001304 <LL_RCC_GetUSARTClockFreq+0x8>
 8001330:	f7ff ff70 	bl	8001214 <RCC_GetSystemClockFreq>
 8001334:	e7e6      	b.n	8001304 <LL_RCC_GetUSARTClockFreq+0x8>
 8001336:	4b0a      	ldr	r3, [pc, #40]	@ (8001360 <LL_RCC_GetUSARTClockFreq+0x64>)
 8001338:	681a      	ldr	r2, [r3, #0]
 800133a:	2380      	movs	r3, #128	@ 0x80
 800133c:	00db      	lsls	r3, r3, #3
 800133e:	0010      	movs	r0, r2
 8001340:	4018      	ands	r0, r3
 8001342:	421a      	tst	r2, r3
 8001344:	d0de      	beq.n	8001304 <LL_RCC_GetUSARTClockFreq+0x8>
 8001346:	480a      	ldr	r0, [pc, #40]	@ (8001370 <LL_RCC_GetUSARTClockFreq+0x74>)
 8001348:	e7dc      	b.n	8001304 <LL_RCC_GetUSARTClockFreq+0x8>
 800134a:	4b05      	ldr	r3, [pc, #20]	@ (8001360 <LL_RCC_GetUSARTClockFreq+0x64>)
 800134c:	6ddb      	ldr	r3, [r3, #92]	@ 0x5c
 800134e:	2202      	movs	r2, #2
 8001350:	0010      	movs	r0, r2
 8001352:	4018      	ands	r0, r3
 8001354:	421a      	tst	r2, r3
 8001356:	d0d5      	beq.n	8001304 <LL_RCC_GetUSARTClockFreq+0x8>
 8001358:	2080      	movs	r0, #128	@ 0x80
 800135a:	0200      	lsls	r0, r0, #8
 800135c:	e7d2      	b.n	8001304 <LL_RCC_GetUSARTClockFreq+0x8>
 800135e:	46c0      	nop			@ (mov r8, r8)
 8001360:	40021000 	.word	0x40021000
 8001364:	00030002 	.word	0x00030002
 8001368:	00030003 	.word	0x00030003
 800136c:	00030001 	.word	0x00030001
 8001370:	00f42400 	.word	0x00f42400

08001374 <LL_USART_SetBaudRate>:
 8001374:	b510      	push	{r4, lr}
 8001376:	0004      	movs	r4, r0
 8001378:	0008      	movs	r0, r1
 800137a:	2a0b      	cmp	r2, #11
 800137c:	d816      	bhi.n	80013ac <LL_USART_SetBaudRate+0x38>
 800137e:	9902      	ldr	r1, [sp, #8]
 8001380:	2900      	cmp	r1, #0
 8001382:	d013      	beq.n	80013ac <LL_USART_SetBaudRate+0x38>
 8001384:	2180      	movs	r1, #128	@ 0x80
 8001386:	0209      	lsls	r1, r1, #8
 8001388:	428b      	cmp	r3, r1
 800138a:	d010      	beq.n	80013ae <LL_USART_SetBaudRate+0x3a>
 800138c:	23ff      	movs	r3, #255	@ 0xff
 800138e:	4013      	ands	r3, r2
 8001390:	4a12      	ldr	r2, [pc, #72]	@ (80013dc <LL_USART_SetBaudRate+0x68>)
 8001392:	009b      	lsls	r3, r3, #2
 8001394:	5899      	ldr	r1, [r3, r2]
 8001396:	f7fe feb7 	bl	8000108 <__udivsi3>
 800139a:	9b02      	ldr	r3, [sp, #8]
 800139c:	085b      	lsrs	r3, r3, #1
 800139e:	18c0      	adds	r0, r0, r3
 80013a0:	9902      	ldr	r1, [sp, #8]
 80013a2:	f7fe feb1 	bl	8000108 <__udivsi3>
 80013a6:	0400      	lsls	r0, r0, #16
 80013a8:	0c00      	lsrs	r0, r0, #16
 80013aa:	60e0      	str	r0, [r4, #12]
 80013ac:	bd10      	pop	{r4, pc}
 80013ae:	23ff      	movs	r3, #255	@ 0xff
 80013b0:	4013      	ands	r3, r2
 80013b2:	4a0a      	ldr	r2, [pc, #40]	@ (80013dc <LL_USART_SetBaudRate+0x68>)
 80013b4:	009b      	lsls	r3, r3, #2
 80013b6:	5899      	ldr	r1, [r3, r2]
 80013b8:	f7fe fea6 	bl	8000108 <__udivsi3>
 80013bc:	0040      	lsls	r0, r0, #1
 80013be:	9b02      	ldr	r3, [sp, #8]
 80013c0:	085b      	lsrs	r3, r3, #1
 80013c2:	18c0      	adds	r0, r0, r3
 80013c4:	9902      	ldr	r1, [sp, #8]
 80013c6:	f7fe fe9f 	bl	8000108 <__udivsi3>
 80013ca:	4a05      	ldr	r2, [pc, #20]	@ (80013e0 <LL_USART_SetBaudRate+0x6c>)
 80013cc:	4002      	ands	r2, r0
 80013ce:	0400      	lsls	r0, r0, #16
 80013d0:	0c40      	lsrs	r0, r0, #17
 80013d2:	2307      	movs	r3, #7
 80013d4:	4003      	ands	r3, r0
 80013d6:	4313      	orrs	r3, r2
 80013d8:	60e3      	str	r3, [r4, #12]
 80013da:	e7e7      	b.n	80013ac <LL_USART_SetBaudRate+0x38>
 80013dc:	080015f8 	.word	0x080015f8
 80013e0:	0000fff0 	.word	0x0000fff0

080013e4 <LL_USART_DeInit>:
 80013e4:	4b0f      	ldr	r3, [pc, #60]	@ (8001424 <LL_USART_DeInit+0x40>)
 80013e6:	4298      	cmp	r0, r3
 80013e8:	d004      	beq.n	80013f4 <LL_USART_DeInit+0x10>
 80013ea:	4b0f      	ldr	r3, [pc, #60]	@ (8001428 <LL_USART_DeInit+0x44>)
 80013ec:	4298      	cmp	r0, r3
 80013ee:	d00d      	beq.n	800140c <LL_USART_DeInit+0x28>
 80013f0:	2001      	movs	r0, #1
 80013f2:	4770      	bx	lr
 80013f4:	4b0d      	ldr	r3, [pc, #52]	@ (800142c <LL_USART_DeInit+0x48>)
 80013f6:	6b19      	ldr	r1, [r3, #48]	@ 0x30
 80013f8:	2280      	movs	r2, #128	@ 0x80
 80013fa:	01d2      	lsls	r2, r2, #7
 80013fc:	430a      	orrs	r2, r1
 80013fe:	631a      	str	r2, [r3, #48]	@ 0x30
 8001400:	6b1a      	ldr	r2, [r3, #48]	@ 0x30
 8001402:	490b      	ldr	r1, [pc, #44]	@ (8001430 <LL_USART_DeInit+0x4c>)
 8001404:	400a      	ands	r2, r1
 8001406:	631a      	str	r2, [r3, #48]	@ 0x30
 8001408:	2000      	movs	r0, #0
 800140a:	e7f2      	b.n	80013f2 <LL_USART_DeInit+0xe>
 800140c:	4b07      	ldr	r3, [pc, #28]	@ (800142c <LL_USART_DeInit+0x48>)
 800140e:	6ad9      	ldr	r1, [r3, #44]	@ 0x2c
 8001410:	2280      	movs	r2, #128	@ 0x80
 8001412:	0292      	lsls	r2, r2, #10
 8001414:	430a      	orrs	r2, r1
 8001416:	62da      	str	r2, [r3, #44]	@ 0x2c
 8001418:	6ada      	ldr	r2, [r3, #44]	@ 0x2c
 800141a:	4906      	ldr	r1, [pc, #24]	@ (8001434 <LL_USART_DeInit+0x50>)
 800141c:	400a      	ands	r2, r1
 800141e:	62da      	str	r2, [r3, #44]	@ 0x2c
 8001420:	2000      	movs	r0, #0
 8001422:	e7e6      	b.n	80013f2 <LL_USART_DeInit+0xe>
 8001424:	40013800 	.word	0x40013800
 8001428:	40004400 	.word	0x40004400
 800142c:	40021000 	.word	0x40021000
 8001430:	ffffbfff 	.word	0xffffbfff
 8001434:	fffdffff 	.word	0xfffdffff

08001438 <LL_USART_Init>:
 8001438:	b530      	push	{r4, r5, lr}
 800143a:	b087      	sub	sp, #28
 800143c:	0004      	movs	r4, r0
 800143e:	000d      	movs	r5, r1
 8001440:	6803      	ldr	r3, [r0, #0]
 8001442:	07db      	lsls	r3, r3, #31
 8001444:	d442      	bmi.n	80014cc <LL_USART_Init+0x94>
 8001446:	6803      	ldr	r3, [r0, #0]
 8001448:	4a21      	ldr	r2, [pc, #132]	@ (80014d0 <LL_USART_Init+0x98>)
 800144a:	401a      	ands	r2, r3
 800144c:	688b      	ldr	r3, [r1, #8]
 800144e:	6909      	ldr	r1, [r1, #16]
 8001450:	430b      	orrs	r3, r1
 8001452:	6969      	ldr	r1, [r5, #20]
 8001454:	430b      	orrs	r3, r1
 8001456:	69e9      	ldr	r1, [r5, #28]
 8001458:	430b      	orrs	r3, r1
 800145a:	4313      	orrs	r3, r2
 800145c:	6003      	str	r3, [r0, #0]
 800145e:	68eb      	ldr	r3, [r5, #12]
 8001460:	6842      	ldr	r2, [r0, #4]
 8001462:	491c      	ldr	r1, [pc, #112]	@ (80014d4 <LL_USART_Init+0x9c>)
 8001464:	400a      	ands	r2, r1
 8001466:	4313      	orrs	r3, r2
 8001468:	6043      	str	r3, [r0, #4]
 800146a:	69ab      	ldr	r3, [r5, #24]
 800146c:	6882      	ldr	r2, [r0, #8]
 800146e:	491a      	ldr	r1, [pc, #104]	@ (80014d8 <LL_USART_Init+0xa0>)
 8001470:	400a      	ands	r2, r1
 8001472:	4313      	orrs	r3, r2
 8001474:	6083      	str	r3, [r0, #8]
 8001476:	4b19      	ldr	r3, [pc, #100]	@ (80014dc <LL_USART_Init+0xa4>)
 8001478:	4298      	cmp	r0, r3
 800147a:	d00d      	beq.n	8001498 <LL_USART_Init+0x60>
 800147c:	4b18      	ldr	r3, [pc, #96]	@ (80014e0 <LL_USART_Init+0xa8>)
 800147e:	4298      	cmp	r0, r3
 8001480:	d015      	beq.n	80014ae <LL_USART_Init+0x76>
 8001482:	2001      	movs	r0, #1
 8001484:	682b      	ldr	r3, [r5, #0]
 8001486:	6ae2      	ldr	r2, [r4, #44]	@ 0x2c
 8001488:	210f      	movs	r1, #15
 800148a:	438a      	bics	r2, r1
 800148c:	041b      	lsls	r3, r3, #16
 800148e:	0c1b      	lsrs	r3, r3, #16
 8001490:	4313      	orrs	r3, r2
 8001492:	62e3      	str	r3, [r4, #44]	@ 0x2c
 8001494:	b007      	add	sp, #28
 8001496:	bd30      	pop	{r4, r5, pc}
 8001498:	2003      	movs	r0, #3
 800149a:	f7ff ff2f 	bl	80012fc <LL_RCC_GetUSARTClockFreq>
 800149e:	0001      	movs	r1, r0
 80014a0:	2900      	cmp	r1, #0
 80014a2:	d011      	beq.n	80014c8 <LL_USART_Init+0x90>
 80014a4:	6868      	ldr	r0, [r5, #4]
 80014a6:	2800      	cmp	r0, #0
 80014a8:	d106      	bne.n	80014b8 <LL_USART_Init+0x80>
 80014aa:	2001      	movs	r0, #1
 80014ac:	e7ea      	b.n	8001484 <LL_USART_Init+0x4c>
 80014ae:	a803      	add	r0, sp, #12
 80014b0:	f7ff ff18 	bl	80012e4 <LL_RCC_GetSystemClocksFreq>
 80014b4:	9905      	ldr	r1, [sp, #20]
 80014b6:	e7f3      	b.n	80014a0 <LL_USART_Init+0x68>
 80014b8:	682a      	ldr	r2, [r5, #0]
 80014ba:	69eb      	ldr	r3, [r5, #28]
 80014bc:	9000      	str	r0, [sp, #0]
 80014be:	0020      	movs	r0, r4
 80014c0:	f7ff ff58 	bl	8001374 <LL_USART_SetBaudRate>
 80014c4:	2000      	movs	r0, #0
 80014c6:	e7dd      	b.n	8001484 <LL_USART_Init+0x4c>
 80014c8:	2001      	movs	r0, #1
 80014ca:	e7db      	b.n	8001484 <LL_USART_Init+0x4c>
 80014cc:	2001      	movs	r0, #1
 80014ce:	e7e1      	b.n	8001494 <LL_USART_Init+0x5c>
 80014d0:	efff69f3 	.word	0xefff69f3
 80014d4:	ffffcfff 	.word	0xffffcfff
 80014d8:	fffffcff 	.word	0xfffffcff
 80014dc:	40013800 	.word	0x40013800
 80014e0:	40004400 	.word	0x40004400

080014e4 <LL_mDelay>:
 80014e4:	b082      	sub	sp, #8
 80014e6:	4b08      	ldr	r3, [pc, #32]	@ (8001508 <LL_mDelay+0x24>)
 80014e8:	681b      	ldr	r3, [r3, #0]
 80014ea:	9301      	str	r3, [sp, #4]
 80014ec:	9b01      	ldr	r3, [sp, #4]
 80014ee:	1c43      	adds	r3, r0, #1
 80014f0:	d000      	beq.n	80014f4 <LL_mDelay+0x10>
 80014f2:	3001      	adds	r0, #1
 80014f4:	2800      	cmp	r0, #0
 80014f6:	d005      	beq.n	8001504 <LL_mDelay+0x20>
 80014f8:	4b03      	ldr	r3, [pc, #12]	@ (8001508 <LL_mDelay+0x24>)
 80014fa:	681b      	ldr	r3, [r3, #0]
 80014fc:	03db      	lsls	r3, r3, #15
 80014fe:	d5f9      	bpl.n	80014f4 <LL_mDelay+0x10>
 8001500:	3801      	subs	r0, #1
 8001502:	e7f7      	b.n	80014f4 <LL_mDelay+0x10>
 8001504:	b002      	add	sp, #8
 8001506:	4770      	bx	lr
 8001508:	e000e010 	.word	0xe000e010

0800150c <LL_SetSystemCoreClock>:
 800150c:	4b01      	ldr	r3, [pc, #4]	@ (8001514 <LL_SetSystemCoreClock+0x8>)
 800150e:	6018      	str	r0, [r3, #0]
 8001510:	4770      	bx	lr
 8001512:	46c0      	nop			@ (mov r8, r8)
 8001514:	20000000 	.word	0x20000000

08001518 <memset>:
 8001518:	0003      	movs	r3, r0
 800151a:	1882      	adds	r2, r0, r2
 800151c:	4293      	cmp	r3, r2
 800151e:	d100      	bne.n	8001522 <memset+0xa>
 8001520:	4770      	bx	lr
 8001522:	7019      	strb	r1, [r3, #0]
 8001524:	3301      	adds	r3, #1
 8001526:	e7f9      	b.n	800151c <memset+0x4>

08001528 <__libc_init_array>:
 8001528:	b570      	push	{r4, r5, r6, lr}
 800152a:	2600      	movs	r6, #0
 800152c:	4c0c      	ldr	r4, [pc, #48]	@ (8001560 <__libc_init_array+0x38>)
 800152e:	4d0d      	ldr	r5, [pc, #52]	@ (8001564 <__libc_init_array+0x3c>)
 8001530:	1b64      	subs	r4, r4, r5
 8001532:	10a4      	asrs	r4, r4, #2
 8001534:	42a6      	cmp	r6, r4
 8001536:	d109      	bne.n	800154c <__libc_init_array+0x24>
 8001538:	2600      	movs	r6, #0
 800153a:	f000 f819 	bl	8001570 <_init>
 800153e:	4c0a      	ldr	r4, [pc, #40]	@ (8001568 <__libc_init_array+0x40>)
 8001540:	4d0a      	ldr	r5, [pc, #40]	@ (800156c <__libc_init_array+0x44>)
 8001542:	1b64      	subs	r4, r4, r5
 8001544:	10a4      	asrs	r4, r4, #2
 8001546:	42a6      	cmp	r6, r4
 8001548:	d105      	bne.n	8001556 <__libc_init_array+0x2e>
 800154a:	bd70      	pop	{r4, r5, r6, pc}
 800154c:	00b3      	lsls	r3, r6, #2
 800154e:	58eb      	ldr	r3, [r5, r3]
 8001550:	4798      	blx	r3
 8001552:	3601      	adds	r6, #1
 8001554:	e7ee      	b.n	8001534 <__libc_init_array+0xc>
 8001556:	00b3      	lsls	r3, r6, #2
 8001558:	58eb      	ldr	r3, [r5, r3]
 800155a:	4798      	blx	r3
 800155c:	3601      	adds	r6, #1
 800155e:	e7f2      	b.n	8001546 <__libc_init_array+0x1e>
 8001560:	08001628 	.word	0x08001628
 8001564:	08001628 	.word	0x08001628
 8001568:	0800162c 	.word	0x0800162c
 800156c:	08001628 	.word	0x08001628

08001570 <_init>:
 8001570:	b5f8      	push	{r3, r4, r5, r6, r7, lr}
 8001572:	46c0      	nop			@ (mov r8, r8)
 8001574:	bcf8      	pop	{r3, r4, r5, r6, r7}
 8001576:	bc08      	pop	{r3}
 8001578:	469e      	mov	lr, r3
 800157a:	4770      	bx	lr

0800157c <_fini>:
 800157c:	b5f8      	push	{r3, r4, r5, r6, r7, lr}
 800157e:	46c0      	nop			@ (mov r8, r8)
 8001580:	bcf8      	pop	{r3, r4, r5, r6, r7}
 8001582:	bc08      	pop	{r3}
 8001584:	469e      	mov	lr, r3
 8001586:	4770      	bx	lr

08001588 <__FLASH_Program_Fast_veneer>:
 8001588:	b401      	push	{r0}
 800158a:	4802      	ldr	r0, [pc, #8]	@ (8001594 <__FLASH_Program_Fast_veneer+0xc>)
 800158c:	4684      	mov	ip, r0
 800158e:	bc01      	pop	{r0}
 8001590:	4760      	bx	ip
 8001592:	bf00      	nop
 8001594:	2000000d 	.word	0x2000000d

Disassembly of section .data:

20000000 <SystemCoreClock>:
20000000:	00f42400                                .$..

20000004 <uwTickFreq>:
20000004:	00000001                                ....

20000008 <uwTickPrio>:
20000008:	00000004                                ....

2000000c <FLASH_Program_Fast>:
2000000c:	b510      	push	{r4, lr}
2000000e:	4a0c      	ldr	r2, [pc, #48]	@ (20000040 <FLASH_Program_Fast+0x34>)
20000010:	6954      	ldr	r4, [r2, #20]
20000012:	2380      	movs	r3, #128	@ 0x80
20000014:	02db      	lsls	r3, r3, #11
20000016:	4323      	orrs	r3, r4
20000018:	6153      	str	r3, [r2, #20]
2000001a:	f3ef 8410 	mrs	r4, PRIMASK
2000001e:	b672      	cpsid	i
20000020:	2300      	movs	r3, #0
20000022:	e003      	b.n	2000002c <FLASH_Program_Fast+0x20>
20000024:	c904      	ldmia	r1!, {r2}
20000026:	c004      	stmia	r0!, {r2}
20000028:	3301      	adds	r3, #1
2000002a:	b2db      	uxtb	r3, r3
2000002c:	2b3f      	cmp	r3, #63	@ 0x3f
2000002e:	d9f9      	bls.n	20000024 <FLASH_Program_Fast+0x18>
20000030:	4b03      	ldr	r3, [pc, #12]	@ (20000040 <FLASH_Program_Fast+0x34>)
20000032:	691b      	ldr	r3, [r3, #16]
20000034:	03db      	lsls	r3, r3, #15
20000036:	d4fb      	bmi.n	20000030 <FLASH_Program_Fast+0x24>
20000038:	f384 8810 	msr	PRIMASK, r4
2000003c:	bd10      	pop	{r4, pc}
2000003e:	46c0      	nop			@ (mov r8, r8)
20000040:	40022000 	.word	0x40022000
